

Microchip MPLAB XC8 Assembler V2.36 build 20220127204148 
                                                                                               Thu Sep 01 15:25:02 2022

Microchip MPLAB XC8 C Compiler v2.36 (Free license) build 20220127204148 Og1 
     1                           	processor	18F26K83
     2                           	fnconf	rparam,??,?,0
     3                           	pagewidth 120
     4                           	opt	flic
     5                           	psect	nvCOMRAM,global,class=COMRAM,space=1,delta=1,lowdata,noexec
     6                           	psect	nvBANK0,global,class=BANK0,space=1,delta=1,lowdata,noexec
     7                           	psect	cinit,global,reloc=2,class=CODE,delta=1
     8                           	psect	bssBANK0,global,class=BANK0,space=1,delta=1,lowdata,noexec
     9                           	psect	bssBANK1,global,class=BANK1,space=1,delta=1,lowdata,noexec
    10                           	psect	bssBIGRAM,global,class=BIGRAM,space=1,delta=1,noexec
    11                           	psect	cstackBANK0,global,class=BANK0,space=1,delta=1,lowdata,noexec
    12                           	psect	cstackCOMRAM,global,class=COMRAM,space=1,delta=1,lowdata,noexec
    13                           	psect	text0,global,reloc=2,class=CODE,delta=1
    14                           	psect	text1,global,reloc=2,class=CODE,delta=1
    15                           	psect	text2,global,reloc=2,class=CODE,delta=1
    16                           	psect	text3,global,reloc=2,class=CODE,delta=1
    17                           	psect	text4,global,reloc=2,class=CODE,delta=1
    18                           	psect	text5,global,reloc=2,class=CODE,delta=1
    19                           	psect	text6,global,reloc=2,class=CODE,delta=1
    20                           	psect	text7,global,reloc=2,class=CODE,delta=1
    21                           	psect	text8,global,reloc=2,class=CODE,delta=1
    22                           	psect	text9,global,reloc=2,class=CODE,delta=1
    23                           	psect	text10,global,reloc=2,class=CODE,delta=1
    24                           	psect	text11,global,reloc=2,class=CODE,delta=1
    25                           	psect	text12,global,reloc=2,class=CODE,delta=1
    26                           	psect	text13,global,reloc=2,class=CODE,delta=1
    27                           	psect	text14,global,reloc=2,class=CODE,delta=1
    28                           	psect	text15,global,reloc=2,class=CODE,delta=1
    29                           	psect	text16,global,reloc=2,class=CODE,delta=1
    30                           	psect	text17,global,reloc=2,class=CODE,delta=1
    31                           	psect	text18,global,reloc=2,class=CODE,delta=1
    32                           	psect	text19,global,reloc=2,class=CODE,delta=1,group=1
    33                           	psect	text20,global,reloc=2,class=CODE,delta=1
    34                           	psect	text21,global,reloc=2,class=CODE,delta=1
    35                           	psect	text22,global,reloc=2,class=CODE,delta=1
    36                           	psect	text23,global,reloc=2,class=CODE,delta=1
    37                           	psect	text24,global,reloc=2,class=CODE,delta=1
    38                           	psect	text25,global,reloc=2,class=CODE,delta=1
    39                           	psect	text26,global,reloc=2,class=CODE,delta=1
    40                           	psect	text27,global,reloc=2,class=CODE,delta=1
    41                           	psect	text28,global,reloc=2,class=CODE,delta=1
    42                           	psect	text29,global,reloc=2,class=CODE,delta=1
    43                           	psect	text30,global,reloc=2,class=CODE,delta=1
    44                           	psect	text31,global,reloc=2,class=CODE,delta=1
    45                           	psect	text32,global,reloc=2,class=CODE,delta=1
    46                           	psect	text33,global,reloc=2,class=CODE,delta=1
    47                           	psect	text34,global,reloc=2,class=CODE,delta=1
    48                           	psect	text35,global,reloc=2,class=CODE,delta=1
    49                           	psect	text36,global,reloc=2,class=CODE,delta=1
    50                           	psect	text37,global,reloc=2,class=CODE,delta=1
    51                           	psect	text38,global,reloc=2,class=CODE,delta=1
    52                           	psect	text39,global,reloc=2,class=CODE,delta=1
    53                           	psect	text40,global,reloc=2,class=CODE,delta=1
    54                           	psect	text41,global,reloc=2,class=CODE,delta=1
    55                           	psect	text42,global,reloc=2,class=CODE,delta=1
    56                           	psect	text43,global,reloc=2,class=CODE,delta=1
    57                           	psect	text44,global,reloc=2,class=CODE,delta=1,group=1
    58                           	psect	text45,global,reloc=2,class=CODE,delta=1
    59                           	psect	text46,global,reloc=2,class=CODE,delta=1
    60                           	psect	text47,global,reloc=2,class=CODE,delta=1
    61                           	psect	text48,global,reloc=2,class=CODE,delta=1
    62                           	psect	text49,global,reloc=2,class=CODE,delta=1
    63                           	psect	text50,global,reloc=2,class=CODE,delta=1
    64                           	psect	text51,global,reloc=2,class=CODE,delta=1
    65                           	psect	text52,global,reloc=2,class=CODE,delta=1
    66                           	psect	text53,global,reloc=2,class=CODE,delta=1
    67                           	psect	text54,global,reloc=2,class=CODE,delta=1
    68                           	psect	text55,global,reloc=2,class=CODE,delta=1
    69                           	psect	text56,global,reloc=2,class=CODE,delta=1
    70                           	psect	text57,global,reloc=2,class=CODE,delta=1
    71                           	psect	text58,global,reloc=2,class=CODE,delta=1
    72                           	psect	text59,global,reloc=2,class=CODE,delta=1
    73                           	psect	text60,global,reloc=2,class=CODE,delta=1
    74                           	psect	text61,global,reloc=2,class=CODE,delta=1
    75                           	psect	text62,global,reloc=2,class=CODE,delta=1
    76                           	psect	text63,global,reloc=2,class=CODE,delta=1
    77                           	psect	text64,global,reloc=2,class=CODE,delta=1
    78                           	psect	text65,global,reloc=2,class=CODE,delta=1
    79                           	psect	text66,global,reloc=2,class=CODE,delta=1
    80                           	psect	text67,global,reloc=2,class=CODE,delta=1
    81                           	psect	text68,global,reloc=2,class=CODE,delta=1
    82                           	psect	text69,global,reloc=2,class=CODE,delta=1
    83                           	psect	text70,global,reloc=2,class=CODE,delta=1
    84                           	psect	text71,global,reloc=2,class=CODE,delta=1
    85                           	psect	text72,global,reloc=2,class=CODE,delta=1
    86                           	psect	text73,global,reloc=2,class=CODE,delta=1
    87                           	psect	text74,global,reloc=2,class=CODE,delta=1
    88                           	psect	text75,global,reloc=2,class=CODE,delta=1
    89                           	psect	text76,global,reloc=2,class=CODE,delta=1
    90                           	psect	text77,global,reloc=2,class=CODE,delta=1
    91                           	psect	text78,global,reloc=2,class=CODE,delta=1
    92                           	psect	text79,global,reloc=2,class=CODE,delta=1
    93                           	psect	text80,global,reloc=2,class=CODE,delta=1
    94                           	psect	text81,global,reloc=2,class=CODE,delta=1
    95                           	psect	text82,global,reloc=2,class=CODE,delta=1
    96                           	psect	text83,global,reloc=2,class=CODE,delta=1
    97                           	psect	text84,global,reloc=2,class=CODE,delta=1
    98                           	psect	text85,global,reloc=2,class=CODE,delta=1
    99                           	psect	text86,global,reloc=2,class=CODE,delta=1
   100                           	psect	text87,global,reloc=2,class=CODE,delta=1
   101                           	psect	text88,global,reloc=2,class=CODE,delta=1
   102                           	psect	text89,global,reloc=2,class=CODE,delta=1
   103                           	psect	text90,global,reloc=2,class=CODE,delta=1
   104                           	psect	ivt0x8,global,reloc=2,class=CODE,delta=1,noexec,keep,optim=
   105                           	psect	intsave_regs,global,class=BIGRAM,space=1,delta=1,noexec
   106                           	psect	text91,global,reloc=2,class=CODE,delta=1
   107                           	psect	rparam,global,class=COMRAM,space=1,delta=1,noexec
   108                           	psect	idloc,global,abs,ovrld,class=IDLOC,space=5,delta=1,noexec
   109                           	psect	config,global,abs,ovrld,class=CONFIG,space=4,delta=1,noexec
   110  0000                     
   111                           ; Version 2.20
   112                           ; Generated 05/05/2020 GMT
   113                           ; 
   114                           ; Copyright © 2020, Microchip Technology Inc. and its subsidiaries ("Microchip")
   115                           ; All rights reserved.
   116                           ; 
   117                           ; This software is developed by Microchip Technology Inc. and its subsidiaries ("Microch
      +                          ip").
   118                           ; 
   119                           ; Redistribution and use in source and binary forms, with or without modification, are
   120                           ; permitted provided that the following conditions are met:
   121                           ; 
   122                           ;     1. Redistributions of source code must retain the above copyright notice, this lis
      +                          t of
   123                           ;        conditions and the following disclaimer.
   124                           ; 
   125                           ;     2. Redistributions in binary form must reproduce the above copyright notice, this 
      +                          list
   126                           ;        of conditions and the following disclaimer in the documentation and/or other
   127                           ;        materials provided with the distribution.
   128                           ; 
   129                           ;     3. Microchip's name may not be used to endorse or promote products derived from th
      +                          is
   130                           ;        software without specific prior written permission.
   131                           ; 
   132                           ; THIS SOFTWARE IS PROVIDED BY MICROCHIP "AS IS" AND ANY EXPRESS OR IMPLIED WARRANTIES,
   133                           ; INCLUDING, BUT NOT LIMITED TO, THE IMPLIED WARRANTIES OF MERCHANTABILITY AND FITNESS F
      +                          OR
   134                           ; PURPOSE ARE DISCLAIMED.  IN NO EVENT SHALL MICROCHIP BE LIABLE FOR ANY DIRECT, INDIREC
      +                          T,
   135                           ; INCIDENTAL, SPECIAL, EXEMPLARY, OR CONSEQUENTIAL DAMAGES (INCLUDING BUT NOT LIMITED TO
   136                           ; PROCUREMENT OF SUBSTITUTE GOODS OR SERVICES; LOSS OF USE, DATA OR PROFITS; OR BUSINESS
   137                           ; INTERRUPTION) HOWSOEVER CAUSED AND ON ANY THEORY OF LIABILITY, WHETHER IN CONTRACT, ST
      +                          RICT
   138                           ; LIABILITY, OR TORT (INCLUDING NEGLIGENCE OR OTHERWISE) ARISING IN ANY WAY OUT OF THE U
      +                          SE OF
   139                           ; THIS SOFTWARE, EVEN IF ADVISED OF THE POSSIBILITY OF SUCH DAMAGE.
   140                           ; 
   141                           ; 
   142                           ; Code-generator required, PIC18F26K83 Definitions
   143                           ; 
   144                           ; SFR Addresses
   145  0000                     
   146 ;; Function _UART1_DefaultFramingErrorHandler is unused but had its address taken
   147  0000                     
   148 ;; Function _UART1_DefaultOverrunErrorHandler is unused but had its address taken
   149  0000                     
   150 ;; Function _UART1_DefaultErrorHandler is unused but had its address taken
   151  0000                     _COMSTATbits	set	16272
   152  0000                     _RXB1SIDH	set	14321
   153  0000                     _RXB1SIDL	set	14322
   154  0000                     _RXB0D7	set	16269
   155  0000                     _RXB0D6	set	16268
   156  0000                     _RXB0D5	set	16267
   157  0000                     _RXB0D4	set	16266
   158  0000                     _RXB0D3	set	16265
   159  0000                     _RXB0D2	set	16264
   160  0000                     _RXB0D1	set	16263
   161  0000                     _RXB0D0	set	16262
   162  0000                     _RXB0DLC	set	16261
   163  0000                     _RXB0SIDH	set	16257
   164  0000                     _RXB0EIDL	set	16260
   165  0000                     _RXB0EIDH	set	16259
   166  0000                     _RXB0SIDL	set	16258
   167  0000                     _TXB2SIDL	set	14274
   168  0000                     _TXB2SIDH	set	14273
   169  0000                     _TXB2EIDH	set	14275
   170  0000                     _TXB2CONbits	set	14272
   171  0000                     _TXB1SIDL	set	14290
   172  0000                     _TXB1SIDH	set	14289
   173  0000                     _TXB1EIDH	set	14291
   174  0000                     _TXB1CONbits	set	14288
   175  0000                     _TXB0SIDL	set	14306
   176  0000                     _TXB0SIDH	set	14305
   177  0000                     _TXB0EIDH	set	14307
   178  0000                     _TXB0CONbits	set	14304
   179  0000                     _ECANCON	set	16273
   180  0000                     _NVMADRL	set	14816
   181  0000                     _NVMADRH	set	14817
   182  0000                     _NVMCON1bits	set	14821
   183  0000                     _OSCTUNE	set	14814
   184  0000                     _OSCFRQ	set	14815
   185  0000                     _LATA	set	16314
   186  0000                     _T0CON0	set	16312
   187  0000                     _RXF5SIDL	set	14261
   188  0000                     _RXF5SIDH	set	14260
   189  0000                     _RXF5EIDL	set	14263
   190  0000                     _RXF5EIDH	set	14262
   191  0000                     _RXF4SIDL	set	14257
   192  0000                     _RXF4SIDH	set	14256
   193  0000                     _RXF4EIDL	set	14259
   194  0000                     _RXF4EIDH	set	14258
   195  0000                     _RXF3SIDL	set	14253
   196  0000                     _RXF3SIDH	set	14252
   197  0000                     _RXF3EIDL	set	14255
   198  0000                     _RXF3EIDH	set	14254
   199  0000                     _RXF2SIDL	set	14249
   200  0000                     _RXF2SIDH	set	14248
   201  0000                     _RXF2EIDL	set	14251
   202  0000                     _RXF2EIDH	set	14250
   203  0000                     _RXM1SIDL	set	14269
   204  0000                     _RXM1SIDH	set	14268
   205  0000                     _RXM1EIDL	set	14271
   206  0000                     _RXM1EIDH	set	14270
   207  0000                     _RXF1SIDL	set	14245
   208  0000                     _RXF1SIDH	set	14244
   209  0000                     _RXF1EIDL	set	14247
   210  0000                     _RXF1EIDH	set	14246
   211  0000                     _RXF0SIDL	set	14241
   212  0000                     _RXF0EIDL	set	14243
   213  0000                     _RXM0SIDL	set	14265
   214  0000                     _RXM0EIDL	set	14267
   215                           
   216                           	psect	nvCOMRAM
   217  000031                     __pnvCOMRAM:
   218                           	callstack 0
   219  000031                     _TMR0_InterruptHandler:
   220                           	callstack 0
   221  000031                     	ds	2
   222                           
   223                           	psect	nvBANK0
   224  0000D1                     __pnvBANK0:
   225                           	callstack 0
   226  0000D1                     _UART1_ErrorHandler:
   227                           	callstack 0
   228  0000D1                     	ds	2
   229  0000D3                     _UART1_OverrunErrorHandler:
   230                           	callstack 0
   231  0000D3                     	ds	2
   232  0000D5                     _UART1_FramingErrorHandler:
   233                           	callstack 0
   234  0000D5                     	ds	2
   235  0000                     _U1ERRIRbits	set	15865
   236  0000                     _U1CON0bits	set	15858
   237  0000                     _LATB	set	16315
   238  0000                     _T0CON0bits	set	16312
   239  0000                     _BRGCON1	set	14083
   240  0000                     _CIOCON	set	14080
   241  0000                     _PIE3bits	set	14739
   242  0000                     _PIE5bits	set	14741
   243  0000                     _LATBbits	set	16315
   244  0000                     _PORTCbits	set	16332
   245  0000                     _RXF0SIDH	set	14240
   246  0000                     _RXF0EIDH	set	14242
   247  0000                     _RXM0SIDH	set	14264
   248  0000                     _RXM0EIDH	set	14266
   249  0000                     _INTCON0bits	set	16338
   250  0000                     _TRISA	set	16322
   251  0000                     _LATC	set	16316
   252  0000                     _TABLAT	set	16373
   253  0000                     _TBLPTRL	set	16374
   254  0000                     _TBLPTRH	set	16375
   255  0000                     _TBLPTRU	set	16376
   256  0000                     _PIR0bits	set	14752
   257  0000                     _PIR3bits	set	14755
   258  0000                     _PIR5bits	set	14757
   259  0000                     _PMD0	set	14784
   260  0000                     _OSCCON1	set	14809
   261  0000                     _RB2PPS	set	14858
   262  0000                     _ANSELA	set	14912
   263  0000                     _ANSELB	set	14928
   264  0000                     _ANSELC	set	14944
   265  0000                     _TMR0L	set	16310
   266  0000                     _TMR0H	set	16311
   267  0000                     _T0CON1	set	16313
   268  0000                     _TRISC	set	16324
   269  0000                     _TRISB	set	16323
   270  0000                     _INLVLC	set	14948
   271  0000                     _SLRCONC	set	14947
   272  0000                     _ODCONC	set	14946
   273  0000                     _WPUC	set	14945
   274  0000                     _WPUE	set	14977
   275  0000                     _INLVLB	set	14932
   276  0000                     _SLRCONB	set	14931
   277  0000                     _ODCONB	set	14930
   278  0000                     _WPUB	set	14929
   279  0000                     _INLVLA	set	14916
   280  0000                     _SLRCONA	set	14915
   281  0000                     _ODCONA	set	14914
   282  0000                     _WPUA	set	14913
   283  0000                     _INLVLE	set	14980
   284  0000                     _U1RXPPS	set	15079
   285  0000                     _CANRXPPS	set	15085
   286  0000                     _RC5PPS	set	14869
   287  0000                     _U1RXB	set	15848
   288  0000                     _U1P1L	set	15852
   289  0000                     _RXB0CONbits	set	16256
   290  0000                     _CANSTAT	set	16270
   291  0000                     _CANCON	set	16271
   292  0000                     _OSCCON3	set	14811
   293  0000                     _OSCEN	set	14813
   294  0000                     _PMD7	set	14791
   295  0000                     _PMD6	set	14790
   296  0000                     _PMD5	set	14789
   297  0000                     _PMD4	set	14788
   298  0000                     _PMD3	set	14787
   299  0000                     _PMD2	set	14786
   300  0000                     _PMD1	set	14785
   301  0000                     _NVMCON2	set	14822
   302  0000                     _NVMDAT	set	14819
   303  0000                     _BRGCON3	set	14085
   304  0000                     _BRGCON2	set	14084
   305  0000                     _RXB1CONbits	set	14320
   306  0000                     _TXB0D7	set	14317
   307  0000                     _TXB0D6	set	14316
   308  0000                     _TXB0D5	set	14315
   309  0000                     _TXB0D4	set	14314
   310  0000                     _TXB0D3	set	14313
   311  0000                     _TXB0D2	set	14312
   312  0000                     _TXB0D1	set	14311
   313  0000                     _TXB0D0	set	14310
   314  0000                     _TXB0DLC	set	14309
   315  0000                     _TXB0EIDL	set	14308
   316  0000                     _TXB1D7	set	14301
   317  0000                     _TXB1D6	set	14300
   318  0000                     _TXB1D5	set	14299
   319  0000                     _TXB1D4	set	14298
   320  0000                     _TXB1D3	set	14297
   321  0000                     _TXB1D2	set	14296
   322  0000                     _TXB1D1	set	14295
   323  0000                     _TXB1D0	set	14294
   324  0000                     _TXB1DLC	set	14293
   325  0000                     _TXB1EIDL	set	14292
   326  0000                     _TXB2D7	set	14285
   327  0000                     _TXB2D6	set	14284
   328  0000                     _TXB2D5	set	14283
   329  0000                     _TXB2D4	set	14282
   330  0000                     _TXB2D3	set	14281
   331  0000                     _TXB2D2	set	14280
   332  0000                     _TXB2D1	set	14279
   333  0000                     _TXB2D0	set	14278
   334  0000                     _TXB2DLC	set	14277
   335  0000                     _TXB2EIDL	set	14276
   336  0000                     _RXB1D7	set	14333
   337  0000                     _RXB1D6	set	14332
   338  0000                     _RXB1D5	set	14331
   339  0000                     _RXB1D4	set	14330
   340  0000                     _RXB1D3	set	14329
   341  0000                     _RXB1D2	set	14328
   342  0000                     _RXB1D1	set	14327
   343  0000                     _RXB1D0	set	14326
   344  0000                     _RXB1DLC	set	14325
   345  0000                     _RXB1EIDL	set	14324
   346  0000                     _RXB1EIDH	set	14323
   347  0000                     _U1ERRIE	set	15866
   348  0000                     _U1ERRIR	set	15865
   349  0000                     _U1UIR	set	15864
   350  0000                     _U1FIFO	set	15863
   351  0000                     _U1BRGH	set	15862
   352  0000                     _U1BRGL	set	15861
   353  0000                     _U1CON2	set	15860
   354  0000                     _U1CON1	set	15859
   355  0000                     _U1CON0	set	15858
   356  0000                     _U1P3H	set	15857
   357  0000                     _U1P3L	set	15856
   358  0000                     _U1P2H	set	15855
   359  0000                     _U1P2L	set	15854
   360  0000                     _U1P1H	set	15853
   361  0000                     _U1TXB	set	15850
   362                           
   363                           ; #config settings
   364                           
   365                           	psect	cinit
   366  003170                     __pcinit:
   367                           	callstack 0
   368  003170                     start_initialization:
   369                           	callstack 0
   370  003170                     __initialization:
   371                           	callstack 0
   372                           
   373                           ; Clear objects allocated to BIGRAM (318 bytes)
   374  003170  EE00  F1E9         	lfsr	0,__pbssBIGRAM
   375  003174  EE10 F13E          	lfsr	1,318
   376  003178                     clear_0:
   377  003178  6AEE               	clrf	postinc0,c
   378  00317A  50E5               	movf	postdec1,w,c
   379  00317C  50E1               	movf	fsr1l,w,c
   380  00317E  E1FC               	bnz	clear_0
   381  003180  50E2               	movf	fsr1h,w,c
   382  003182  E1FA               	bnz	clear_0
   383                           
   384                           ; Clear objects allocated to BANK1 (233 bytes)
   385  003184  EE00  F100         	lfsr	0,__pbssBANK1
   386  003188  0EE9               	movlw	233
   387  00318A                     clear_1:
   388  00318A  6AEE               	clrf	postinc0,c
   389  00318C  06E8               	decf	wreg,f,c
   390  00318E  E1FD               	bnz	clear_1
   391                           
   392                           ; Clear objects allocated to BANK0 (1 bytes)
   393  003190  0100               	movlb	0
   394  003192  6BD7               	clrf	__pbssBANK0& (0+255),b
   395                           
   396                           ;
   397                           ; Setup IVTBASE
   398                           ;
   399  003194  0E08               	movlw	(ivt0x8_base shr 0)& (0+255)
   400  003196  6ED5               	movwf	213,c
   401  003198  0E00               	movlw	(ivt0x8_base shr (0+8))& (0+255)
   402  00319A  6ED6               	movwf	214,c
   403  00319C  0E00               	movlw	(ivt0x8_base shr (0+16))& (0+255)
   404  00319E  6ED7               	movwf	215,c
   405  0031A0                     end_of_initialization:
   406                           	callstack 0
   407  0031A0                     __end_of__initialization:
   408                           	callstack 0
   409  0031A0  0E00               	movlw	low (__Lmediumconst shr (0+16))
   410  0031A2  6EF8               	movwf	tblptru,c
   411  0031A4  0100               	movlb	0
   412  0031A6  EF22  F019         	goto	_main	;jump to C main() function
   413                           
   414                           	psect	bssBANK0
   415  0000D7                     __pbssBANK0:
   416                           	callstack 0
   417  0000D7                     _uart1RxLastError:
   418                           	callstack 0
   419  0000D7                     	ds	1
   420                           
   421                           	psect	bssBANK1
   422  000100                     __pbssBANK1:
   423                           	callstack 0
   424  000100                     _theFactory:
   425                           	callstack 0
   426  000100                     	ds	233
   427                           
   428                           	psect	bssBIGRAM
   429  0001E9                     __pbssBIGRAM:
   430                           	callstack 0
   431  0001E9                     _theXF:
   432                           	callstack 0
   433  0001E9                     	ds	318
   434                           
   435                           	psect	cstackBANK0
   436  000060                     __pcstackBANK0:
   437                           	callstack 0
   438  000060                     ?_l:
   439                           	callstack 0
   440  000060                     ?_st:
   441                           	callstack 0
   442  000060                     ?_b:
   443                           	callstack 0
   444  000060                     ?_bsm:
   445                           	callstack 0
   446  000060                     ?_blc:
   447                           	callstack 0
   448  000060                     ?_cc:
   449                           	callstack 0
   450  000060                     ?_sepos:
   451                           	callstack 0
   452  000060                     ?_Event_getDelay:
   453                           	callstack 0
   454  000060                     ?___wmul:
   455                           	callstack 0
   456  000060                     ?___awmod:
   457                           	callstack 0
   458  000060                     ?_convertReg2ExtendedCANid:
   459                           	callstack 0
   460  000060                     ?_convertReg2StandardCANid:
   461                           	callstack 0
   462  000060                     ?_Event_getData:
   463                           	callstack 0
   464  000060                     convertReg2ExtendedCANid@tempRXBn_EIDL:
   465                           	callstack 0
   466  000060                     convertReg2StandardCANid@tempRXBn_SIDL:
   467                           	callstack 0
   468  000060                     ENTERCRITICAL@inISR:
   469                           	callstack 0
   470  000060                     LEAVECRITICAL@inISR:
   471                           	callstack 0
   472  000060                     Button_read@me:
   473                           	callstack 0
   474  000060                     Button_getId@me:
   475                           	callstack 0
   476  000060                     setPosition@me:
   477                           	callstack 0
   478  000060                     TMR0_SetInterruptHandler@InterruptHandler:
   479                           	callstack 0
   480  000060                     DATAEE_WriteByte@bAdd:
   481                           	callstack 0
   482  000060                     DATAEE_ReadByte@bAdd:
   483                           	callstack 0
   484  000060                     UART1_SetFramingErrorHandler@interruptHandler:
   485                           	callstack 0
   486  000060                     UART1_SetOverrunErrorHandler@interruptHandler:
   487                           	callstack 0
   488  000060                     UART1_SetErrorHandler@interruptHandler:
   489                           	callstack 0
   490  000060                     Event_setData@me:
   491                           	callstack 0
   492  000060                     Event_getData@me:
   493                           	callstack 0
   494  000060                     Event_setPE@me:
   495                           	callstack 0
   496  000060                     Event_setTarget@me:
   497                           	callstack 0
   498  000060                     Event_setId@me:
   499                           	callstack 0
   500  000060                     Event_getId@me:
   501                           	callstack 0
   502  000060                     Event_setDelay@me:
   503                           	callstack 0
   504  000060                     Event_getDelay@me:
   505                           	callstack 0
   506  000060                     ___wmul@multiplier:
   507                           	callstack 0
   508  000060                     ___awmod@dividend:
   509                           	callstack 0
   510  000060                     convertCANid2Reg@tempPassedInID:
   511                           	callstack 0
   512                           
   513                           ; 4 bytes @ 0x0
   514  000060                     	ds	1
   515  000061                     convertReg2ExtendedCANid@tempRXBn_SIDH:
   516                           	callstack 0
   517  000061                     XF_scheduleTimer@tm:
   518                           	callstack 0
   519                           
   520                           ; 2 bytes @ 0x1
   521  000061                     	ds	1
   522  000062                     ??_Button_read:
   523  000062                     DATAEE_WriteByte@bData:
   524                           	callstack 0
   525  000062                     convertReg2ExtendedCANid@tempRXBn_SIDL:
   526                           	callstack 0
   527  000062                     Event_setId@eventID:
   528                           	callstack 0
   529  000062                     BLControl_init@me:
   530                           	callstack 0
   531  000062                     Button_init@me:
   532                           	callstack 0
   533  000062                     Button_initHW@me:
   534                           	callstack 0
   535  000062                     ButtonSM_init@me:
   536                           	callstack 0
   537  000062                     ButtonSM_setObserver@me:
   538                           	callstack 0
   539  000062                     LED_init@me:
   540                           	callstack 0
   541  000062                     LED_on@me:
   542                           	callstack 0
   543  000062                     LED_off@me:
   544                           	callstack 0
   545  000062                     commControl_init@me:
   546                           	callstack 0
   547  000062                     setPosition@msg:
   548                           	callstack 0
   549  000062                     store_read@me:
   550                           	callstack 0
   551  000062                     sepos_init@me:
   552                           	callstack 0
   553  000062                     Event_setPE@processEvent:
   554                           	callstack 0
   555  000062                     Event_setTarget@target:
   556                           	callstack 0
   557  000062                     Event_setDelay@delay:
   558                           	callstack 0
   559  000062                     ___wmul@multiplicand:
   560                           	callstack 0
   561  000062                     ___awmod@divisor:
   562                           	callstack 0
   563  000062                     Event_setData@data:
   564                           	callstack 0
   565                           
   566                           ; 8 bytes @ 0x2
   567  000062                     	ds	1
   568  000063                     DATAEE_WriteByte@GIEBitValue:
   569                           	callstack 0
   570  000063                     XF_scheduleTimer@ev:
   571                           	callstack 0
   572                           
   573                           ; 15 bytes @ 0x3
   574  000063                     	ds	1
   575  000064                     ??_LED_on:
   576  000064                     ??_LED_off:
   577  000064                     ??_sepos_init:
   578  000064                     ??_convertReg2ExtendedCANid:
   579  000064                     ??_convertReg2StandardCANid:
   580  000064                     Button_init@id:
   581                           	callstack 0
   582  000064                     Button_read@value:
   583                           	callstack 0
   584  000064                     LED_init@id:
   585                           	callstack 0
   586  000064                     store_read@item:
   587                           	callstack 0
   588  000064                     convertCANid2Reg@canIdType:
   589                           	callstack 0
   590  000064                     ___awmod@counter:
   591                           	callstack 0
   592  000064                     ButtonSM_init@button:
   593                           	callstack 0
   594  000064                     ButtonSM_setObserver@observer:
   595                           	callstack 0
   596  000064                     store_init@me:
   597                           	callstack 0
   598  000064                     store_write@me:
   599                           	callstack 0
   600  000064                     ___wmul@product:
   601                           	callstack 0
   602                           
   603                           ; 2 bytes @ 0x4
   604  000064                     	ds	1
   605  000065                     Button_init@isPullUp:
   606                           	callstack 0
   607  000065                     store_read@value:
   608                           	callstack 0
   609  000065                     ___awmod@sign:
   610                           	callstack 0
   611  000065                     convertCANid2Reg@passedInEIDH:
   612                           	callstack 0
   613                           
   614                           ; 2 bytes @ 0x5
   615  000065                     	ds	1
   616  000066                     ?_XF_popEvent:
   617                           	callstack 0
   618  000066                     store_write@item:
   619                           	callstack 0
   620  000066                     convertReg2StandardCANid@tempRXBn_SIDH:
   621                           	callstack 0
   622  000066                     sepos_init@i:
   623                           	callstack 0
   624  000066                     BLControl_onButton@me:
   625                           	callstack 0
   626  000066                     ButtonSM_setObserver@observerCB:
   627                           	callstack 0
   628  000066                     LED_initHW@me:
   629                           	callstack 0
   630  000066                     Event_init@me:
   631                           	callstack 0
   632                           
   633                           ; 2 bytes @ 0x6
   634  000066                     	ds	1
   635  000067                     store_write@value:
   636                           	callstack 0
   637  000067                     convertCANid2Reg@passedInEIDL:
   638                           	callstack 0
   639  000067                     convertReg2StandardCANid@returnValue:
   640                           	callstack 0
   641                           
   642                           ; 4 bytes @ 0x7
   643  000067                     	ds	1
   644  000068                     ??_Event_getData:
   645  000068                     BLControl_onButton@buttonId:
   646                           	callstack 0
   647  000068                     convertReg2ExtendedCANid@tempRXBn_EIDH:
   648                           	callstack 0
   649  000068                     setCenter@me:
   650                           	callstack 0
   651  000068                     XF_init@i:
   652                           	callstack 0
   653                           
   654                           ; 2 bytes @ 0x8
   655  000068                     	ds	1
   656  000069                     BLControl_onButton@pressed:
   657                           	callstack 0
   658  000069                     convertCANid2Reg@passedInSIDH:
   659                           	callstack 0
   660  000069                     convertReg2ExtendedCANid@returnValue:
   661                           	callstack 0
   662                           
   663                           ; 4 bytes @ 0x9
   664  000069                     	ds	1
   665  00006A                     setCenter@msg:
   666                           	callstack 0
   667                           
   668                           ; 2 bytes @ 0xA
   669  00006A                     	ds	1
   670  00006B                     convertCANid2Reg@passedInSIDL:
   671                           	callstack 0
   672  00006B                     convertReg2StandardCANid@ConvertedID:
   673                           	callstack 0
   674                           
   675                           ; 4 bytes @ 0xB
   676  00006B                     	ds	1
   677  00006C                     
   678                           ; 1 bytes @ 0xC
   679  00006C                     	ds	1
   680  00006D                     ??_convertCANid2Reg:
   681  00006D                     convertReg2ExtendedCANid@CAN_standardLo_ID_lo2bits:
   682                           	callstack 0
   683                           
   684                           ; 1 bytes @ 0xD
   685  00006D                     	ds	1
   686  00006E                     convertReg2ExtendedCANid@CAN_standardLo_ID_hi3bits:
   687                           	callstack 0
   688                           
   689                           ; 1 bytes @ 0xE
   690  00006E                     	ds	1
   691  00006F                     convertReg2ExtendedCANid@ConvertedID:
   692                           	callstack 0
   693                           
   694                           ; 4 bytes @ 0xF
   695  00006F                     	ds	2
   696  000071                     convertCANid2Reg@wipSIDL:
   697                           	callstack 0
   698                           
   699                           ; 1 bytes @ 0x11
   700  000071                     	ds	1
   701  000072                     ??_ECAN_Initialize:
   702  000072                     XF_scheduleTimer@inISR:
   703                           	callstack 0
   704  000072                     CAN_transmit@tempCanMsg:
   705                           	callstack 0
   706                           
   707                           ; 2 bytes @ 0x12
   708  000072                     	ds	1
   709  000073                     XF_scheduleTimer@i:
   710                           	callstack 0
   711  000073                     CAN_receive@tempCanMsg:
   712                           	callstack 0
   713                           
   714                           ; 2 bytes @ 0x13
   715  000073                     	ds	1
   716  000074                     ??_CAN_transmit:
   717  000074                     XF_pushEvent@ev:
   718                           	callstack 0
   719                           
   720                           ; 15 bytes @ 0x14
   721  000074                     	ds	1
   722  000075                     ??_XF_popEvent:
   723  000075                     CAN_receive@returnValue:
   724                           	callstack 0
   725                           
   726                           ; 1 bytes @ 0x15
   727  000075                     	ds	2
   728  000077                     CAN_transmit@tempEIDH:
   729                           	callstack 0
   730  000077                     XF_popEvent@inISR:
   731                           	callstack 0
   732                           
   733                           ; 1 bytes @ 0x17
   734  000077                     	ds	1
   735  000078                     CAN_transmit@tempEIDL:
   736                           	callstack 0
   737  000078                     XF_popEvent@ev:
   738                           	callstack 0
   739                           
   740                           ; 15 bytes @ 0x18
   741  000078                     	ds	1
   742  000079                     CAN_transmit@tempSIDH:
   743                           	callstack 0
   744                           
   745                           ; 1 bytes @ 0x19
   746  000079                     	ds	1
   747  00007A                     CAN_transmit@tempSIDL:
   748                           	callstack 0
   749                           
   750                           ; 1 bytes @ 0x1A
   751  00007A                     	ds	1
   752  00007B                     steeringSetup@me:
   753                           	callstack 0
   754  00007B                     sendAliveFrame@me:
   755                           	callstack 0
   756  00007B                     getCenterFrame@me:
   757                           	callstack 0
   758  00007B                     getPositionFrame@me:
   759                           	callstack 0
   760                           
   761                           ; 2 bytes @ 0x1B
   762  00007B                     	ds	2
   763  00007D                     steeringSetup@msg:
   764                           	callstack 0
   765  00007D                     getPositionFrame@position:
   766                           	callstack 0
   767  00007D                     getCenterFrame@msgs:
   768                           	callstack 0
   769                           
   770                           ; 15 bytes @ 0x1D
   771  00007D                     	ds	2
   772  00007F                     steeringSetup@msgs:
   773                           	callstack 0
   774                           
   775                           ; 15 bytes @ 0x1F
   776  00007F                     	ds	2
   777  000081                     getPositionFrame@msg:
   778                           	callstack 0
   779                           
   780                           ; 15 bytes @ 0x21
   781  000081                     	ds	2
   782  000083                     XF_pushEvent@inISR:
   783                           	callstack 0
   784                           
   785                           ; 1 bytes @ 0x23
   786  000083                     	ds	1
   787  000084                     XF_pushEvent@tmid:
   788                           	callstack 0
   789                           
   790                           ; 2 bytes @ 0x24
   791  000084                     	ds	2
   792  000086                     ??_XF_pushEvent:
   793                           
   794                           ; 1 bytes @ 0x26
   795  000086                     	ds	1
   796  000087                     XF_pushEvent@tm:
   797                           	callstack 0
   798                           
   799                           ; 2 bytes @ 0x27
   800  000087                     	ds	2
   801  000089                     XF_pushEvent@temp:
   802                           	callstack 0
   803                           
   804                           ; 1 bytes @ 0x29
   805  000089                     	ds	1
   806  00008A                     POST@target:
   807                           	callstack 0
   808                           
   809                           ; 2 bytes @ 0x2A
   810  00008A                     	ds	2
   811  00008C                     POST@processEvent:
   812                           	callstack 0
   813                           
   814                           ; 2 bytes @ 0x2C
   815  00008C                     	ds	2
   816  00008E                     POST@id:
   817                           	callstack 0
   818                           
   819                           ; 1 bytes @ 0x2E
   820  00008E                     	ds	1
   821  00008F                     POST@delay:
   822                           	callstack 0
   823                           
   824                           ; 2 bytes @ 0x2F
   825  00008F                     	ds	2
   826  000091                     POST@data:
   827                           	callstack 0
   828                           
   829                           ; 8 bytes @ 0x31
   830  000091                     	ds	8
   831  000099                     POST@tmid:
   832                           	callstack 0
   833                           
   834                           ; 1 bytes @ 0x39
   835  000099                     	ds	1
   836  00009A                     POST@ev:
   837                           	callstack 0
   838                           
   839                           ; 15 bytes @ 0x3A
   840  00009A                     	ds	15
   841  0000A9                     ??_factory_toggleLed:
   842  0000A9                     ButtonSM_startBehaviour@me:
   843                           	callstack 0
   844  0000A9                     commControl_startBehaviour@me:
   845                           	callstack 0
   846  0000A9                     readCANFrame@me:
   847                           	callstack 0
   848                           
   849                           ; 2 bytes @ 0x49
   850  0000A9                     	ds	2
   851  0000AB                     _ButtonSM_startBehaviour$212:
   852                           	callstack 0
   853  0000AB                     readCANFrame@msg:
   854                           	callstack 0
   855                           
   856                           ; 2 bytes @ 0x4B
   857  0000AB                     	ds	1
   858  0000AC                     
   859                           ; 1 bytes @ 0x4C
   860  0000AC                     	ds	1
   861  0000AD                     ??_readCANFrame:
   862                           
   863                           ; 1 bytes @ 0x4D
   864  0000AD                     	ds	4
   865  0000B1                     ButtonSM_processEvent@ev:
   866                           	callstack 0
   867  0000B1                     commControl_processEvent@ev:
   868                           	callstack 0
   869                           
   870                           ; 2 bytes @ 0x51
   871  0000B1                     	ds	2
   872  0000B3                     ??_commControl_processEvent:
   873  0000B3                     ??_ButtonSM_processEvent:
   874                           
   875                           ; 1 bytes @ 0x53
   876  0000B3                     	ds	2
   877  0000B5                     ButtonSM_processEvent@oldState:
   878                           	callstack 0
   879                           
   880                           ; 1 bytes @ 0x55
   881  0000B5                     	ds	1
   882  0000B6                     ButtonSM_processEvent@me:
   883                           	callstack 0
   884                           
   885                           ; 2 bytes @ 0x56
   886  0000B6                     	ds	5
   887  0000BB                     commControl_processEvent@oldCSMState:
   888                           	callstack 0
   889                           
   890                           ; 1 bytes @ 0x5B
   891  0000BB                     	ds	1
   892  0000BC                     commControl_processEvent@oldASMState:
   893                           	callstack 0
   894                           
   895                           ; 1 bytes @ 0x5C
   896  0000BC                     	ds	1
   897  0000BD                     commControl_processEvent@processed:
   898                           	callstack 0
   899                           
   900                           ; 1 bytes @ 0x5D
   901  0000BD                     	ds	1
   902  0000BE                     commControl_processEvent@aliveTM:
   903                           	callstack 0
   904                           
   905                           ; 2 bytes @ 0x5E
   906  0000BE                     	ds	2
   907  0000C0                     commControl_processEvent@me:
   908                           	callstack 0
   909                           
   910                           ; 2 bytes @ 0x60
   911  0000C0                     	ds	2
   912  0000C2                     XF_executeOnce@ev:
   913                           	callstack 0
   914                           
   915                           ; 15 bytes @ 0x62
   916  0000C2                     	ds	15
   917  0000D1                     
   918                           ; 1 bytes @ 0x71
   919                           
   920                           	psect	cstackCOMRAM
   921  000001                     __pcstackCOMRAM:
   922                           	callstack 0
   923  000001                     ?i2_Event_getDelay:
   924                           	callstack 0
   925  000001                     ?i2___awmod:
   926                           	callstack 0
   927  000001                     i2ENTERCRITICAL@inISR:
   928                           	callstack 0
   929  000001                     i2LEAVECRITICAL@inISR:
   930                           	callstack 0
   931  000001                     i2Event_init@me:
   932                           	callstack 0
   933  000001                     i2Event_setDelay@me:
   934                           	callstack 0
   935  000001                     i2Event_getDelay@me:
   936                           	callstack 0
   937  000001                     i2___awmod@dividend:
   938                           	callstack 0
   939                           
   940                           ; 2 bytes @ 0x0
   941  000001                     	ds	1
   942  000002                     i2XF_scheduleTimer@tm:
   943                           	callstack 0
   944                           
   945                           ; 2 bytes @ 0x1
   946  000002                     	ds	1
   947  000003                     XF_unscheduleTimer@inISR:
   948                           	callstack 0
   949  000003                     i2Event_setDelay@delay:
   950                           	callstack 0
   951  000003                     i2___awmod@divisor:
   952                           	callstack 0
   953                           
   954                           ; 2 bytes @ 0x2
   955  000003                     	ds	1
   956  000004                     XF_unscheduleTimer@id:
   957                           	callstack 0
   958  000004                     i2XF_scheduleTimer@ev:
   959                           	callstack 0
   960                           
   961                           ; 15 bytes @ 0x3
   962  000004                     	ds	1
   963  000005                     i2___awmod@counter:
   964                           	callstack 0
   965                           
   966                           ; 1 bytes @ 0x4
   967  000005                     	ds	1
   968  000006                     i2___awmod@sign:
   969                           	callstack 0
   970                           
   971                           ; 1 bytes @ 0x5
   972  000006                     	ds	13
   973  000013                     i2XF_scheduleTimer@inISR:
   974                           	callstack 0
   975                           
   976                           ; 1 bytes @ 0x12
   977  000013                     	ds	1
   978  000014                     i2XF_scheduleTimer@i:
   979                           	callstack 0
   980                           
   981                           ; 1 bytes @ 0x13
   982  000014                     	ds	1
   983  000015                     i2XF_pushEvent@ev:
   984                           	callstack 0
   985                           
   986                           ; 15 bytes @ 0x14
   987  000015                     	ds	15
   988  000024                     i2XF_pushEvent@inISR:
   989                           	callstack 0
   990                           
   991                           ; 1 bytes @ 0x23
   992  000024                     	ds	1
   993  000025                     i2XF_pushEvent@tmid:
   994                           	callstack 0
   995                           
   996                           ; 2 bytes @ 0x24
   997  000025                     	ds	2
   998  000027                     ??i2_XF_pushEvent:
   999                           
  1000                           ; 1 bytes @ 0x26
  1001  000027                     	ds	1
  1002  000028                     i2XF_pushEvent@tm:
  1003                           	callstack 0
  1004                           
  1005                           ; 2 bytes @ 0x27
  1006  000028                     	ds	2
  1007  00002A                     i2XF_pushEvent@temp:
  1008                           	callstack 0
  1009                           
  1010                           ; 1 bytes @ 0x29
  1011  00002A                     	ds	1
  1012  00002B                     
  1013                           ; 1 bytes @ 0x2A
  1014  00002B                     	ds	2
  1015  00002D                     XF_decrementAndQueueTimers@dummy:
  1016                           	callstack 0
  1017                           
  1018                           ; 1 bytes @ 0x2C
  1019  00002D                     	ds	1
  1020  00002E                     XF_decrementAndQueueTimers@i:
  1021                           	callstack 0
  1022                           
  1023                           ; 1 bytes @ 0x2D
  1024  00002E                     	ds	1
  1025  00002F                     ??_INTERRUPT_InterruptManager:
  1026                           
  1027                           ; 1 bytes @ 0x2E
  1028  00002F                     	ds	2
  1029                           
  1030 ;;
  1031 ;;Main: autosize = 0, tempsize = 0, incstack = 0, save=0
  1032 ;;
  1033 ;; *************** function _main *****************
  1034 ;; Defined at:
  1035 ;;		line 8 in file "main.c"
  1036 ;; Parameters:    Size  Location     Type
  1037 ;;		None
  1038 ;; Auto vars:     Size  Location     Type
  1039 ;;		None
  1040 ;; Return value:  Size  Location     Type
  1041 ;;                  1    wreg      void 
  1042 ;; Registers used:
  1043 ;;		wreg, fsr0l, fsr0h, fsr1l, fsr1h, fsr2l, fsr2h, status,2, status,0, pcl, pclath, pclatu, tosl, prodl, prodh, cstack
  1044 ;; Tracked objects:
  1045 ;;		On entry : 0/0
  1046 ;;		On exit  : 0/0
  1047 ;;		Unchanged: 0/0
  1048 ;; Data sizes:     COMRAM   BANK0   BANK1   BANK2   BANK3   BANK4   BANK5   BANK6   BANK7   BANK8   BANK9  BANK10  BANK1
      +1  BANK12  BANK13  BANK14  BANK15
  1049 ;;      Params:         0       0       0       0       0       0       0       0       0       0       0       0       
      +0       0       0       0       0
  1050 ;;      Locals:         0       0       0       0       0       0       0       0       0       0       0       0       
      +0       0       0       0       0
  1051 ;;      Temps:          0       0       0       0       0       0       0       0       0       0       0       0       
      +0       0       0       0       0
  1052 ;;      Totals:         0       0       0       0       0       0       0       0       0       0       0       0       
      +0       0       0       0       0
  1053 ;;Total ram usage:        0 bytes
  1054 ;; Hardware stack levels required when called: 13
  1055 ;; This function calls:
  1056 ;;		_Factory_build
  1057 ;;		_Factory_init
  1058 ;;		_Factory_start
  1059 ;;		_SYSTEM_Initialize
  1060 ;;		_TMR0_SetInterruptHandler
  1061 ;;		_XF_executeOnce
  1062 ;;		_XF_init
  1063 ;; This function is called by:
  1064 ;;		Startup code after reset
  1065 ;; This function uses a non-reentrant model
  1066 ;;
  1067                           
  1068                           	psect	text0
  1069  003244                     __ptext0:
  1070                           	callstack 0
  1071  003244                     _main:
  1072                           	callstack 18
  1073  003244                     
  1074                           ;main.c: 11:     SYSTEM_Initialize();
  1075  003244  ECC2  F019         	call	_SYSTEM_Initialize	;wreg free
  1076  003248                     
  1077                           ;main.c: 14:     (INTCON0bits.GIE = 1);
  1078  003248  8ED2               	bsf	210,7,c	;volatile
  1079  00324A                     
  1080                           ;main.c: 20:     XF_init();
  1081  00324A  EC99  F00F         	call	_XF_init	;wreg free
  1082  00324E                     
  1083                           ;main.c: 23:     Factory_init();
  1084  00324E  EC3E  F012         	call	_Factory_init	;wreg free
  1085                           
  1086                           ;main.c: 24:     Factory_build();
  1087  003252  EC79  F019         	call	_Factory_build	;wreg free
  1088  003256                     
  1089                           ;main.c: 25:     Factory_start();
  1090  003256  EC9A  F016         	call	_Factory_start	;wreg free
  1091  00325A                     
  1092                           ;main.c: 31:     TMR0_SetInterruptHandler(XF_decrementAndQueueTimers);
  1093  00325A  0E10               	movlw	low _XF_decrementAndQueueTimers
  1094  00325C  0100               	movlb	0	; () banked
  1095  00325E  6F60               	movwf	TMR0_SetInterruptHandler@InterruptHandler& (0+255),b
  1096  003260  0E20               	movlw	high _XF_decrementAndQueueTimers
  1097  003262  6F61               	movwf	(TMR0_SetInterruptHandler@InterruptHandler+1)& (0+255),b
  1098  003264  ECC3  F01A         	call	_TMR0_SetInterruptHandler	;wreg free
  1099  003268                     l5455:
  1100                           
  1101                           ;main.c: 34:     {;main.c: 36:         XF_executeOnce();
  1102  003268  ECF6  F015         	call	_XF_executeOnce	;wreg free
  1103  00326C  EF34  F019         	goto	l5455
  1104  003270  EF0D  F000         	goto	start
  1105  003274                     __end_of_main:
  1106                           	callstack 0
  1107                           
  1108 ;; *************** function _XF_init *****************
  1109 ;; Defined at:
  1110 ;;		line 73 in file "xf/xf.c"
  1111 ;; Parameters:    Size  Location     Type
  1112 ;;		None
  1113 ;; Auto vars:     Size  Location     Type
  1114 ;;  i               2    8[BANK0 ] int 
  1115 ;; Return value:  Size  Location     Type
  1116 ;;                  1    wreg      void 
  1117 ;; Registers used:
  1118 ;;		wreg, fsr2l, fsr2h, status,2, status,0, prodl, prodh, cstack
  1119 ;; Tracked objects:
  1120 ;;		On entry : 0/0
  1121 ;;		On exit  : 0/0
  1122 ;;		Unchanged: 0/0
  1123 ;; Data sizes:     COMRAM   BANK0   BANK1   BANK2   BANK3   BANK4   BANK5   BANK6   BANK7   BANK8   BANK9  BANK10  BANK1
      +1  BANK12  BANK13  BANK14  BANK15
  1124 ;;      Params:         0       0       0       0       0       0       0       0       0       0       0       0       
      +0       0       0       0       0
  1125 ;;      Locals:         0       2       0       0       0       0       0       0       0       0       0       0       
      +0       0       0       0       0
  1126 ;;      Temps:          0       0       0       0       0       0       0       0       0       0       0       0       
      +0       0       0       0       0
  1127 ;;      Totals:         0       2       0       0       0       0       0       0       0       0       0       0       
      +0       0       0       0       0
  1128 ;;Total ram usage:        2 bytes
  1129 ;; Hardware stack levels used: 1
  1130 ;; Hardware stack levels required when called: 7
  1131 ;; This function calls:
  1132 ;;		_Event_init
  1133 ;;		___wmul
  1134 ;; This function is called by:
  1135 ;;		_main
  1136 ;; This function uses a non-reentrant model
  1137 ;;
  1138                           
  1139                           	psect	text1
  1140  001F32                     __ptext1:
  1141                           	callstack 0
  1142  001F32                     _XF_init:
  1143                           	callstack 23
  1144  001F32                     
  1145                           ;xf/xf.c: 75:     int i;;xf/xf.c: 76:     for (i=0; i<12; i++)
  1146  001F32  0E00               	movlw	0
  1147  001F34  0100               	movlb	0	; () banked
  1148  001F36  6F69               	movwf	(XF_init@i+1)& (0+255),b
  1149  001F38  0E00               	movlw	0
  1150  001F3A  6F68               	movwf	XF_init@i& (0+255),b
  1151  001F3C                     l5323:
  1152                           
  1153                           ; BSR set to: 0
  1154                           ;xf/xf.c: 77:     {;xf/xf.c: 78:         Event_init(&(theXF.eventQueue[i]));
  1155  001F3C  C068  F060         	movff	XF_init@i,___wmul@multiplier
  1156  001F40  C069  F061         	movff	XF_init@i+1,___wmul@multiplier+1
  1157  001F44  0E00               	movlw	0
  1158  001F46  6F63               	movwf	(___wmul@multiplicand+1)& (0+255),b
  1159  001F48  0E0F               	movlw	15
  1160  001F4A  6F62               	movwf	___wmul@multiplicand& (0+255),b
  1161  001F4C  EC3A  F019         	call	___wmul	;wreg free
  1162  001F50  0E71               	movlw	low (_theXF+136)
  1163  001F52  0100               	movlb	0	; () banked
  1164  001F54  2560               	addwf	?___wmul& (0+255),w,b
  1165  001F56  6F66               	movwf	Event_init@me& (0+255),b
  1166  001F58  0E02               	movlw	high (_theXF+136)
  1167  001F5A  2161               	addwfc	(?___wmul+1)& (0+255),w,b
  1168  001F5C  6F67               	movwf	(Event_init@me+1)& (0+255),b
  1169  001F5E  ECCC  F016         	call	_Event_init	;wreg free
  1170  001F62                     
  1171                           ;xf/xf.c: 79:     }
  1172  001F62  0100               	movlb	0	; () banked
  1173  001F64  4B68               	infsnz	XF_init@i& (0+255),f,b
  1174  001F66  2B69               	incf	(XF_init@i+1)& (0+255),f,b
  1175  001F68                     
  1176                           ; BSR set to: 0
  1177  001F68  BF69               	btfsc	(XF_init@i+1)& (0+255),7,b
  1178  001F6A  EFC0  F00F         	goto	u2811
  1179  001F6E  5169               	movf	(XF_init@i+1)& (0+255),w,b
  1180  001F70  E109               	bnz	u2810
  1181  001F72  0E0C               	movlw	12
  1182  001F74  5D68               	subwf	XF_init@i& (0+255),w,b
  1183  001F76  A0D8               	btfss	status,0,c
  1184  001F78  EFC0  F00F         	goto	u2811
  1185  001F7C  EFC2  F00F         	goto	u2810
  1186  001F80                     u2811:
  1187  001F80  EF9E  F00F         	goto	l5323
  1188  001F84                     u2810:
  1189  001F84                     
  1190                           ; BSR set to: 0
  1191                           ;xf/xf.c: 81:     for (i=0; i<8; i++)
  1192  001F84  0E00               	movlw	0
  1193  001F86  6F69               	movwf	(XF_init@i+1)& (0+255),b
  1194  001F88  0E00               	movlw	0
  1195  001F8A  6F68               	movwf	XF_init@i& (0+255),b
  1196  001F8C                     l5335:
  1197                           
  1198                           ; BSR set to: 0
  1199                           ;xf/xf.c: 82:     {;xf/xf.c: 83:         theXF.timerList[i].tm = 0;
  1200  001F8C  C068  F060         	movff	XF_init@i,___wmul@multiplier
  1201  001F90  C069  F061         	movff	XF_init@i+1,___wmul@multiplier+1
  1202  001F94  0E00               	movlw	0
  1203  001F96  6F63               	movwf	(___wmul@multiplicand+1)& (0+255),b
  1204  001F98  0E11               	movlw	17
  1205  001F9A  6F62               	movwf	___wmul@multiplicand& (0+255),b
  1206  001F9C  EC3A  F019         	call	___wmul	;wreg free
  1207  001FA0  0EE9               	movlw	low _theXF
  1208  001FA2  0100               	movlb	0	; () banked
  1209  001FA4  2560               	addwf	?___wmul& (0+255),w,b
  1210  001FA6  6ED9               	movwf	fsr2l,c
  1211  001FA8  0E01               	movlw	high _theXF
  1212  001FAA  2161               	addwfc	(?___wmul+1)& (0+255),w,b
  1213  001FAC  6EDA               	movwf	fsr2h,c
  1214  001FAE  0E00               	movlw	0
  1215  001FB0  6EDE               	movwf	postinc2,c
  1216  001FB2  0E00               	movlw	0
  1217  001FB4  6EDD               	movwf	postdec2,c
  1218                           
  1219                           ;xf/xf.c: 84:         Event_init(&(theXF.timerList[i].ev));
  1220  001FB6  C068  F060         	movff	XF_init@i,___wmul@multiplier
  1221  001FBA  C069  F061         	movff	XF_init@i+1,___wmul@multiplier+1
  1222  001FBE  0E00               	movlw	0
  1223  001FC0  6F63               	movwf	(___wmul@multiplicand+1)& (0+255),b
  1224  001FC2  0E11               	movlw	17
  1225  001FC4  6F62               	movwf	___wmul@multiplicand& (0+255),b
  1226  001FC6  EC3A  F019         	call	___wmul	;wreg free
  1227  001FCA  0EEB               	movlw	low (_theXF+2)
  1228  001FCC  0100               	movlb	0	; () banked
  1229  001FCE  2560               	addwf	?___wmul& (0+255),w,b
  1230  001FD0  6F66               	movwf	Event_init@me& (0+255),b
  1231  001FD2  0E01               	movlw	high (_theXF+2)
  1232  001FD4  2161               	addwfc	(?___wmul+1)& (0+255),w,b
  1233  001FD6  6F67               	movwf	(Event_init@me+1)& (0+255),b
  1234  001FD8  ECCC  F016         	call	_Event_init	;wreg free
  1235  001FDC                     
  1236                           ;xf/xf.c: 85:     }
  1237  001FDC  0100               	movlb	0	; () banked
  1238  001FDE  4B68               	infsnz	XF_init@i& (0+255),f,b
  1239  001FE0  2B69               	incf	(XF_init@i+1)& (0+255),f,b
  1240  001FE2                     
  1241                           ; BSR set to: 0
  1242  001FE2  BF69               	btfsc	(XF_init@i+1)& (0+255),7,b
  1243  001FE4  EFFD  F00F         	goto	u2821
  1244  001FE8  5169               	movf	(XF_init@i+1)& (0+255),w,b
  1245  001FEA  E109               	bnz	u2820
  1246  001FEC  0E08               	movlw	8
  1247  001FEE  5D68               	subwf	XF_init@i& (0+255),w,b
  1248  001FF0  A0D8               	btfss	status,0,c
  1249  001FF2  EFFD  F00F         	goto	u2821
  1250  001FF6  EFFF  F00F         	goto	u2820
  1251  001FFA                     u2821:
  1252  001FFA  EFC6  F00F         	goto	l5335
  1253  001FFE                     u2820:
  1254  001FFE                     
  1255                           ; BSR set to: 0
  1256                           ;xf/xf.c: 86:     theXF.in = 0;
  1257  001FFE  0E00               	movlw	0
  1258  002000  006F FFA0  F325    	movff	wreg,_theXF+316
  1259                           
  1260                           ;xf/xf.c: 87:     theXF.out = 0;
  1261  002006  0E00               	movlw	0
  1262  002008  006F FFA0  F326    	movff	wreg,_theXF+317
  1263  00200E                     
  1264                           ; BSR set to: 0
  1265  00200E  0012               	return		;funcret
  1266  002010                     __end_of_XF_init:
  1267                           	callstack 0
  1268                           
  1269 ;; *************** function _XF_executeOnce *****************
  1270 ;; Defined at:
  1271 ;;		line 273 in file "xf/xf.c"
  1272 ;; Parameters:    Size  Location     Type
  1273 ;;		None
  1274 ;; Auto vars:     Size  Location     Type
  1275 ;;  ev             15   98[BANK0 ] struct Event_
  1276 ;; Return value:  Size  Location     Type
  1277 ;;                  1    wreg      void 
  1278 ;; Registers used:
  1279 ;;		wreg, fsr0l, fsr0h, fsr1l, fsr1h, fsr2l, fsr2h, status,2, status,0, pcl, pclath, pclatu, tosl, prodl, prodh, cstack
  1280 ;; Tracked objects:
  1281 ;;		On entry : 0/0
  1282 ;;		On exit  : 0/0
  1283 ;;		Unchanged: 0/0
  1284 ;; Data sizes:     COMRAM   BANK0   BANK1   BANK2   BANK3   BANK4   BANK5   BANK6   BANK7   BANK8   BANK9  BANK10  BANK1
      +1  BANK12  BANK13  BANK14  BANK15
  1285 ;;      Params:         0       0       0       0       0       0       0       0       0       0       0       0       
      +0       0       0       0       0
  1286 ;;      Locals:         0      15       0       0       0       0       0       0       0       0       0       0       
      +0       0       0       0       0
  1287 ;;      Temps:          0       0       0       0       0       0       0       0       0       0       0       0       
      +0       0       0       0       0
  1288 ;;      Totals:         0      15       0       0       0       0       0       0       0       0       0       0       
      +0       0       0       0       0
  1289 ;;Total ram usage:       15 bytes
  1290 ;; Hardware stack levels used: 1
  1291 ;; Hardware stack levels required when called: 12
  1292 ;; This function calls:
  1293 ;;		_ButtonSM_processEvent
  1294 ;;		_XF_popEvent
  1295 ;;		_commControl_processEvent
  1296 ;;		_factory_toggleLed
  1297 ;; This function is called by:
  1298 ;;		_main
  1299 ;; This function uses a non-reentrant model
  1300 ;;
  1301                           
  1302                           	psect	text2
  1303  002BEC                     __ptext2:
  1304                           	callstack 0
  1305  002BEC                     _XF_executeOnce:
  1306                           	callstack 18
  1307  002BEC                     
  1308                           ;xf/xf.c: 275:     Event ev = XF_popEvent(0);
  1309  002BEC  0E00               	movlw	0
  1310  002BEE  EC33  F011         	call	_XF_popEvent
  1311  002BF2  EE20  F0C2         	lfsr	2,XF_executeOnce@ev
  1312  002BF6  0E0E               	movlw	14
  1313  002BF8                     u2831:
  1314  002BF8  006F FFAF FFDB     	movff	plusw0,plusw2
  1315  002BFE  06E8               	decf	wreg,f,c
  1316  002C00  E2FB               	bc	u2831
  1317  002C02                     
  1318                           ;xf/xf.c: 277:     if (ev.id != 0)
  1319  002C02  0100               	movlb	0	; () banked
  1320  002C04  51C2               	movf	XF_executeOnce@ev& (0+255),w,b
  1321  002C06  B4D8               	btfsc	status,2,c
  1322  002C08  EF08  F016         	goto	u2841
  1323  002C0C  EF0A  F016         	goto	u2840
  1324  002C10                     u2841:
  1325  002C10  EF2F  F016         	goto	l1189
  1326  002C14                     u2840:
  1327  002C14                     
  1328                           ; BSR set to: 0
  1329                           ;xf/xf.c: 278:     {;xf/xf.c: 280:         if (ev.target != ((void*)0))
  1330  002C14  51C5               	movf	(XF_executeOnce@ev+3)& (0+255),w,b
  1331  002C16  11C6               	iorwf	(XF_executeOnce@ev+4)& (0+255),w,b
  1332  002C18  B4D8               	btfsc	status,2,c
  1333  002C1A  EF11  F016         	goto	u2851
  1334  002C1E  EF13  F016         	goto	u2850
  1335  002C22                     u2851:
  1336  002C22  EF2F  F016         	goto	l1189
  1337  002C26                     u2850:
  1338  002C26                     
  1339                           ; BSR set to: 0
  1340                           ;xf/xf.c: 281:         {;xf/xf.c: 284:             if (ev.processEvent != ((void*)0))
  1341  002C26  51C3               	movf	(XF_executeOnce@ev+1)& (0+255),w,b
  1342  002C28  11C4               	iorwf	(XF_executeOnce@ev+2)& (0+255),w,b
  1343  002C2A  B4D8               	btfsc	status,2,c
  1344  002C2C  EF1A  F016         	goto	u2861
  1345  002C30  EF1C  F016         	goto	u2860
  1346  002C34                     u2861:
  1347  002C34  EF2F  F016         	goto	l1189
  1348  002C38                     u2860:
  1349  002C38                     
  1350                           ; BSR set to: 0
  1351                           ;xf/xf.c: 285:             {;xf/xf.c: 288:                 ev.processEvent(&ev);
  1352  002C38  0EC2               	movlw	low XF_executeOnce@ev
  1353  002C3A  6FB1               	movwf	commControl_processEvent@ev& (0+255),b
  1354  002C3C  0E00               	movlw	high XF_executeOnce@ev
  1355  002C3E  6FB2               	movwf	(commControl_processEvent@ev+1)& (0+255),b
  1356  002C40  EE20  F0C3         	lfsr	2,XF_executeOnce@ev+1
  1357  002C44  D802               	call	u2878
  1358  002C46  EF2F  F016         	goto	u2879
  1359  002C4A                     u2878:
  1360  002C4A  0005               	push	
  1361  002C4C  6EFA               	movwf	pclath,c
  1362  002C4E  50DE               	movf	postinc2,w,c
  1363  002C50  6EFD               	movwf	tosl,c
  1364  002C52  50DE               	movf	postinc2,w,c
  1365  002C54  6EFE               	movwf	tosh,c
  1366  002C56  50F8               	movf	tblptru,w,c
  1367  002C58  6EFF               	movwf	tosu,c
  1368  002C5A  50FA               	movf	pclath,w,c
  1369  002C5C  0012               	return		;indir
  1370  002C5E                     u2879:
  1371  002C5E                     l1189:
  1372  002C5E  0012               	return		;funcret
  1373  002C60                     __end_of_XF_executeOnce:
  1374                           	callstack 0
  1375                           
  1376 ;; *************** function _factory_toggleLed *****************
  1377 ;; Defined at:
  1378 ;;		line 64 in file "factory/factory.c"
  1379 ;; Parameters:    Size  Location     Type
  1380 ;;		None
  1381 ;; Auto vars:     Size  Location     Type
  1382 ;;		None
  1383 ;; Return value:  Size  Location     Type
  1384 ;;                  1    wreg      void 
  1385 ;; Registers used:
  1386 ;;		wreg, fsr0l, fsr0h, fsr1l, fsr1h, fsr2l, fsr2h, status,2, status,0, prodl, prodh, cstack
  1387 ;; Tracked objects:
  1388 ;;		On entry : 0/0
  1389 ;;		On exit  : 0/0
  1390 ;;		Unchanged: 0/0
  1391 ;; Data sizes:     COMRAM   BANK0   BANK1   BANK2   BANK3   BANK4   BANK5   BANK6   BANK7   BANK8   BANK9  BANK10  BANK1
      +1  BANK12  BANK13  BANK14  BANK15
  1392 ;;      Params:         0       0       0       0       0       0       0       0       0       0       0       0       
      +0       0       0       0       0
  1393 ;;      Locals:         0       0       0       0       0       0       0       0       0       0       0       0       
      +0       0       0       0       0
  1394 ;;      Temps:          0       1       0       0       0       0       0       0       0       0       0       0       
      +0       0       0       0       0
  1395 ;;      Totals:         0       1       0       0       0       0       0       0       0       0       0       0       
      +0       0       0       0       0
  1396 ;;Total ram usage:        1 bytes
  1397 ;; Hardware stack levels used: 1
  1398 ;; Hardware stack levels required when called: 10
  1399 ;; This function calls:
  1400 ;;		_POST
  1401 ;; This function is called by:
  1402 ;;		_Factory_start
  1403 ;;		_XF_executeOnce
  1404 ;; This function uses a non-reentrant model
  1405 ;;
  1406                           
  1407                           	psect	text3
  1408  002CD0                     __ptext3:
  1409                           	callstack 0
  1410  002CD0                     _factory_toggleLed:
  1411                           	callstack 19
  1412  002CD0  B0BB               	btfsc	187,0,c	;volatile
  1413  002CD2  EF6D  F016         	goto	u2571
  1414  002CD6  EF70  F016         	goto	u2570
  1415  002CDA                     u2571:
  1416  002CDA  0E01               	movlw	1
  1417  002CDC  EF71  F016         	goto	u2576
  1418  002CE0                     u2570:
  1419  002CE0  0E00               	movlw	0
  1420  002CE2                     u2576:
  1421  002CE2  0AFF               	xorlw	255
  1422  002CE4  0100               	movlb	0	; () banked
  1423  002CE6  6FA9               	movwf	??_factory_toggleLed& (0+255),b
  1424  002CE8  50BB               	movf	187,w,c	;volatile
  1425  002CEA  19A9               	xorwf	??_factory_toggleLed& (0+255),w,b
  1426  002CEC  0BFE               	andlw	-2
  1427  002CEE  19A9               	xorwf	??_factory_toggleLed& (0+255),w,b
  1428  002CF0  6EBB               	movwf	187,c	;volatile
  1429  002CF2                     
  1430                           ; BSR set to: 0
  1431                           ;factory/factory.c: 66:     POST(&theFactory, &factory_toggleLed, 11, 1000, 0);
  1432  002CF2  0E00               	movlw	low _theFactory
  1433  002CF4  6F8A               	movwf	POST@target& (0+255),b
  1434  002CF6  0E01               	movlw	high _theFactory
  1435  002CF8  6F8B               	movwf	(POST@target+1)& (0+255),b
  1436  002CFA  0ED0               	movlw	low _factory_toggleLed
  1437  002CFC  6F8C               	movwf	POST@processEvent& (0+255),b
  1438  002CFE  0E2C               	movlw	high _factory_toggleLed
  1439  002D00  6F8D               	movwf	(POST@processEvent+1)& (0+255),b
  1440  002D02  0E0B               	movlw	11
  1441  002D04  6F8E               	movwf	POST@id& (0+255),b
  1442  002D06  0E03               	movlw	3
  1443  002D08  6F90               	movwf	(POST@delay+1)& (0+255),b
  1444  002D0A  0EE8               	movlw	232
  1445  002D0C  6F8F               	movwf	POST@delay& (0+255),b
  1446  002D0E  0E00               	movlw	0
  1447  002D10  6F91               	movwf	POST@data& (0+255),b
  1448  002D12  0E00               	movlw	0
  1449  002D14  6F92               	movwf	(POST@data+1)& (0+255),b
  1450  002D16  0E00               	movlw	0
  1451  002D18  6F93               	movwf	(POST@data+2)& (0+255),b
  1452  002D1A  0E00               	movlw	0
  1453  002D1C  6F94               	movwf	(POST@data+3)& (0+255),b
  1454  002D1E  0E00               	movlw	0
  1455  002D20  6F95               	movwf	(POST@data+4)& (0+255),b
  1456  002D22  0E00               	movlw	0
  1457  002D24  6F96               	movwf	(POST@data+5)& (0+255),b
  1458  002D26  0E00               	movlw	0
  1459  002D28  6F97               	movwf	(POST@data+6)& (0+255),b
  1460  002D2A  0E00               	movlw	0
  1461  002D2C  6F98               	movwf	(POST@data+7)& (0+255),b
  1462  002D2E  ECD5  F010         	call	_POST	;wreg free
  1463  002D32  0012               	return		;funcret
  1464  002D34                     __end_of_factory_toggleLed:
  1465                           	callstack 0
  1466                           
  1467 ;; *************** function _ButtonSM_processEvent *****************
  1468 ;; Defined at:
  1469 ;;		line 19 in file "board/button/buttonsm.c"
  1470 ;; Parameters:    Size  Location     Type
  1471 ;;  ev              2   81[BANK0 ] PTR struct Event_
  1472 ;;		 -> XF_executeOnce@ev(15), 
  1473 ;; Auto vars:     Size  Location     Type
  1474 ;;  me              2   86[BANK0 ] PTR struct ButtonSM_
  1475 ;;		 -> theFactory(233), NULL(0), 
  1476 ;;  oldState        1   85[BANK0 ] enum E23122
  1477 ;;  processed       1    0        _Bool 
  1478 ;; Return value:  Size  Location     Type
  1479 ;;                  1    wreg      _Bool 
  1480 ;; Registers used:
  1481 ;;		wreg, fsr0l, fsr0h, fsr1l, fsr1h, fsr2l, fsr2h, status,2, status,0, pcl, pclath, pclatu, tosl, prodl, prodh, cstack
  1482 ;; Tracked objects:
  1483 ;;		On entry : 0/0
  1484 ;;		On exit  : 0/0
  1485 ;;		Unchanged: 0/0
  1486 ;; Data sizes:     COMRAM   BANK0   BANK1   BANK2   BANK3   BANK4   BANK5   BANK6   BANK7   BANK8   BANK9  BANK10  BANK1
      +1  BANK12  BANK13  BANK14  BANK15
  1487 ;;      Params:         0       2       0       0       0       0       0       0       0       0       0       0       
      +0       0       0       0       0
  1488 ;;      Locals:         0       3       0       0       0       0       0       0       0       0       0       0       
      +0       0       0       0       0
  1489 ;;      Temps:          0       2       0       0       0       0       0       0       0       0       0       0       
      +0       0       0       0       0
  1490 ;;      Totals:         0       7       0       0       0       0       0       0       0       0       0       0       
      +0       0       0       0       0
  1491 ;;Total ram usage:        7 bytes
  1492 ;; Hardware stack levels used: 1
  1493 ;; Hardware stack levels required when called: 10
  1494 ;; This function calls:
  1495 ;;		_BLControl_onButton
  1496 ;;		_Button_getId
  1497 ;;		_Button_read
  1498 ;;		_Event_getId
  1499 ;;		_POST
  1500 ;; This function is called by:
  1501 ;;		_ButtonSM_startBehaviour
  1502 ;;		_XF_executeOnce
  1503 ;; This function uses a non-reentrant model
  1504 ;;
  1505                           
  1506                           	psect	text4
  1507  00096A                     __ptext4:
  1508                           	callstack 0
  1509  00096A                     _ButtonSM_processEvent:
  1510                           	callstack 19
  1511  00096A                     
  1512                           ;board/button/buttonsm.c: 19: _Bool ButtonSM_processEvent(Event* ev);board/button/button
      +                          sm.c: 20: {;board/button/buttonsm.c: 21:     ButtonSM* me = (ButtonSM*)ev->target;
  1513  00096A  0100               	movlb	0	; () banked
  1514  00096C  EE20 F003          	lfsr	2,3
  1515  000970  51B1               	movf	ButtonSM_processEvent@ev& (0+255),w,b
  1516  000972  26D9               	addwf	fsr2l,f,c
  1517  000974  51B2               	movf	(ButtonSM_processEvent@ev+1)& (0+255),w,b
  1518  000976  22DA               	addwfc	fsr2h,f,c
  1519  000978  006F FF78  F0B6    	movff	postinc2,ButtonSM_processEvent@me
  1520  00097E  006F FF74  F0B7    	movff	postdec2,ButtonSM_processEvent@me+1
  1521  000984                     
  1522                           ; BSR set to: 0
  1523                           ;board/button/buttonsm.c: 23:     BSMState oldState = me->state;
  1524  000984  0060  F2DB  FFD9   	movff	ButtonSM_processEvent@me,fsr2l
  1525  00098A  0060  F2DF  FFDA   	movff	ButtonSM_processEvent@me+1,fsr2h
  1526  000990  50DF               	movf	indf2,w,c
  1527  000992  6FB5               	movwf	ButtonSM_processEvent@oldState& (0+255),b
  1528                           
  1529                           ;board/button/buttonsm.c: 25:     switch (me->state)
  1530  000994  EF65  F005         	goto	l4759
  1531  000998                     l4733:
  1532                           
  1533                           ; BSR set to: 0
  1534                           ;board/button/buttonsm.c: 28:             if (Event_getId(ev) == evBSMInit)
  1535  000998  C0B1  F060         	movff	ButtonSM_processEvent@ev,Event_getId@me
  1536  00099C  C0B2  F061         	movff	ButtonSM_processEvent@ev+1,Event_getId@me+1
  1537  0009A0  EC73  F01A         	call	_Event_getId	;wreg free
  1538  0009A4  0A0A               	xorlw	10
  1539  0009A6  A4D8               	btfss	status,2,c
  1540  0009A8  EFD8  F004         	goto	u2201
  1541  0009AC  EFDA  F004         	goto	u2200
  1542  0009B0                     u2201:
  1543  0009B0  EF8C  F005         	goto	l4761
  1544  0009B4                     u2200:
  1545  0009B4                     
  1546                           ;board/button/buttonsm.c: 29:             {;board/button/buttonsm.c: 30:                
      +                           me->state = ST_BSMWAIT;
  1547  0009B4  0060  F2DB  FFD9   	movff	ButtonSM_processEvent@me,fsr2l
  1548  0009BA  0060  F2DF  FFDA   	movff	ButtonSM_processEvent@me+1,fsr2h
  1549  0009C0  0E01               	movlw	1
  1550  0009C2  6EDF               	movwf	indf2,c
  1551  0009C4  EF8C  F005         	goto	l4761
  1552  0009C8                     l4737:
  1553                           
  1554                           ; BSR set to: 0
  1555                           ;board/button/buttonsm.c: 34:                 if (Event_getId(ev) == evBSMPollTM)
  1556  0009C8  C0B1  F060         	movff	ButtonSM_processEvent@ev,Event_getId@me
  1557  0009CC  C0B2  F061         	movff	ButtonSM_processEvent@ev+1,Event_getId@me+1
  1558  0009D0  EC73  F01A         	call	_Event_getId	;wreg free
  1559  0009D4  0A0C               	xorlw	12
  1560  0009D6  A4D8               	btfss	status,2,c
  1561  0009D8  EFF0  F004         	goto	u2211
  1562  0009DC  EFF2  F004         	goto	u2210
  1563  0009E0                     u2211:
  1564  0009E0  EF8C  F005         	goto	l4761
  1565  0009E4                     u2210:
  1566  0009E4                     
  1567                           ;board/button/buttonsm.c: 35:             {;board/button/buttonsm.c: 36:                
      +                           me->state = ST_BSMPOLL;
  1568  0009E4  0060  F2DB  FFD9   	movff	ButtonSM_processEvent@me,fsr2l
  1569  0009EA  0060  F2DF  FFDA   	movff	ButtonSM_processEvent@me+1,fsr2h
  1570  0009F0  0E02               	movlw	2
  1571  0009F2  6EDF               	movwf	indf2,c
  1572  0009F4  EF8C  F005         	goto	l4761
  1573  0009F8                     l4741:
  1574                           
  1575                           ; BSR set to: 0
  1576                           ;board/button/buttonsm.c: 40:             if (Event_getId(ev) == evBSMDefault)
  1577  0009F8  C0B1  F060         	movff	ButtonSM_processEvent@ev,Event_getId@me
  1578  0009FC  C0B2  F061         	movff	ButtonSM_processEvent@ev+1,Event_getId@me+1
  1579  000A00  EC73  F01A         	call	_Event_getId	;wreg free
  1580  000A04  0A0B               	xorlw	11
  1581  000A06  A4D8               	btfss	status,2,c
  1582  000A08  EF08  F005         	goto	u2221
  1583  000A0C  EF0A  F005         	goto	u2220
  1584  000A10                     u2221:
  1585  000A10  EF8C  F005         	goto	l4761
  1586  000A14                     u2220:
  1587  000A14                     
  1588                           ;board/button/buttonsm.c: 41:             {;board/button/buttonsm.c: 42:                
      +                           if (Button_read(me->button)==1)
  1589  000A14  0100               	movlb	0	; () banked
  1590  000A16  EE20 F001          	lfsr	2,1
  1591  000A1A  51B6               	movf	ButtonSM_processEvent@me& (0+255),w,b
  1592  000A1C  26D9               	addwf	fsr2l,f,c
  1593  000A1E  51B7               	movf	(ButtonSM_processEvent@me+1)& (0+255),w,b
  1594  000A20  22DA               	addwfc	fsr2h,f,c
  1595  000A22  006F FF78  F060    	movff	postinc2,Button_read@me
  1596  000A28  006F FF74  F061    	movff	postdec2,Button_read@me+1
  1597  000A2E  EC74  F010         	call	_Button_read	;wreg free
  1598  000A32  06E8               	decf	wreg,f,c
  1599  000A34  A4D8               	btfss	status,2,c
  1600  000A36  EF1F  F005         	goto	u2231
  1601  000A3A  EF21  F005         	goto	u2230
  1602  000A3E                     u2231:
  1603  000A3E  EF2B  F005         	goto	l4747
  1604  000A42                     u2230:
  1605  000A42                     
  1606                           ;board/button/buttonsm.c: 43:                 {;board/button/buttonsm.c: 44:            
      +                                   me->state = ST_BSMPRESSED;
  1607  000A42  0060  F2DB  FFD9   	movff	ButtonSM_processEvent@me,fsr2l
  1608  000A48  0060  F2DF  FFDA   	movff	ButtonSM_processEvent@me+1,fsr2h
  1609  000A4E  0E03               	movlw	3
  1610  000A50  6EDF               	movwf	indf2,c
  1611                           
  1612                           ;board/button/buttonsm.c: 45:                 }
  1613  000A52  EF8C  F005         	goto	l4761
  1614  000A56                     l4747:
  1615                           
  1616                           ;board/button/buttonsm.c: 47:                 {;board/button/buttonsm.c: 48:            
      +                                   me->state = ST_BSMRELEASED;
  1617  000A56  0060  F2DB  FFD9   	movff	ButtonSM_processEvent@me,fsr2l
  1618  000A5C  0060  F2DF  FFDA   	movff	ButtonSM_processEvent@me+1,fsr2h
  1619  000A62  0E04               	movlw	4
  1620  000A64  6EDF               	movwf	indf2,c
  1621  000A66  EF8C  F005         	goto	l4761
  1622  000A6A                     l4749:
  1623                           
  1624                           ; BSR set to: 0
  1625                           ;board/button/buttonsm.c: 53:             if (Event_getId(ev) == evBSMDefault)
  1626  000A6A  C0B1  F060         	movff	ButtonSM_processEvent@ev,Event_getId@me
  1627  000A6E  C0B2  F061         	movff	ButtonSM_processEvent@ev+1,Event_getId@me+1
  1628  000A72  EC73  F01A         	call	_Event_getId	;wreg free
  1629  000A76  0A0B               	xorlw	11
  1630  000A78  A4D8               	btfss	status,2,c
  1631  000A7A  EF41  F005         	goto	u2241
  1632  000A7E  EF43  F005         	goto	u2240
  1633  000A82                     u2241:
  1634  000A82  EF8C  F005         	goto	l4761
  1635  000A86                     u2240:
  1636  000A86                     
  1637                           ;board/button/buttonsm.c: 54:             {;board/button/buttonsm.c: 55:                
      +                           me->state = ST_BSMWAIT;
  1638  000A86  0060  F2DB  FFD9   	movff	ButtonSM_processEvent@me,fsr2l
  1639  000A8C  0060  F2DF  FFDA   	movff	ButtonSM_processEvent@me+1,fsr2h
  1640  000A92  0E01               	movlw	1
  1641  000A94  6EDF               	movwf	indf2,c
  1642  000A96  EF8C  F005         	goto	l4761
  1643  000A9A                     l4753:
  1644                           
  1645                           ; BSR set to: 0
  1646                           ;board/button/buttonsm.c: 59:             if (Event_getId(ev) == evBSMDefault)
  1647  000A9A  C0B1  F060         	movff	ButtonSM_processEvent@ev,Event_getId@me
  1648  000A9E  C0B2  F061         	movff	ButtonSM_processEvent@ev+1,Event_getId@me+1
  1649  000AA2  EC73  F01A         	call	_Event_getId	;wreg free
  1650  000AA6  0A0B               	xorlw	11
  1651  000AA8  A4D8               	btfss	status,2,c
  1652  000AAA  EF59  F005         	goto	u2251
  1653  000AAE  EF5B  F005         	goto	u2250
  1654  000AB2                     u2251:
  1655  000AB2  EF8C  F005         	goto	l4761
  1656  000AB6                     u2250:
  1657  000AB6                     
  1658                           ;board/button/buttonsm.c: 60:             {;board/button/buttonsm.c: 61:                
      +                           me->state = ST_BSMWAIT;
  1659  000AB6  0060  F2DB  FFD9   	movff	ButtonSM_processEvent@me,fsr2l
  1660  000ABC  0060  F2DF  FFDA   	movff	ButtonSM_processEvent@me+1,fsr2h
  1661  000AC2  0E01               	movlw	1
  1662  000AC4  6EDF               	movwf	indf2,c
  1663  000AC6  EF8C  F005         	goto	l4761
  1664  000ACA                     l4759:
  1665                           
  1666                           ; BSR set to: 0
  1667  000ACA  0060  F2DB  FFD9   	movff	ButtonSM_processEvent@me,fsr2l
  1668  000AD0  0060  F2DF  FFDA   	movff	ButtonSM_processEvent@me+1,fsr2h
  1669  000AD6  50DF               	movf	indf2,w,c
  1670  000AD8  6FB3               	movwf	??_ButtonSM_processEvent& (0+255),b
  1671  000ADA  6BB4               	clrf	(??_ButtonSM_processEvent+1)& (0+255),b
  1672                           
  1673                           ; Switch on 2 bytes has been partitioned into a top level switch of size 1, and 1 sub-sw
      +                          itches
  1674                           ; Switch size 1, requested type "simple"
  1675                           ; Number of cases is 1, Range of values is 0 to 0
  1676                           ; switch strategies available:
  1677                           ; Name         Instructions Cycles
  1678                           ; simple_byte            4     3 (average)
  1679                           ;	Chosen strategy is simple_byte
  1680  000ADC  51B4               	movf	(??_ButtonSM_processEvent+1)& (0+255),w,b
  1681  000ADE  0A00               	xorlw	0	; case 0
  1682  000AE0  B4D8               	btfsc	status,2,c
  1683  000AE2  EF75  F005         	goto	l6017
  1684  000AE6  EF8C  F005         	goto	l4761
  1685  000AEA                     l6017:
  1686                           
  1687                           ; BSR set to: 0
  1688                           ; Switch size 1, requested type "simple"
  1689                           ; Number of cases is 5, Range of values is 0 to 4
  1690                           ; switch strategies available:
  1691                           ; Name         Instructions Cycles
  1692                           ; simple_byte           16     9 (average)
  1693                           ;	Chosen strategy is simple_byte
  1694  000AEA  51B3               	movf	??_ButtonSM_processEvent& (0+255),w,b
  1695  000AEC  0A00               	xorlw	0	; case 0
  1696  000AEE  B4D8               	btfsc	status,2,c
  1697  000AF0  EFCC  F004         	goto	l4733
  1698  000AF4  0A01               	xorlw	1	; case 1
  1699  000AF6  B4D8               	btfsc	status,2,c
  1700  000AF8  EFE4  F004         	goto	l4737
  1701  000AFC  0A03               	xorlw	3	; case 2
  1702  000AFE  B4D8               	btfsc	status,2,c
  1703  000B00  EFFC  F004         	goto	l4741
  1704  000B04  0A01               	xorlw	1	; case 3
  1705  000B06  B4D8               	btfsc	status,2,c
  1706  000B08  EF35  F005         	goto	l4749
  1707  000B0C  0A07               	xorlw	7	; case 4
  1708  000B0E  B4D8               	btfsc	status,2,c
  1709  000B10  EF4D  F005         	goto	l4753
  1710  000B14  EF8C  F005         	goto	l4761
  1711  000B18                     l4761:
  1712                           
  1713                           ;board/button/buttonsm.c: 65:     if (oldState != me->state)
  1714  000B18  0060  F2DB  FFD9   	movff	ButtonSM_processEvent@me,fsr2l
  1715  000B1E  0060  F2DF  FFDA   	movff	ButtonSM_processEvent@me+1,fsr2h
  1716  000B24  0100               	movlb	0	; () banked
  1717  000B26  51B5               	movf	ButtonSM_processEvent@oldState& (0+255),w,b
  1718  000B28  18DE               	xorwf	postinc2,w,c
  1719  000B2A  B4D8               	btfsc	status,2,c
  1720  000B2C  EF9A  F005         	goto	u2261
  1721  000B30  EF9C  F005         	goto	u2260
  1722  000B34                     u2261:
  1723  000B34  EFFF  F006         	goto	l85
  1724  000B38                     u2260:
  1725  000B38                     
  1726                           ; BSR set to: 0
  1727                           ;board/button/buttonsm.c: 68:         switch (me->state)
  1728  000B38  EFD8  F006         	goto	l4791
  1729  000B3C                     l4765:
  1730                           
  1731                           ; BSR set to: 0
  1732                           ;board/button/buttonsm.c: 73:                 POST(me, &ButtonSM_processEvent, evBSMPoll
      +                          TM,50,0);
  1733  000B3C  C0B6  F08A         	movff	ButtonSM_processEvent@me,POST@target
  1734  000B40  C0B7  F08B         	movff	ButtonSM_processEvent@me+1,POST@target+1
  1735  000B44  0E6A               	movlw	low _ButtonSM_processEvent
  1736  000B46  6F8C               	movwf	POST@processEvent& (0+255),b
  1737  000B48  0E09               	movlw	high _ButtonSM_processEvent
  1738  000B4A  6F8D               	movwf	(POST@processEvent+1)& (0+255),b
  1739  000B4C  0E0C               	movlw	12
  1740  000B4E  6F8E               	movwf	POST@id& (0+255),b
  1741  000B50  0E00               	movlw	0
  1742  000B52  6F90               	movwf	(POST@delay+1)& (0+255),b
  1743  000B54  0E32               	movlw	50
  1744  000B56  6F8F               	movwf	POST@delay& (0+255),b
  1745  000B58  0E00               	movlw	0
  1746  000B5A  6F91               	movwf	POST@data& (0+255),b
  1747  000B5C  0E00               	movlw	0
  1748  000B5E  6F92               	movwf	(POST@data+1)& (0+255),b
  1749  000B60  0E00               	movlw	0
  1750  000B62  6F93               	movwf	(POST@data+2)& (0+255),b
  1751  000B64  0E00               	movlw	0
  1752  000B66  6F94               	movwf	(POST@data+3)& (0+255),b
  1753  000B68  0E00               	movlw	0
  1754  000B6A  6F95               	movwf	(POST@data+4)& (0+255),b
  1755  000B6C  0E00               	movlw	0
  1756  000B6E  6F96               	movwf	(POST@data+5)& (0+255),b
  1757  000B70  0E00               	movlw	0
  1758  000B72  6F97               	movwf	(POST@data+6)& (0+255),b
  1759  000B74  0E00               	movlw	0
  1760  000B76  6F98               	movwf	(POST@data+7)& (0+255),b
  1761  000B78  ECD5  F010         	call	_POST	;wreg free
  1762                           
  1763                           ;board/button/buttonsm.c: 74:             break;
  1764  000B7C  EFFF  F006         	goto	l85
  1765  000B80                     l4767:
  1766                           
  1767                           ; BSR set to: 0
  1768                           ;board/button/buttonsm.c: 76:                 POST(me, &ButtonSM_processEvent, evBSMDefa
      +                          ult,0,0);
  1769  000B80  C0B6  F08A         	movff	ButtonSM_processEvent@me,POST@target
  1770  000B84  C0B7  F08B         	movff	ButtonSM_processEvent@me+1,POST@target+1
  1771  000B88  0E6A               	movlw	low _ButtonSM_processEvent
  1772  000B8A  6F8C               	movwf	POST@processEvent& (0+255),b
  1773  000B8C  0E09               	movlw	high _ButtonSM_processEvent
  1774  000B8E  6F8D               	movwf	(POST@processEvent+1)& (0+255),b
  1775  000B90  0E0B               	movlw	11
  1776  000B92  6F8E               	movwf	POST@id& (0+255),b
  1777  000B94  0E00               	movlw	0
  1778  000B96  6F90               	movwf	(POST@delay+1)& (0+255),b
  1779  000B98  0E00               	movlw	0
  1780  000B9A  6F8F               	movwf	POST@delay& (0+255),b
  1781  000B9C  0E00               	movlw	0
  1782  000B9E  6F91               	movwf	POST@data& (0+255),b
  1783  000BA0  0E00               	movlw	0
  1784  000BA2  6F92               	movwf	(POST@data+1)& (0+255),b
  1785  000BA4  0E00               	movlw	0
  1786  000BA6  6F93               	movwf	(POST@data+2)& (0+255),b
  1787  000BA8  0E00               	movlw	0
  1788  000BAA  6F94               	movwf	(POST@data+3)& (0+255),b
  1789  000BAC  0E00               	movlw	0
  1790  000BAE  6F95               	movwf	(POST@data+4)& (0+255),b
  1791  000BB0  0E00               	movlw	0
  1792  000BB2  6F96               	movwf	(POST@data+5)& (0+255),b
  1793  000BB4  0E00               	movlw	0
  1794  000BB6  6F97               	movwf	(POST@data+6)& (0+255),b
  1795  000BB8  0E00               	movlw	0
  1796  000BBA  6F98               	movwf	(POST@data+7)& (0+255),b
  1797  000BBC  ECD5  F010         	call	_POST	;wreg free
  1798                           
  1799                           ;board/button/buttonsm.c: 77:             break;
  1800  000BC0  EFFF  F006         	goto	l85
  1801  000BC4                     l4769:
  1802                           
  1803                           ; BSR set to: 0
  1804                           ;board/button/buttonsm.c: 79:                 POST(me, &ButtonSM_processEvent, evBSMDefa
      +                          ult,0,0);
  1805  000BC4  C0B6  F08A         	movff	ButtonSM_processEvent@me,POST@target
  1806  000BC8  C0B7  F08B         	movff	ButtonSM_processEvent@me+1,POST@target+1
  1807  000BCC  0E6A               	movlw	low _ButtonSM_processEvent
  1808  000BCE  6F8C               	movwf	POST@processEvent& (0+255),b
  1809  000BD0  0E09               	movlw	high _ButtonSM_processEvent
  1810  000BD2  6F8D               	movwf	(POST@processEvent+1)& (0+255),b
  1811  000BD4  0E0B               	movlw	11
  1812  000BD6  6F8E               	movwf	POST@id& (0+255),b
  1813  000BD8  0E00               	movlw	0
  1814  000BDA  6F90               	movwf	(POST@delay+1)& (0+255),b
  1815  000BDC  0E00               	movlw	0
  1816  000BDE  6F8F               	movwf	POST@delay& (0+255),b
  1817  000BE0  0E00               	movlw	0
  1818  000BE2  6F91               	movwf	POST@data& (0+255),b
  1819  000BE4  0E00               	movlw	0
  1820  000BE6  6F92               	movwf	(POST@data+1)& (0+255),b
  1821  000BE8  0E00               	movlw	0
  1822  000BEA  6F93               	movwf	(POST@data+2)& (0+255),b
  1823  000BEC  0E00               	movlw	0
  1824  000BEE  6F94               	movwf	(POST@data+3)& (0+255),b
  1825  000BF0  0E00               	movlw	0
  1826  000BF2  6F95               	movwf	(POST@data+4)& (0+255),b
  1827  000BF4  0E00               	movlw	0
  1828  000BF6  6F96               	movwf	(POST@data+5)& (0+255),b
  1829  000BF8  0E00               	movlw	0
  1830  000BFA  6F97               	movwf	(POST@data+6)& (0+255),b
  1831  000BFC  0E00               	movlw	0
  1832  000BFE  6F98               	movwf	(POST@data+7)& (0+255),b
  1833  000C00  ECD5  F010         	call	_POST	;wreg free
  1834  000C04                     
  1835                           ;board/button/buttonsm.c: 80:                 if (me->actualState != ST_BSMPRESSED)
  1836  000C04  0100               	movlb	0	; () banked
  1837  000C06  EE20 F003          	lfsr	2,3
  1838  000C0A  51B6               	movf	ButtonSM_processEvent@me& (0+255),w,b
  1839  000C0C  26D9               	addwf	fsr2l,f,c
  1840  000C0E  51B7               	movf	(ButtonSM_processEvent@me+1)& (0+255),w,b
  1841  000C10  22DA               	addwfc	fsr2h,f,c
  1842  000C12  0E03               	movlw	3
  1843  000C14  18DE               	xorwf	postinc2,w,c
  1844  000C16  B4D8               	btfsc	status,2,c
  1845  000C18  EF10  F006         	goto	u2271
  1846  000C1C  EF12  F006         	goto	u2270
  1847  000C20                     u2271:
  1848  000C20  EFFF  F006         	goto	l85
  1849  000C24                     u2270:
  1850  000C24                     
  1851                           ; BSR set to: 0
  1852                           ;board/button/buttonsm.c: 81:                 {;board/button/buttonsm.c: 82:            
      +                                   if (me->observerCB != ((void*)0))
  1853  000C24  EE20 F004          	lfsr	2,4
  1854  000C28  51B6               	movf	ButtonSM_processEvent@me& (0+255),w,b
  1855  000C2A  26D9               	addwf	fsr2l,f,c
  1856  000C2C  51B7               	movf	(ButtonSM_processEvent@me+1)& (0+255),w,b
  1857  000C2E  22DA               	addwfc	fsr2h,f,c
  1858  000C30  50DE               	movf	postinc2,w,c
  1859  000C32  10DE               	iorwf	postinc2,w,c
  1860  000C34  B4D8               	btfsc	status,2,c
  1861  000C36  EF1F  F006         	goto	u2281
  1862  000C3A  EF21  F006         	goto	u2280
  1863  000C3E                     u2281:
  1864  000C3E  EFFF  F006         	goto	l76
  1865  000C42                     u2280:
  1866  000C42                     
  1867                           ; BSR set to: 0
  1868                           ;board/button/buttonsm.c: 83:                     {;board/button/buttonsm.c: 84:        
      +                                           me->observerCB(me->observer,Button_getId(me->button),1);
  1869  000C42  EE20 F006          	lfsr	2,6
  1870  000C46  51B6               	movf	ButtonSM_processEvent@me& (0+255),w,b
  1871  000C48  26D9               	addwf	fsr2l,f,c
  1872  000C4A  51B7               	movf	(ButtonSM_processEvent@me+1)& (0+255),w,b
  1873  000C4C  22DA               	addwfc	fsr2h,f,c
  1874  000C4E  006F FF78  F066    	movff	postinc2,BLControl_onButton@me
  1875  000C54  006F FF74  F067    	movff	postdec2,BLControl_onButton@me+1
  1876  000C5A  EE20 F001          	lfsr	2,1
  1877  000C5E  51B6               	movf	ButtonSM_processEvent@me& (0+255),w,b
  1878  000C60  26D9               	addwf	fsr2l,f,c
  1879  000C62  51B7               	movf	(ButtonSM_processEvent@me+1)& (0+255),w,b
  1880  000C64  22DA               	addwfc	fsr2h,f,c
  1881  000C66  006F FF78  F060    	movff	postinc2,Button_getId@me
  1882  000C6C  006F FF74  F061    	movff	postdec2,Button_getId@me+1
  1883  000C72  EC7B  F01A         	call	_Button_getId	;wreg free
  1884  000C76  0100               	movlb	0	; () banked
  1885  000C78  6F68               	movwf	BLControl_onButton@buttonId& (0+255),b
  1886  000C7A  0E01               	movlw	1
  1887  000C7C  6F69               	movwf	BLControl_onButton@pressed& (0+255),b
  1888  000C7E  EE20 F004          	lfsr	2,4
  1889  000C82  51B6               	movf	ButtonSM_processEvent@me& (0+255),w,b
  1890  000C84  26D9               	addwf	fsr2l,f,c
  1891  000C86  51B7               	movf	(ButtonSM_processEvent@me+1)& (0+255),w,b
  1892  000C88  22DA               	addwfc	fsr2h,f,c
  1893  000C8A  D802               	call	u2298
  1894  000C8C  EF52  F006         	goto	u2299
  1895  000C90                     u2298:
  1896  000C90  0005               	push	
  1897  000C92  6EFA               	movwf	pclath,c
  1898  000C94  50DE               	movf	postinc2,w,c
  1899  000C96  6EFD               	movwf	tosl,c
  1900  000C98  50DE               	movf	postinc2,w,c
  1901  000C9A  6EFE               	movwf	tosh,c
  1902  000C9C  50F8               	movf	tblptru,w,c
  1903  000C9E  6EFF               	movwf	tosu,c
  1904  000CA0  50FA               	movf	pclath,w,c
  1905  000CA2  0012               	return		;indir
  1906  000CA4                     u2299:
  1907  000CA4                     
  1908                           ;board/button/buttonsm.c: 85:                         me->actualState = ST_BSMPRESSED;
  1909  000CA4  0100               	movlb	0	; () banked
  1910  000CA6  EE20 F003          	lfsr	2,3
  1911  000CAA  51B6               	movf	ButtonSM_processEvent@me& (0+255),w,b
  1912  000CAC  26D9               	addwf	fsr2l,f,c
  1913  000CAE  51B7               	movf	(ButtonSM_processEvent@me+1)& (0+255),w,b
  1914  000CB0  22DA               	addwfc	fsr2h,f,c
  1915  000CB2  0E03               	movlw	3
  1916  000CB4  6EDF               	movwf	indf2,c
  1917  000CB6  EFFF  F006         	goto	l85
  1918  000CBA                     l4779:
  1919                           
  1920                           ; BSR set to: 0
  1921                           ;board/button/buttonsm.c: 90:                 POST(me, &ButtonSM_processEvent, evBSMDefa
      +                          ult,0,0);
  1922  000CBA  C0B6  F08A         	movff	ButtonSM_processEvent@me,POST@target
  1923  000CBE  C0B7  F08B         	movff	ButtonSM_processEvent@me+1,POST@target+1
  1924  000CC2  0E6A               	movlw	low _ButtonSM_processEvent
  1925  000CC4  6F8C               	movwf	POST@processEvent& (0+255),b
  1926  000CC6  0E09               	movlw	high _ButtonSM_processEvent
  1927  000CC8  6F8D               	movwf	(POST@processEvent+1)& (0+255),b
  1928  000CCA  0E0B               	movlw	11
  1929  000CCC  6F8E               	movwf	POST@id& (0+255),b
  1930  000CCE  0E00               	movlw	0
  1931  000CD0  6F90               	movwf	(POST@delay+1)& (0+255),b
  1932  000CD2  0E00               	movlw	0
  1933  000CD4  6F8F               	movwf	POST@delay& (0+255),b
  1934  000CD6  0E00               	movlw	0
  1935  000CD8  6F91               	movwf	POST@data& (0+255),b
  1936  000CDA  0E00               	movlw	0
  1937  000CDC  6F92               	movwf	(POST@data+1)& (0+255),b
  1938  000CDE  0E00               	movlw	0
  1939  000CE0  6F93               	movwf	(POST@data+2)& (0+255),b
  1940  000CE2  0E00               	movlw	0
  1941  000CE4  6F94               	movwf	(POST@data+3)& (0+255),b
  1942  000CE6  0E00               	movlw	0
  1943  000CE8  6F95               	movwf	(POST@data+4)& (0+255),b
  1944  000CEA  0E00               	movlw	0
  1945  000CEC  6F96               	movwf	(POST@data+5)& (0+255),b
  1946  000CEE  0E00               	movlw	0
  1947  000CF0  6F97               	movwf	(POST@data+6)& (0+255),b
  1948  000CF2  0E00               	movlw	0
  1949  000CF4  6F98               	movwf	(POST@data+7)& (0+255),b
  1950  000CF6  ECD5  F010         	call	_POST	;wreg free
  1951  000CFA                     
  1952                           ;board/button/buttonsm.c: 91:                 if (me->actualState != ST_BSMRELEASED)
  1953  000CFA  0100               	movlb	0	; () banked
  1954  000CFC  EE20 F003          	lfsr	2,3
  1955  000D00  51B6               	movf	ButtonSM_processEvent@me& (0+255),w,b
  1956  000D02  26D9               	addwf	fsr2l,f,c
  1957  000D04  51B7               	movf	(ButtonSM_processEvent@me+1)& (0+255),w,b
  1958  000D06  22DA               	addwfc	fsr2h,f,c
  1959  000D08  0E04               	movlw	4
  1960  000D0A  18DE               	xorwf	postinc2,w,c
  1961  000D0C  B4D8               	btfsc	status,2,c
  1962  000D0E  EF8B  F006         	goto	u2301
  1963  000D12  EF8D  F006         	goto	u2300
  1964  000D16                     u2301:
  1965  000D16  EFFF  F006         	goto	l85
  1966  000D1A                     u2300:
  1967  000D1A                     
  1968                           ; BSR set to: 0
  1969                           ;board/button/buttonsm.c: 92:                 {;board/button/buttonsm.c: 93:            
      +                                   if (me->observerCB != ((void*)0))
  1970  000D1A  EE20 F004          	lfsr	2,4
  1971  000D1E  51B6               	movf	ButtonSM_processEvent@me& (0+255),w,b
  1972  000D20  26D9               	addwf	fsr2l,f,c
  1973  000D22  51B7               	movf	(ButtonSM_processEvent@me+1)& (0+255),w,b
  1974  000D24  22DA               	addwfc	fsr2h,f,c
  1975  000D26  50DE               	movf	postinc2,w,c
  1976  000D28  10DE               	iorwf	postinc2,w,c
  1977  000D2A  B4D8               	btfsc	status,2,c
  1978  000D2C  EF9A  F006         	goto	u2311
  1979  000D30  EF9C  F006         	goto	u2310
  1980  000D34                     u2311:
  1981  000D34  EFFF  F006         	goto	l76
  1982  000D38                     u2310:
  1983  000D38                     
  1984                           ; BSR set to: 0
  1985                           ;board/button/buttonsm.c: 94:                     {;board/button/buttonsm.c: 95:        
      +                                           me->observerCB(me->observer,Button_getId(me->button),0);
  1986  000D38  EE20 F006          	lfsr	2,6
  1987  000D3C  51B6               	movf	ButtonSM_processEvent@me& (0+255),w,b
  1988  000D3E  26D9               	addwf	fsr2l,f,c
  1989  000D40  51B7               	movf	(ButtonSM_processEvent@me+1)& (0+255),w,b
  1990  000D42  22DA               	addwfc	fsr2h,f,c
  1991  000D44  006F FF78  F066    	movff	postinc2,BLControl_onButton@me
  1992  000D4A  006F FF74  F067    	movff	postdec2,BLControl_onButton@me+1
  1993  000D50  EE20 F001          	lfsr	2,1
  1994  000D54  51B6               	movf	ButtonSM_processEvent@me& (0+255),w,b
  1995  000D56  26D9               	addwf	fsr2l,f,c
  1996  000D58  51B7               	movf	(ButtonSM_processEvent@me+1)& (0+255),w,b
  1997  000D5A  22DA               	addwfc	fsr2h,f,c
  1998  000D5C  006F FF78  F060    	movff	postinc2,Button_getId@me
  1999  000D62  006F FF74  F061    	movff	postdec2,Button_getId@me+1
  2000  000D68  EC7B  F01A         	call	_Button_getId	;wreg free
  2001  000D6C  0100               	movlb	0	; () banked
  2002  000D6E  6F68               	movwf	BLControl_onButton@buttonId& (0+255),b
  2003  000D70  0E00               	movlw	0
  2004  000D72  6F69               	movwf	BLControl_onButton@pressed& (0+255),b
  2005  000D74  EE20 F004          	lfsr	2,4
  2006  000D78  51B6               	movf	ButtonSM_processEvent@me& (0+255),w,b
  2007  000D7A  26D9               	addwf	fsr2l,f,c
  2008  000D7C  51B7               	movf	(ButtonSM_processEvent@me+1)& (0+255),w,b
  2009  000D7E  22DA               	addwfc	fsr2h,f,c
  2010  000D80  D802               	call	u2328
  2011  000D82  EFCD  F006         	goto	u2329
  2012  000D86                     u2328:
  2013  000D86  0005               	push	
  2014  000D88  6EFA               	movwf	pclath,c
  2015  000D8A  50DE               	movf	postinc2,w,c
  2016  000D8C  6EFD               	movwf	tosl,c
  2017  000D8E  50DE               	movf	postinc2,w,c
  2018  000D90  6EFE               	movwf	tosh,c
  2019  000D92  50F8               	movf	tblptru,w,c
  2020  000D94  6EFF               	movwf	tosu,c
  2021  000D96  50FA               	movf	pclath,w,c
  2022  000D98  0012               	return		;indir
  2023  000D9A                     u2329:
  2024  000D9A                     
  2025                           ;board/button/buttonsm.c: 96:                         me->actualState = ST_BSMRELEASED;
  2026  000D9A  0100               	movlb	0	; () banked
  2027  000D9C  EE20 F003          	lfsr	2,3
  2028  000DA0  51B6               	movf	ButtonSM_processEvent@me& (0+255),w,b
  2029  000DA2  26D9               	addwf	fsr2l,f,c
  2030  000DA4  51B7               	movf	(ButtonSM_processEvent@me+1)& (0+255),w,b
  2031  000DA6  22DA               	addwfc	fsr2h,f,c
  2032  000DA8  0E04               	movlw	4
  2033  000DAA  6EDF               	movwf	indf2,c
  2034  000DAC  EFFF  F006         	goto	l85
  2035  000DB0                     l4791:
  2036                           
  2037                           ; BSR set to: 0
  2038  000DB0  0060  F2DB  FFD9   	movff	ButtonSM_processEvent@me,fsr2l
  2039  000DB6  0060  F2DF  FFDA   	movff	ButtonSM_processEvent@me+1,fsr2h
  2040  000DBC  50DF               	movf	indf2,w,c
  2041  000DBE  6FB3               	movwf	??_ButtonSM_processEvent& (0+255),b
  2042  000DC0  6BB4               	clrf	(??_ButtonSM_processEvent+1)& (0+255),b
  2043                           
  2044                           ; Switch on 2 bytes has been partitioned into a top level switch of size 1, and 1 sub-sw
      +                          itches
  2045                           ; Switch size 1, requested type "simple"
  2046                           ; Number of cases is 1, Range of values is 0 to 0
  2047                           ; switch strategies available:
  2048                           ; Name         Instructions Cycles
  2049                           ; simple_byte            4     3 (average)
  2050                           ;	Chosen strategy is simple_byte
  2051  000DC2  51B4               	movf	(??_ButtonSM_processEvent+1)& (0+255),w,b
  2052  000DC4  0A00               	xorlw	0	; case 0
  2053  000DC6  B4D8               	btfsc	status,2,c
  2054  000DC8  EFE8  F006         	goto	l6019
  2055  000DCC  EFFF  F006         	goto	l85
  2056  000DD0                     l6019:
  2057                           
  2058                           ; BSR set to: 0
  2059                           ; Switch size 1, requested type "simple"
  2060                           ; Number of cases is 5, Range of values is 0 to 4
  2061                           ; switch strategies available:
  2062                           ; Name         Instructions Cycles
  2063                           ; simple_byte           16     9 (average)
  2064                           ;	Chosen strategy is simple_byte
  2065  000DD0  51B3               	movf	??_ButtonSM_processEvent& (0+255),w,b
  2066  000DD2  0A00               	xorlw	0	; case 0
  2067  000DD4  B4D8               	btfsc	status,2,c
  2068  000DD6  EFFF  F006         	goto	l85
  2069  000DDA  0A01               	xorlw	1	; case 1
  2070  000DDC  B4D8               	btfsc	status,2,c
  2071  000DDE  EF9E  F005         	goto	l4765
  2072  000DE2  0A03               	xorlw	3	; case 2
  2073  000DE4  B4D8               	btfsc	status,2,c
  2074  000DE6  EFC0  F005         	goto	l4767
  2075  000DEA  0A01               	xorlw	1	; case 3
  2076  000DEC  B4D8               	btfsc	status,2,c
  2077  000DEE  EFE2  F005         	goto	l4769
  2078  000DF2  0A07               	xorlw	7	; case 4
  2079  000DF4  B4D8               	btfsc	status,2,c
  2080  000DF6  EF5D  F006         	goto	l4779
  2081  000DFA  EFFF  F006         	goto	l85
  2082  000DFE                     l76:
  2083  000DFE                     l85:
  2084  000DFE  0012               	return		;funcret
  2085  000E00                     __end_of_ButtonSM_processEvent:
  2086                           	callstack 0
  2087                           
  2088 ;; *************** function _commControl_processEvent *****************
  2089 ;; Defined at:
  2090 ;;		line 43 in file "driveControl/commControl.c"
  2091 ;; Parameters:    Size  Location     Type
  2092 ;;  ev              2   81[BANK0 ] PTR struct Event_
  2093 ;;		 -> XF_executeOnce@ev(15), 
  2094 ;; Auto vars:     Size  Location     Type
  2095 ;;  me              2   96[BANK0 ] PTR struct CommControl_
  2096 ;;		 -> theFactory(233), NULL(0), 
  2097 ;;  aliveTM         2   94[BANK0 ] unsigned short 
  2098 ;;  processed       1   93[BANK0 ] _Bool 
  2099 ;;  oldASMState     1   92[BANK0 ] enum E23123
  2100 ;;  oldCSMState     1   91[BANK0 ] enum E23113
  2101 ;; Return value:  Size  Location     Type
  2102 ;;                  1    wreg      _Bool 
  2103 ;; Registers used:
  2104 ;;		wreg, fsr0l, fsr0h, fsr1l, fsr1h, fsr2l, fsr2h, status,2, status,0, prodl, prodh, cstack
  2105 ;; Tracked objects:
  2106 ;;		On entry : 0/0
  2107 ;;		On exit  : 0/0
  2108 ;;		Unchanged: 0/0
  2109 ;; Data sizes:     COMRAM   BANK0   BANK1   BANK2   BANK3   BANK4   BANK5   BANK6   BANK7   BANK8   BANK9  BANK10  BANK1
      +1  BANK12  BANK13  BANK14  BANK15
  2110 ;;      Params:         0       2       0       0       0       0       0       0       0       0       0       0       
      +0       0       0       0       0
  2111 ;;      Locals:         0       7       0       0       0       0       0       0       0       0       0       0       
      +0       0       0       0       0
  2112 ;;      Temps:          0       8       0       0       0       0       0       0       0       0       0       0       
      +0       0       0       0       0
  2113 ;;      Totals:         0      17       0       0       0       0       0       0       0       0       0       0       
      +0       0       0       0       0
  2114 ;;Total ram usage:       17 bytes
  2115 ;; Hardware stack levels used: 1
  2116 ;; Hardware stack levels required when called: 11
  2117 ;; This function calls:
  2118 ;;		_Event_getData
  2119 ;;		_Event_getId
  2120 ;;		_POST
  2121 ;;		___wmul
  2122 ;;		_getCenterFrame
  2123 ;;		_getPositionFrame
  2124 ;;		_readCANFrame
  2125 ;;		_sendAliveFrame
  2126 ;;		_setCenter
  2127 ;;		_setPosition
  2128 ;;		_st
  2129 ;;		_steeringSetup
  2130 ;;		_store_read
  2131 ;; This function is called by:
  2132 ;;		_commControl_startBehaviour
  2133 ;;		_readCANFrame
  2134 ;;		_XF_executeOnce
  2135 ;; This function uses a non-reentrant model
  2136 ;;
  2137                           
  2138                           	psect	text5
  2139  00001E                     __ptext5:
  2140                           	callstack 0
  2141  00001E                     _commControl_processEvent:
  2142                           	callstack 18
  2143  00001E                     
  2144                           ;driveControl/commControl.c: 44:     CommControl* me = (CommControl*) ev->target;
  2145  00001E  0100               	movlb	0	; () banked
  2146  000020  EE20 F003          	lfsr	2,3
  2147  000024  51B1               	movf	commControl_processEvent@ev& (0+255),w,b
  2148  000026  26D9               	addwf	fsr2l,f,c
  2149  000028  51B2               	movf	(commControl_processEvent@ev+1)& (0+255),w,b
  2150  00002A  22DA               	addwfc	fsr2h,f,c
  2151  00002C  006F FF78  F0C0    	movff	postinc2,commControl_processEvent@me
  2152  000032  006F FF74  F0C1    	movff	postdec2,commControl_processEvent@me+1
  2153  000038                     
  2154                           ; BSR set to: 0
  2155                           ;driveControl/commControl.c: 45:     _Bool processed = 0;
  2156  000038  0E00               	movlw	0
  2157  00003A  6FBD               	movwf	commControl_processEvent@processed& (0+255),b
  2158  00003C                     
  2159                           ; BSR set to: 0
  2160                           ;driveControl/commControl.c: 46:     CommSMState oldCSMState = me->commSM_State;
  2161  00003C  0060  F303  FFD9   	movff	commControl_processEvent@me,fsr2l
  2162  000042  0060  F307  FFDA   	movff	commControl_processEvent@me+1,fsr2h
  2163  000048  50DF               	movf	indf2,w,c
  2164  00004A  6FBB               	movwf	commControl_processEvent@oldCSMState& (0+255),b
  2165  00004C                     
  2166                           ; BSR set to: 0
  2167                           ;driveControl/commControl.c: 47:     AliveSMState oldASMState = me->aliveSM_State;
  2168  00004C  EE20 F001          	lfsr	2,1
  2169  000050  51C0               	movf	commControl_processEvent@me& (0+255),w,b
  2170  000052  26D9               	addwf	fsr2l,f,c
  2171  000054  51C1               	movf	(commControl_processEvent@me+1)& (0+255),w,b
  2172  000056  22DA               	addwfc	fsr2h,f,c
  2173  000058  50DF               	movf	indf2,w,c
  2174  00005A  6FBC               	movwf	commControl_processEvent@oldASMState& (0+255),b
  2175  00005C                     
  2176                           ; BSR set to: 0
  2177                           ;driveControl/commControl.c: 49:     uint16_t aliveTM = store_read(st(), EE_ALIVE_TIME);
  2178  00005C  EC8A  F01A         	call	_st	;wreg free
  2179  000060  C060  F062         	movff	?_st,store_read@me
  2180  000064  C061  F063         	movff	?_st+1,store_read@me+1
  2181  000068  0E01               	movlw	1
  2182  00006A  0100               	movlb	0	; () banked
  2183  00006C  6F64               	movwf	store_read@item& (0+255),b
  2184  00006E  EC50  F019         	call	_store_read	;wreg free
  2185  000072  0100               	movlb	0	; () banked
  2186  000074  6FB3               	movwf	??_commControl_processEvent& (0+255),b
  2187  000076  51B3               	movf	??_commControl_processEvent& (0+255),w,b
  2188  000078  6FBE               	movwf	commControl_processEvent@aliveTM& (0+255),b
  2189  00007A  6BBF               	clrf	(commControl_processEvent@aliveTM+1)& (0+255),b
  2190                           
  2191                           ;driveControl/commControl.c: 54:     switch (me->aliveSM_State) {
  2192  00007C  EF8B  F000         	goto	l4851
  2193  000080                     l4837:
  2194                           
  2195                           ; BSR set to: 0
  2196                           ;driveControl/commControl.c: 56:             if (Event_getId(ev) == evAInit) {
  2197  000080  C0B1  F060         	movff	commControl_processEvent@ev,Event_getId@me
  2198  000084  C0B2  F061         	movff	commControl_processEvent@ev+1,Event_getId@me+1
  2199  000088  EC73  F01A         	call	_Event_getId	;wreg free
  2200  00008C  0A2F               	xorlw	47
  2201  00008E  A4D8               	btfss	status,2,c
  2202  000090  EF4C  F000         	goto	u2341
  2203  000094  EF4E  F000         	goto	u2340
  2204  000098                     u2341:
  2205  000098  EFAA  F000         	goto	l4853
  2206  00009C                     u2340:
  2207  00009C                     
  2208                           ;driveControl/commControl.c: 57:                 me->aliveSM_State = ST_ASMWAIT;
  2209  00009C  0100               	movlb	0	; () banked
  2210  00009E  EE20 F001          	lfsr	2,1
  2211  0000A2  51C0               	movf	commControl_processEvent@me& (0+255),w,b
  2212  0000A4  26D9               	addwf	fsr2l,f,c
  2213  0000A6  51C1               	movf	(commControl_processEvent@me+1)& (0+255),w,b
  2214  0000A8  22DA               	addwfc	fsr2h,f,c
  2215  0000AA  0E1F               	movlw	31
  2216  0000AC  6EDF               	movwf	indf2,c
  2217  0000AE  EFAA  F000         	goto	l4853
  2218  0000B2                     l4841:
  2219                           
  2220                           ; BSR set to: 0
  2221                           ;driveControl/commControl.c: 61:             if (Event_getId(ev) == evATM) {
  2222  0000B2  C0B1  F060         	movff	commControl_processEvent@ev,Event_getId@me
  2223  0000B6  C0B2  F061         	movff	commControl_processEvent@ev+1,Event_getId@me+1
  2224  0000BA  EC73  F01A         	call	_Event_getId	;wreg free
  2225  0000BE  0A30               	xorlw	48
  2226  0000C0  A4D8               	btfss	status,2,c
  2227  0000C2  EF65  F000         	goto	u2351
  2228  0000C6  EF67  F000         	goto	u2350
  2229  0000CA                     u2351:
  2230  0000CA  EFAA  F000         	goto	l4853
  2231  0000CE                     u2350:
  2232  0000CE                     
  2233                           ;driveControl/commControl.c: 62:                 me->aliveSM_State = ST_ASMALIVE;
  2234  0000CE  0100               	movlb	0	; () banked
  2235  0000D0  EE20 F001          	lfsr	2,1
  2236  0000D4  51C0               	movf	commControl_processEvent@me& (0+255),w,b
  2237  0000D6  26D9               	addwf	fsr2l,f,c
  2238  0000D8  51C1               	movf	(commControl_processEvent@me+1)& (0+255),w,b
  2239  0000DA  22DA               	addwfc	fsr2h,f,c
  2240  0000DC  0E20               	movlw	32
  2241  0000DE  6EDF               	movwf	indf2,c
  2242  0000E0  EFAA  F000         	goto	l4853
  2243  0000E4                     l4845:
  2244                           
  2245                           ; BSR set to: 0
  2246                           ;driveControl/commControl.c: 66:             if (Event_getId(ev) == evADefault) {
  2247  0000E4  C0B1  F060         	movff	commControl_processEvent@ev,Event_getId@me
  2248  0000E8  C0B2  F061         	movff	commControl_processEvent@ev+1,Event_getId@me+1
  2249  0000EC  EC73  F01A         	call	_Event_getId	;wreg free
  2250  0000F0  0A31               	xorlw	49
  2251  0000F2  A4D8               	btfss	status,2,c
  2252  0000F4  EF7E  F000         	goto	u2361
  2253  0000F8  EF80  F000         	goto	u2360
  2254  0000FC                     u2361:
  2255  0000FC  EFAA  F000         	goto	l4853
  2256  000100                     u2360:
  2257  000100                     
  2258                           ;driveControl/commControl.c: 67:                 me->aliveSM_State = ST_ASMWAIT;
  2259  000100  0100               	movlb	0	; () banked
  2260  000102  EE20 F001          	lfsr	2,1
  2261  000106  51C0               	movf	commControl_processEvent@me& (0+255),w,b
  2262  000108  26D9               	addwf	fsr2l,f,c
  2263  00010A  51C1               	movf	(commControl_processEvent@me+1)& (0+255),w,b
  2264  00010C  22DA               	addwfc	fsr2h,f,c
  2265  00010E  0E1F               	movlw	31
  2266  000110  6EDF               	movwf	indf2,c
  2267  000112  EFAA  F000         	goto	l4853
  2268  000116                     l4851:
  2269                           
  2270                           ; BSR set to: 0
  2271  000116  EE20 F001          	lfsr	2,1
  2272  00011A  51C0               	movf	commControl_processEvent@me& (0+255),w,b
  2273  00011C  26D9               	addwf	fsr2l,f,c
  2274  00011E  51C1               	movf	(commControl_processEvent@me+1)& (0+255),w,b
  2275  000120  22DA               	addwfc	fsr2h,f,c
  2276  000122  50DF               	movf	indf2,w,c
  2277  000124  6FB3               	movwf	??_commControl_processEvent& (0+255),b
  2278  000126  6BB4               	clrf	(??_commControl_processEvent+1)& (0+255),b
  2279                           
  2280                           ; Switch on 2 bytes has been partitioned into a top level switch of size 1, and 1 sub-sw
      +                          itches
  2281                           ; Switch size 1, requested type "simple"
  2282                           ; Number of cases is 1, Range of values is 0 to 0
  2283                           ; switch strategies available:
  2284                           ; Name         Instructions Cycles
  2285                           ; simple_byte            4     3 (average)
  2286                           ;	Chosen strategy is simple_byte
  2287  000128  51B4               	movf	(??_commControl_processEvent+1)& (0+255),w,b
  2288  00012A  0A00               	xorlw	0	; case 0
  2289  00012C  B4D8               	btfsc	status,2,c
  2290  00012E  EF9B  F000         	goto	l6021
  2291  000132  EFAA  F000         	goto	l4853
  2292  000136                     l6021:
  2293                           
  2294                           ; BSR set to: 0
  2295                           ; Switch size 1, requested type "simple"
  2296                           ; Number of cases is 3, Range of values is 30 to 32
  2297                           ; switch strategies available:
  2298                           ; Name         Instructions Cycles
  2299                           ; simple_byte           10     6 (average)
  2300                           ;	Chosen strategy is simple_byte
  2301  000136  51B3               	movf	??_commControl_processEvent& (0+255),w,b
  2302  000138  0A1E               	xorlw	30	; case 30
  2303  00013A  B4D8               	btfsc	status,2,c
  2304  00013C  EF40  F000         	goto	l4837
  2305  000140  0A01               	xorlw	1	; case 31
  2306  000142  B4D8               	btfsc	status,2,c
  2307  000144  EF59  F000         	goto	l4841
  2308  000148  0A3F               	xorlw	63	; case 32
  2309  00014A  B4D8               	btfsc	status,2,c
  2310  00014C  EF72  F000         	goto	l4845
  2311  000150  EFAA  F000         	goto	l4853
  2312  000154                     l4853:
  2313                           
  2314                           ;driveControl/commControl.c: 73:     if (oldASMState != me->aliveSM_State) {
  2315  000154  0100               	movlb	0	; () banked
  2316  000156  EE20 F001          	lfsr	2,1
  2317  00015A  51C0               	movf	commControl_processEvent@me& (0+255),w,b
  2318  00015C  26D9               	addwf	fsr2l,f,c
  2319  00015E  51C1               	movf	(commControl_processEvent@me+1)& (0+255),w,b
  2320  000160  22DA               	addwfc	fsr2h,f,c
  2321  000162  51BC               	movf	commControl_processEvent@oldASMState& (0+255),w,b
  2322  000164  18DE               	xorwf	postinc2,w,c
  2323  000166  B4D8               	btfsc	status,2,c
  2324  000168  EFB8  F000         	goto	u2371
  2325  00016C  EFBA  F000         	goto	u2370
  2326  000170                     u2371:
  2327  000170  EF3C  F001         	goto	l4869
  2328  000174                     u2370:
  2329  000174                     
  2330                           ; BSR set to: 0
  2331                           ;driveControl/commControl.c: 74:         processed = 1;
  2332  000174  0E01               	movlw	1
  2333  000176  6FBD               	movwf	commControl_processEvent@processed& (0+255),b
  2334                           
  2335                           ;driveControl/commControl.c: 75:         switch (me->aliveSM_State) {
  2336  000178  EF1D  F001         	goto	l4867
  2337  00017C                     l4857:
  2338                           
  2339                           ; BSR set to: 0
  2340                           ;driveControl/commControl.c: 80:                 POST(me, &commControl_processEvent, evA
      +                          TM, aliveTM*10, 0);
  2341  00017C  C0C0  F08A         	movff	commControl_processEvent@me,POST@target
  2342  000180  C0C1  F08B         	movff	commControl_processEvent@me+1,POST@target+1
  2343  000184  0E1E               	movlw	low _commControl_processEvent
  2344  000186  6F8C               	movwf	POST@processEvent& (0+255),b
  2345  000188  0E00               	movlw	high _commControl_processEvent
  2346  00018A  6F8D               	movwf	(POST@processEvent+1)& (0+255),b
  2347  00018C  0E30               	movlw	48
  2348  00018E  6F8E               	movwf	POST@id& (0+255),b
  2349  000190  C0BE  F060         	movff	commControl_processEvent@aliveTM,___wmul@multiplier
  2350  000194  C0BF  F061         	movff	commControl_processEvent@aliveTM+1,___wmul@multiplier+1
  2351  000198  0E00               	movlw	0
  2352  00019A  6F63               	movwf	(___wmul@multiplicand+1)& (0+255),b
  2353  00019C  0E0A               	movlw	10
  2354  00019E  6F62               	movwf	___wmul@multiplicand& (0+255),b
  2355  0001A0  EC3A  F019         	call	___wmul	;wreg free
  2356  0001A4  C060  F08F         	movff	?___wmul,POST@delay
  2357  0001A8  C061  F090         	movff	?___wmul+1,POST@delay+1
  2358  0001AC  0E00               	movlw	0
  2359  0001AE  0100               	movlb	0	; () banked
  2360  0001B0  6F91               	movwf	POST@data& (0+255),b
  2361  0001B2  0E00               	movlw	0
  2362  0001B4  6F92               	movwf	(POST@data+1)& (0+255),b
  2363  0001B6  0E00               	movlw	0
  2364  0001B8  6F93               	movwf	(POST@data+2)& (0+255),b
  2365  0001BA  0E00               	movlw	0
  2366  0001BC  6F94               	movwf	(POST@data+3)& (0+255),b
  2367  0001BE  0E00               	movlw	0
  2368  0001C0  6F95               	movwf	(POST@data+4)& (0+255),b
  2369  0001C2  0E00               	movlw	0
  2370  0001C4  6F96               	movwf	(POST@data+5)& (0+255),b
  2371  0001C6  0E00               	movlw	0
  2372  0001C8  6F97               	movwf	(POST@data+6)& (0+255),b
  2373  0001CA  0E00               	movlw	0
  2374  0001CC  6F98               	movwf	(POST@data+7)& (0+255),b
  2375  0001CE  ECD5  F010         	call	_POST	;wreg free
  2376                           
  2377                           ;driveControl/commControl.c: 81:                 break;
  2378  0001D2  EF3C  F001         	goto	l4869
  2379  0001D6                     l4859:
  2380                           
  2381                           ; BSR set to: 0
  2382                           ;driveControl/commControl.c: 83:                 if(aliveTM != 0){
  2383  0001D6  51BE               	movf	commControl_processEvent@aliveTM& (0+255),w,b
  2384  0001D8  11BF               	iorwf	(commControl_processEvent@aliveTM+1)& (0+255),w,b
  2385  0001DA  B4D8               	btfsc	status,2,c
  2386  0001DC  EFF2  F000         	goto	u2381
  2387  0001E0  EFF4  F000         	goto	u2380
  2388  0001E4                     u2381:
  2389  0001E4  EFFA  F000         	goto	l4863
  2390  0001E8                     u2380:
  2391  0001E8                     
  2392                           ; BSR set to: 0
  2393                           ;driveControl/commControl.c: 84:                 sendAliveFrame(me);
  2394  0001E8  C0C0  F07B         	movff	commControl_processEvent@me,sendAliveFrame@me
  2395  0001EC  C0C1  F07C         	movff	commControl_processEvent@me+1,sendAliveFrame@me+1
  2396  0001F0  EC89  F013         	call	_sendAliveFrame	;wreg free
  2397  0001F4                     l4863:
  2398                           
  2399                           ;driveControl/commControl.c: 86:                 POST(me, &commControl_processEvent, evA
      +                          Default, 50, 0);
  2400  0001F4  C0C0  F08A         	movff	commControl_processEvent@me,POST@target
  2401  0001F8  C0C1  F08B         	movff	commControl_processEvent@me+1,POST@target+1
  2402  0001FC  0E1E               	movlw	low _commControl_processEvent
  2403  0001FE  0100               	movlb	0	; () banked
  2404  000200  6F8C               	movwf	POST@processEvent& (0+255),b
  2405  000202  0E00               	movlw	high _commControl_processEvent
  2406  000204  6F8D               	movwf	(POST@processEvent+1)& (0+255),b
  2407  000206  0E31               	movlw	49
  2408  000208  6F8E               	movwf	POST@id& (0+255),b
  2409  00020A  0E00               	movlw	0
  2410  00020C  6F90               	movwf	(POST@delay+1)& (0+255),b
  2411  00020E  0E32               	movlw	50
  2412  000210  6F8F               	movwf	POST@delay& (0+255),b
  2413  000212  0E00               	movlw	0
  2414  000214  6F91               	movwf	POST@data& (0+255),b
  2415  000216  0E00               	movlw	0
  2416  000218  6F92               	movwf	(POST@data+1)& (0+255),b
  2417  00021A  0E00               	movlw	0
  2418  00021C  6F93               	movwf	(POST@data+2)& (0+255),b
  2419  00021E  0E00               	movlw	0
  2420  000220  6F94               	movwf	(POST@data+3)& (0+255),b
  2421  000222  0E00               	movlw	0
  2422  000224  6F95               	movwf	(POST@data+4)& (0+255),b
  2423  000226  0E00               	movlw	0
  2424  000228  6F96               	movwf	(POST@data+5)& (0+255),b
  2425  00022A  0E00               	movlw	0
  2426  00022C  6F97               	movwf	(POST@data+6)& (0+255),b
  2427  00022E  0E00               	movlw	0
  2428  000230  6F98               	movwf	(POST@data+7)& (0+255),b
  2429  000232  ECD5  F010         	call	_POST	;wreg free
  2430                           
  2431                           ;driveControl/commControl.c: 87:                 break;
  2432  000236  EF3C  F001         	goto	l4869
  2433  00023A                     l4867:
  2434                           
  2435                           ; BSR set to: 0
  2436  00023A  EE20 F001          	lfsr	2,1
  2437  00023E  51C0               	movf	commControl_processEvent@me& (0+255),w,b
  2438  000240  26D9               	addwf	fsr2l,f,c
  2439  000242  51C1               	movf	(commControl_processEvent@me+1)& (0+255),w,b
  2440  000244  22DA               	addwfc	fsr2h,f,c
  2441  000246  50DF               	movf	indf2,w,c
  2442  000248  6FB3               	movwf	??_commControl_processEvent& (0+255),b
  2443  00024A  6BB4               	clrf	(??_commControl_processEvent+1)& (0+255),b
  2444                           
  2445                           ; Switch on 2 bytes has been partitioned into a top level switch of size 1, and 1 sub-sw
      +                          itches
  2446                           ; Switch size 1, requested type "simple"
  2447                           ; Number of cases is 1, Range of values is 0 to 0
  2448                           ; switch strategies available:
  2449                           ; Name         Instructions Cycles
  2450                           ; simple_byte            4     3 (average)
  2451                           ;	Chosen strategy is simple_byte
  2452  00024C  51B4               	movf	(??_commControl_processEvent+1)& (0+255),w,b
  2453  00024E  0A00               	xorlw	0	; case 0
  2454  000250  B4D8               	btfsc	status,2,c
  2455  000252  EF2D  F001         	goto	l6023
  2456  000256  EF3C  F001         	goto	l4869
  2457  00025A                     l6023:
  2458                           
  2459                           ; BSR set to: 0
  2460                           ; Switch size 1, requested type "simple"
  2461                           ; Number of cases is 3, Range of values is 30 to 32
  2462                           ; switch strategies available:
  2463                           ; Name         Instructions Cycles
  2464                           ; simple_byte           10     6 (average)
  2465                           ;	Chosen strategy is simple_byte
  2466  00025A  51B3               	movf	??_commControl_processEvent& (0+255),w,b
  2467  00025C  0A1E               	xorlw	30	; case 30
  2468  00025E  B4D8               	btfsc	status,2,c
  2469  000260  EF3C  F001         	goto	l4869
  2470  000264  0A01               	xorlw	1	; case 31
  2471  000266  B4D8               	btfsc	status,2,c
  2472  000268  EFBE  F000         	goto	l4857
  2473  00026C  0A3F               	xorlw	63	; case 32
  2474  00026E  B4D8               	btfsc	status,2,c
  2475  000270  EFEB  F000         	goto	l4859
  2476  000274  EF3C  F001         	goto	l4869
  2477  000278                     l4869:
  2478                           
  2479                           ;driveControl/commControl.c: 96:     if (processed == 0)
  2480  000278  0100               	movlb	0	; () banked
  2481  00027A  51BD               	movf	commControl_processEvent@processed& (0+255),w,b
  2482  00027C  A4D8               	btfss	status,2,c
  2483  00027E  EF43  F001         	goto	u2391
  2484  000282  EF45  F001         	goto	u2390
  2485  000286                     u2391:
  2486  000286  EFB4  F004         	goto	l250
  2487  00028A                     u2390:
  2488  00028A  EFCD  F002         	goto	l4931
  2489  00028E                     l4873:
  2490                           
  2491                           ; BSR set to: 0
  2492                           ;driveControl/commControl.c: 100:                 if (Event_getId(ev) == evCInit) {
  2493  00028E  C0B1  F060         	movff	commControl_processEvent@ev,Event_getId@me
  2494  000292  C0B2  F061         	movff	commControl_processEvent@ev+1,Event_getId@me+1
  2495  000296  EC73  F01A         	call	_Event_getId	;wreg free
  2496  00029A  0A28               	xorlw	40
  2497  00029C  A4D8               	btfss	status,2,c
  2498  00029E  EF53  F001         	goto	u2401
  2499  0002A2  EF55  F001         	goto	u2400
  2500  0002A6                     u2401:
  2501  0002A6  EF00  F003         	goto	l4933
  2502  0002AA                     u2400:
  2503  0002AA                     
  2504                           ;driveControl/commControl.c: 101:                     me->commSM_State = ST_CSMWAIT;
  2505  0002AA  0060  F303  FFD9   	movff	commControl_processEvent@me,fsr2l
  2506  0002B0  0060  F307  FFDA   	movff	commControl_processEvent@me+1,fsr2h
  2507  0002B6  0E0C               	movlw	12
  2508  0002B8  6EDF               	movwf	indf2,c
  2509  0002BA  EF00  F003         	goto	l4933
  2510  0002BE                     l4877:
  2511                           
  2512                           ; BSR set to: 0
  2513                           ;driveControl/commControl.c: 105:                 if (Event_getId(ev) == evCTM) {
  2514  0002BE  C0B1  F060         	movff	commControl_processEvent@ev,Event_getId@me
  2515  0002C2  C0B2  F061         	movff	commControl_processEvent@ev+1,Event_getId@me+1
  2516  0002C6  EC73  F01A         	call	_Event_getId	;wreg free
  2517  0002CA  0A29               	xorlw	41
  2518  0002CC  A4D8               	btfss	status,2,c
  2519  0002CE  EF6B  F001         	goto	u2411
  2520  0002D2  EF6D  F001         	goto	u2410
  2521  0002D6                     u2411:
  2522  0002D6  EF00  F003         	goto	l4933
  2523  0002DA                     u2410:
  2524  0002DA                     
  2525                           ;driveControl/commControl.c: 106:                     me->commSM_State = ST_CSMPROCESS;
  2526  0002DA  0060  F303  FFD9   	movff	commControl_processEvent@me,fsr2l
  2527  0002E0  0060  F307  FFDA   	movff	commControl_processEvent@me+1,fsr2h
  2528  0002E6  0E0D               	movlw	13
  2529  0002E8  6EDF               	movwf	indf2,c
  2530  0002EA  EF00  F003         	goto	l4933
  2531  0002EE                     l4881:
  2532                           
  2533                           ; BSR set to: 0
  2534                           ;driveControl/commControl.c: 110:                 if (Event_getId(ev) == evCMsg) {
  2535  0002EE  C0B1  F060         	movff	commControl_processEvent@ev,Event_getId@me
  2536  0002F2  C0B2  F061         	movff	commControl_processEvent@ev+1,Event_getId@me+1
  2537  0002F6  EC73  F01A         	call	_Event_getId	;wreg free
  2538  0002FA  0A2A               	xorlw	42
  2539  0002FC  A4D8               	btfss	status,2,c
  2540  0002FE  EF83  F001         	goto	u2421
  2541  000302  EF85  F001         	goto	u2420
  2542  000306                     u2421:
  2543  000306  EF0D  F002         	goto	l4897
  2544  00030A                     u2420:
  2545  00030A  EFAF  F001         	goto	l4895
  2546  00030E                     l4885:
  2547                           
  2548                           ; BSR set to: 0
  2549                           ;driveControl/commControl.c: 114:                             me->commSM_State = ST_CSMS
      +                          ETUP;
  2550  00030E  0060  F303  FFD9   	movff	commControl_processEvent@me,fsr2l
  2551  000314  0060  F307  FFDA   	movff	commControl_processEvent@me+1,fsr2h
  2552  00031A  0E0B               	movlw	11
  2553  00031C  6EDF               	movwf	indf2,c
  2554                           
  2555                           ;driveControl/commControl.c: 115:                             break;
  2556  00031E  EF00  F003         	goto	l4933
  2557  000322                     l4887:
  2558                           
  2559                           ; BSR set to: 0
  2560                           ;driveControl/commControl.c: 117:                             me->commSM_State = ST_CSMS
      +                          ET;
  2561  000322  0060  F303  FFD9   	movff	commControl_processEvent@me,fsr2l
  2562  000328  0060  F307  FFDA   	movff	commControl_processEvent@me+1,fsr2h
  2563  00032E  0E0E               	movlw	14
  2564  000330  6EDF               	movwf	indf2,c
  2565                           
  2566                           ;driveControl/commControl.c: 118:                             break;
  2567  000332  EF00  F003         	goto	l4933
  2568  000336                     l4889:
  2569                           
  2570                           ; BSR set to: 0
  2571                           ;driveControl/commControl.c: 120:                             me->commSM_State = ST_CSMS
      +                          ETCENTER;
  2572  000336  0060  F303  FFD9   	movff	commControl_processEvent@me,fsr2l
  2573  00033C  0060  F307  FFDA   	movff	commControl_processEvent@me+1,fsr2h
  2574  000342  0E10               	movlw	16
  2575  000344  6EDF               	movwf	indf2,c
  2576                           
  2577                           ;driveControl/commControl.c: 121:                             break;
  2578  000346  EF00  F003         	goto	l4933
  2579  00034A                     l4891:
  2580                           
  2581                           ; BSR set to: 0
  2582                           ;driveControl/commControl.c: 123:                             me->commSM_State = ST_CSMW
      +                          AIT;
  2583  00034A  0060  F303  FFD9   	movff	commControl_processEvent@me,fsr2l
  2584  000350  0060  F307  FFDA   	movff	commControl_processEvent@me+1,fsr2h
  2585  000356  0E0C               	movlw	12
  2586  000358  6EDF               	movwf	indf2,c
  2587                           
  2588                           ;driveControl/commControl.c: 124:                             break;
  2589  00035A  EF00  F003         	goto	l4933
  2590  00035E                     l4895:
  2591  00035E  C0B1  F060         	movff	commControl_processEvent@ev,Event_getData@me
  2592  000362  C0B2  F061         	movff	commControl_processEvent@ev+1,Event_getData@me+1
  2593  000366  EC61  F017         	call	_Event_getData	;wreg free
  2594  00036A  C060  F0B3         	movff	?_Event_getData,??_commControl_processEvent
  2595  00036E  C061  F0B4         	movff	?_Event_getData+1,??_commControl_processEvent+1
  2596  000372  C062  F0B5         	movff	?_Event_getData+2,??_commControl_processEvent+2
  2597  000376  C063  F0B6         	movff	?_Event_getData+3,??_commControl_processEvent+3
  2598  00037A  C064  F0B7         	movff	?_Event_getData+4,??_commControl_processEvent+4
  2599  00037E  C065  F0B8         	movff	?_Event_getData+5,??_commControl_processEvent+5
  2600  000382  C066  F0B9         	movff	?_Event_getData+6,??_commControl_processEvent+6
  2601  000386  C067  F0BA         	movff	?_Event_getData+7,??_commControl_processEvent+7
  2602                           
  2603                           ; Switch on 2 bytes has been partitioned into a top level switch of size 1, and 3 sub-sw
      +                          itches
  2604                           ; Switch size 1, requested type "simple"
  2605                           ; Number of cases is 1, Range of values is 0 to 0
  2606                           ; switch strategies available:
  2607                           ; Name         Instructions Cycles
  2608                           ; simple_byte            4     3 (average)
  2609                           ;	Chosen strategy is simple_byte
  2610  00038A  0100               	movlb	0	; () banked
  2611  00038C  51BA               	movf	(??_commControl_processEvent+7)& (0+255),w,b
  2612  00038E  0A00               	xorlw	0	; case 0
  2613  000390  B4D8               	btfsc	status,2,c
  2614  000392  EF06  F002         	goto	l6029
  2615  000396  EFA5  F001         	goto	l4891
  2616  00039A                     l6025:
  2617                           
  2618                           ; BSR set to: 0
  2619                           ; Switch on 2 bytes has been partitioned into a top level switch of size 1, and 2 sub-sw
      +                          itches
  2620                           ; Switch size 1, requested type "simple"
  2621                           ; Number of cases is 1, Range of values is 0 to 0
  2622                           ; switch strategies available:
  2623                           ; Name         Instructions Cycles
  2624                           ; simple_byte            4     3 (average)
  2625                           ;	Chosen strategy is simple_byte
  2626  00039A  51B6               	movf	(??_commControl_processEvent+3)& (0+255),w,b
  2627  00039C  0A00               	xorlw	0	; case 0
  2628  00039E  B4D8               	btfsc	status,2,c
  2629  0003A0  EFF1  F001         	goto	l6033
  2630  0003A4  EFA5  F001         	goto	l4891
  2631  0003A8                     l6031:
  2632                           
  2633                           ; BSR set to: 0
  2634                           ; Switch on 2 bytes has been partitioned into a top level switch of size 1, and 2 sub-sw
      +                          itches
  2635                           ; Switch size 1, requested type "simple"
  2636                           ; Number of cases is 2, Range of values is 0 to 1
  2637                           ; switch strategies available:
  2638                           ; Name         Instructions Cycles
  2639                           ; simple_byte            7     4 (average)
  2640                           ;	Chosen strategy is simple_byte
  2641  0003A8  51B4               	movf	(??_commControl_processEvent+1)& (0+255),w,b
  2642  0003AA  0A00               	xorlw	0	; case 0
  2643  0003AC  B4D8               	btfsc	status,2,c
  2644  0003AE  EFDF  F001         	goto	l6035
  2645  0003B2  0A01               	xorlw	1	; case 1
  2646  0003B4  B4D8               	btfsc	status,2,c
  2647  0003B6  EFE6  F001         	goto	l6037
  2648  0003BA  EFA5  F001         	goto	l4891
  2649  0003BE                     l6035:
  2650                           
  2651                           ; BSR set to: 0
  2652                           ; Switch size 1, requested type "simple"
  2653                           ; Number of cases is 1, Range of values is 82 to 82
  2654                           ; switch strategies available:
  2655                           ; Name         Instructions Cycles
  2656                           ; simple_byte            4     3 (average)
  2657                           ;	Chosen strategy is simple_byte
  2658  0003BE  51B3               	movf	??_commControl_processEvent& (0+255),w,b
  2659  0003C0  0A52               	xorlw	82	; case 82
  2660  0003C2  B4D8               	btfsc	status,2,c
  2661  0003C4  EF9B  F001         	goto	l4889
  2662  0003C8  EFA5  F001         	goto	l4891
  2663  0003CC                     l6037:
  2664                           
  2665                           ; BSR set to: 0
  2666                           ; Switch size 1, requested type "simple"
  2667                           ; Number of cases is 2, Range of values is 80 to 81
  2668                           ; switch strategies available:
  2669                           ; Name         Instructions Cycles
  2670                           ; simple_byte            7     4 (average)
  2671                           ;	Chosen strategy is simple_byte
  2672  0003CC  51B3               	movf	??_commControl_processEvent& (0+255),w,b
  2673  0003CE  0A50               	xorlw	80	; case 80
  2674  0003D0  B4D8               	btfsc	status,2,c
  2675  0003D2  EF87  F001         	goto	l4885
  2676  0003D6  0A01               	xorlw	1	; case 81
  2677  0003D8  B4D8               	btfsc	status,2,c
  2678  0003DA  EF91  F001         	goto	l4887
  2679  0003DE  EFA5  F001         	goto	l4891
  2680  0003E2                     l6033:
  2681                           
  2682                           ; BSR set to: 0
  2683                           ; Switch size 1, requested type "simple"
  2684                           ; Number of cases is 1, Range of values is 0 to 0
  2685                           ; switch strategies available:
  2686                           ; Name         Instructions Cycles
  2687                           ; simple_byte            4     3 (average)
  2688                           ;	Chosen strategy is simple_byte
  2689  0003E2  51B5               	movf	(??_commControl_processEvent+2)& (0+255),w,b
  2690  0003E4  0A00               	xorlw	0	; case 0
  2691  0003E6  B4D8               	btfsc	status,2,c
  2692  0003E8  EFD4  F001         	goto	l6031
  2693  0003EC  EFA5  F001         	goto	l4891
  2694  0003F0                     l6027:
  2695                           
  2696                           ; BSR set to: 0
  2697                           ; Switch on 2 bytes has been partitioned into a top level switch of size 1, and 1 sub-sw
      +                          itches
  2698                           ; Switch size 1, requested type "simple"
  2699                           ; Number of cases is 1, Range of values is 0 to 0
  2700                           ; switch strategies available:
  2701                           ; Name         Instructions Cycles
  2702                           ; simple_byte            4     3 (average)
  2703                           ;	Chosen strategy is simple_byte
  2704  0003F0  51B8               	movf	(??_commControl_processEvent+5)& (0+255),w,b
  2705  0003F2  0A00               	xorlw	0	; case 0
  2706  0003F4  B4D8               	btfsc	status,2,c
  2707  0003F6  EFFF  F001         	goto	l6039
  2708  0003FA  EFA5  F001         	goto	l4891
  2709  0003FE                     l6039:
  2710                           
  2711                           ; BSR set to: 0
  2712                           ; Switch size 1, requested type "simple"
  2713                           ; Number of cases is 1, Range of values is 0 to 0
  2714                           ; switch strategies available:
  2715                           ; Name         Instructions Cycles
  2716                           ; simple_byte            4     3 (average)
  2717                           ;	Chosen strategy is simple_byte
  2718  0003FE  51B7               	movf	(??_commControl_processEvent+4)& (0+255),w,b
  2719  000400  0A00               	xorlw	0	; case 0
  2720  000402  B4D8               	btfsc	status,2,c
  2721  000404  EFCD  F001         	goto	l6025
  2722  000408  EFA5  F001         	goto	l4891
  2723  00040C                     l6029:
  2724                           
  2725                           ; BSR set to: 0
  2726                           ; Switch size 1, requested type "simple"
  2727                           ; Number of cases is 1, Range of values is 0 to 0
  2728                           ; switch strategies available:
  2729                           ; Name         Instructions Cycles
  2730                           ; simple_byte            4     3 (average)
  2731                           ;	Chosen strategy is simple_byte
  2732  00040C  51B9               	movf	(??_commControl_processEvent+6)& (0+255),w,b
  2733  00040E  0A00               	xorlw	0	; case 0
  2734  000410  B4D8               	btfsc	status,2,c
  2735  000412  EFF8  F001         	goto	l6027
  2736  000416  EFA5  F001         	goto	l4891
  2737  00041A                     l4897:
  2738  00041A  C0B1  F060         	movff	commControl_processEvent@ev,Event_getId@me
  2739  00041E  C0B2  F061         	movff	commControl_processEvent@ev+1,Event_getId@me+1
  2740  000422  EC73  F01A         	call	_Event_getId	;wreg free
  2741  000426  0A2C               	xorlw	44
  2742  000428  A4D8               	btfss	status,2,c
  2743  00042A  EF19  F002         	goto	u2431
  2744  00042E  EF1B  F002         	goto	u2430
  2745  000432                     u2431:
  2746  000432  EF00  F003         	goto	l4933
  2747  000436                     u2430:
  2748  000436                     
  2749                           ;driveControl/commControl.c: 128:                     me->commSM_State = ST_CSMWAIT;
  2750  000436  0060  F303  FFD9   	movff	commControl_processEvent@me,fsr2l
  2751  00043C  0060  F307  FFDA   	movff	commControl_processEvent@me+1,fsr2h
  2752  000442  0E0C               	movlw	12
  2753  000444  6EDF               	movwf	indf2,c
  2754  000446  EF00  F003         	goto	l4933
  2755  00044A                     l4901:
  2756                           
  2757                           ; BSR set to: 0
  2758                           ;driveControl/commControl.c: 132:                 if(Event_getId(ev) == evGetSteering){
  2759  00044A  C0B1  F060         	movff	commControl_processEvent@ev,Event_getId@me
  2760  00044E  C0B2  F061         	movff	commControl_processEvent@ev+1,Event_getId@me+1
  2761  000452  EC73  F01A         	call	_Event_getId	;wreg free
  2762  000456  0A2D               	xorlw	45
  2763  000458  A4D8               	btfss	status,2,c
  2764  00045A  EF31  F002         	goto	u2441
  2765  00045E  EF33  F002         	goto	u2440
  2766  000462                     u2441:
  2767  000462  EF3D  F002         	goto	l4905
  2768  000466                     u2440:
  2769  000466                     
  2770                           ;driveControl/commControl.c: 133:                     me->commSM_State = ST_CSMGET;
  2771  000466  0060  F303  FFD9   	movff	commControl_processEvent@me,fsr2l
  2772  00046C  0060  F307  FFDA   	movff	commControl_processEvent@me+1,fsr2h
  2773  000472  0E0F               	movlw	15
  2774  000474  6EDF               	movwf	indf2,c
  2775                           
  2776                           ;driveControl/commControl.c: 134:                 }
  2777  000476  EF00  F003         	goto	l4933
  2778  00047A                     l4905:
  2779  00047A  C0B1  F060         	movff	commControl_processEvent@ev,Event_getId@me
  2780  00047E  C0B2  F061         	movff	commControl_processEvent@ev+1,Event_getId@me+1
  2781  000482  EC73  F01A         	call	_Event_getId	;wreg free
  2782  000486  0A2C               	xorlw	44
  2783  000488  A4D8               	btfss	status,2,c
  2784  00048A  EF49  F002         	goto	u2451
  2785  00048E  EF4B  F002         	goto	u2450
  2786  000492                     u2451:
  2787  000492  EF00  F003         	goto	l4933
  2788  000496                     u2450:
  2789  000496                     
  2790                           ;driveControl/commControl.c: 136:                     me->commSM_State = ST_CSMWAIT;
  2791  000496  0060  F303  FFD9   	movff	commControl_processEvent@me,fsr2l
  2792  00049C  0060  F307  FFDA   	movff	commControl_processEvent@me+1,fsr2h
  2793  0004A2  0E0C               	movlw	12
  2794  0004A4  6EDF               	movwf	indf2,c
  2795  0004A6  EF00  F003         	goto	l4933
  2796  0004AA                     l4909:
  2797                           
  2798                           ; BSR set to: 0
  2799                           ;driveControl/commControl.c: 140:                 if (Event_getId(ev) == evCDefault) {
  2800  0004AA  C0B1  F060         	movff	commControl_processEvent@ev,Event_getId@me
  2801  0004AE  C0B2  F061         	movff	commControl_processEvent@ev+1,Event_getId@me+1
  2802  0004B2  EC73  F01A         	call	_Event_getId	;wreg free
  2803  0004B6  0A2C               	xorlw	44
  2804  0004B8  A4D8               	btfss	status,2,c
  2805  0004BA  EF61  F002         	goto	u2461
  2806  0004BE  EF63  F002         	goto	u2460
  2807  0004C2                     u2461:
  2808  0004C2  EF00  F003         	goto	l4933
  2809  0004C6                     u2460:
  2810  0004C6                     
  2811                           ;driveControl/commControl.c: 141:                     me->commSM_State = ST_CSMWAIT;
  2812  0004C6  0060  F303  FFD9   	movff	commControl_processEvent@me,fsr2l
  2813  0004CC  0060  F307  FFDA   	movff	commControl_processEvent@me+1,fsr2h
  2814  0004D2  0E0C               	movlw	12
  2815  0004D4  6EDF               	movwf	indf2,c
  2816  0004D6  EF00  F003         	goto	l4933
  2817  0004DA                     l4913:
  2818                           
  2819                           ; BSR set to: 0
  2820                           ;driveControl/commControl.c: 145:                 if (Event_getId(ev) == evCDefault) {
  2821  0004DA  C0B1  F060         	movff	commControl_processEvent@ev,Event_getId@me
  2822  0004DE  C0B2  F061         	movff	commControl_processEvent@ev+1,Event_getId@me+1
  2823  0004E2  EC73  F01A         	call	_Event_getId	;wreg free
  2824  0004E6  0A2C               	xorlw	44
  2825  0004E8  A4D8               	btfss	status,2,c
  2826  0004EA  EF79  F002         	goto	u2471
  2827  0004EE  EF7B  F002         	goto	u2470
  2828  0004F2                     u2471:
  2829  0004F2  EF00  F003         	goto	l4933
  2830  0004F6                     u2470:
  2831  0004F6                     
  2832                           ;driveControl/commControl.c: 146:                     me->commSM_State = ST_CSMWAIT;
  2833  0004F6  0060  F303  FFD9   	movff	commControl_processEvent@me,fsr2l
  2834  0004FC  0060  F307  FFDA   	movff	commControl_processEvent@me+1,fsr2h
  2835  000502  0E0C               	movlw	12
  2836  000504  6EDF               	movwf	indf2,c
  2837  000506  EF00  F003         	goto	l4933
  2838  00050A                     l4917:
  2839                           
  2840                           ; BSR set to: 0
  2841                           ;driveControl/commControl.c: 150:                 if (Event_getId(ev) == evGetCenter) {
  2842  00050A  C0B1  F060         	movff	commControl_processEvent@ev,Event_getId@me
  2843  00050E  C0B2  F061         	movff	commControl_processEvent@ev+1,Event_getId@me+1
  2844  000512  EC73  F01A         	call	_Event_getId	;wreg free
  2845  000516  0A2E               	xorlw	46
  2846  000518  A4D8               	btfss	status,2,c
  2847  00051A  EF91  F002         	goto	u2481
  2848  00051E  EF93  F002         	goto	u2480
  2849  000522                     u2481:
  2850  000522  EF9D  F002         	goto	l4921
  2851  000526                     u2480:
  2852  000526                     
  2853                           ;driveControl/commControl.c: 151:                     me->commSM_State = ST_CSMGETCENTER
      +                          ;
  2854  000526  0060  F303  FFD9   	movff	commControl_processEvent@me,fsr2l
  2855  00052C  0060  F307  FFDA   	movff	commControl_processEvent@me+1,fsr2h
  2856  000532  0E11               	movlw	17
  2857  000534  6EDF               	movwf	indf2,c
  2858                           
  2859                           ;driveControl/commControl.c: 152:                 }
  2860  000536  EF00  F003         	goto	l4933
  2861  00053A                     l4921:
  2862  00053A  C0B1  F060         	movff	commControl_processEvent@ev,Event_getId@me
  2863  00053E  C0B2  F061         	movff	commControl_processEvent@ev+1,Event_getId@me+1
  2864  000542  EC73  F01A         	call	_Event_getId	;wreg free
  2865  000546  0A2C               	xorlw	44
  2866  000548  A4D8               	btfss	status,2,c
  2867  00054A  EFA9  F002         	goto	u2491
  2868  00054E  EFAB  F002         	goto	u2490
  2869  000552                     u2491:
  2870  000552  EF00  F003         	goto	l4933
  2871  000556                     u2490:
  2872  000556                     
  2873                           ;driveControl/commControl.c: 154:                     me->commSM_State = ST_CSMWAIT;
  2874  000556  0060  F303  FFD9   	movff	commControl_processEvent@me,fsr2l
  2875  00055C  0060  F307  FFDA   	movff	commControl_processEvent@me+1,fsr2h
  2876  000562  0E0C               	movlw	12
  2877  000564  6EDF               	movwf	indf2,c
  2878  000566  EF00  F003         	goto	l4933
  2879  00056A                     l4925:
  2880                           
  2881                           ; BSR set to: 0
  2882                           ;driveControl/commControl.c: 158:                 if (Event_getId(ev) == evCDefault) {
  2883  00056A  C0B1  F060         	movff	commControl_processEvent@ev,Event_getId@me
  2884  00056E  C0B2  F061         	movff	commControl_processEvent@ev+1,Event_getId@me+1
  2885  000572  EC73  F01A         	call	_Event_getId	;wreg free
  2886  000576  0A2C               	xorlw	44
  2887  000578  A4D8               	btfss	status,2,c
  2888  00057A  EFC1  F002         	goto	u2501
  2889  00057E  EFC3  F002         	goto	u2500
  2890  000582                     u2501:
  2891  000582  EF00  F003         	goto	l4933
  2892  000586                     u2500:
  2893  000586                     
  2894                           ;driveControl/commControl.c: 159:                     me->commSM_State = ST_CSMWAIT;
  2895  000586  0060  F303  FFD9   	movff	commControl_processEvent@me,fsr2l
  2896  00058C  0060  F307  FFDA   	movff	commControl_processEvent@me+1,fsr2h
  2897  000592  0E0C               	movlw	12
  2898  000594  6EDF               	movwf	indf2,c
  2899  000596  EF00  F003         	goto	l4933
  2900  00059A                     l4931:
  2901                           
  2902                           ; BSR set to: 0
  2903  00059A  0060  F303  FFD9   	movff	commControl_processEvent@me,fsr2l
  2904  0005A0  0060  F307  FFDA   	movff	commControl_processEvent@me+1,fsr2h
  2905  0005A6  50DF               	movf	indf2,w,c
  2906  0005A8  6FB3               	movwf	??_commControl_processEvent& (0+255),b
  2907  0005AA  6BB4               	clrf	(??_commControl_processEvent+1)& (0+255),b
  2908                           
  2909                           ; Switch on 2 bytes has been partitioned into a top level switch of size 1, and 1 sub-sw
      +                          itches
  2910                           ; Switch size 1, requested type "simple"
  2911                           ; Number of cases is 1, Range of values is 0 to 0
  2912                           ; switch strategies available:
  2913                           ; Name         Instructions Cycles
  2914                           ; simple_byte            4     3 (average)
  2915                           ;	Chosen strategy is simple_byte
  2916  0005AC  51B4               	movf	(??_commControl_processEvent+1)& (0+255),w,b
  2917  0005AE  0A00               	xorlw	0	; case 0
  2918  0005B0  B4D8               	btfsc	status,2,c
  2919  0005B2  EFDD  F002         	goto	l6041
  2920  0005B6  EF00  F003         	goto	l4933
  2921  0005BA                     l6041:
  2922                           
  2923                           ; BSR set to: 0
  2924                           ; Switch size 1, requested type "simple"
  2925                           ; Number of cases is 8, Range of values is 10 to 17
  2926                           ; switch strategies available:
  2927                           ; Name         Instructions Cycles
  2928                           ; simple_byte           25    13 (average)
  2929                           ;	Chosen strategy is simple_byte
  2930  0005BA  51B3               	movf	??_commControl_processEvent& (0+255),w,b
  2931  0005BC  0A0A               	xorlw	10	; case 10
  2932  0005BE  B4D8               	btfsc	status,2,c
  2933  0005C0  EF47  F001         	goto	l4873
  2934  0005C4  0A01               	xorlw	1	; case 11
  2935  0005C6  B4D8               	btfsc	status,2,c
  2936  0005C8  EF6D  F002         	goto	l4913
  2937  0005CC  0A07               	xorlw	7	; case 12
  2938  0005CE  B4D8               	btfsc	status,2,c
  2939  0005D0  EF5F  F001         	goto	l4877
  2940  0005D4  0A01               	xorlw	1	; case 13
  2941  0005D6  B4D8               	btfsc	status,2,c
  2942  0005D8  EF77  F001         	goto	l4881
  2943  0005DC  0A03               	xorlw	3	; case 14
  2944  0005DE  B4D8               	btfsc	status,2,c
  2945  0005E0  EF25  F002         	goto	l4901
  2946  0005E4  0A01               	xorlw	1	; case 15
  2947  0005E6  B4D8               	btfsc	status,2,c
  2948  0005E8  EF55  F002         	goto	l4909
  2949  0005EC  0A1F               	xorlw	31	; case 16
  2950  0005EE  B4D8               	btfsc	status,2,c
  2951  0005F0  EF85  F002         	goto	l4917
  2952  0005F4  0A01               	xorlw	1	; case 17
  2953  0005F6  B4D8               	btfsc	status,2,c
  2954  0005F8  EFB5  F002         	goto	l4925
  2955  0005FC  EF00  F003         	goto	l4933
  2956  000600                     l4933:
  2957                           
  2958                           ;driveControl/commControl.c: 165:         if (oldCSMState != me->commSM_State) {
  2959  000600  0060  F303  FFD9   	movff	commControl_processEvent@me,fsr2l
  2960  000606  0060  F307  FFDA   	movff	commControl_processEvent@me+1,fsr2h
  2961  00060C  0100               	movlb	0	; () banked
  2962  00060E  51BB               	movf	commControl_processEvent@oldCSMState& (0+255),w,b
  2963  000610  18DE               	xorwf	postinc2,w,c
  2964  000612  B4D8               	btfsc	status,2,c
  2965  000614  EF0E  F003         	goto	u2511
  2966  000618  EF10  F003         	goto	u2510
  2967  00061C                     u2511:
  2968  00061C  EFB4  F004         	goto	l250
  2969  000620                     u2510:
  2970  000620                     
  2971                           ; BSR set to: 0
  2972                           ;driveControl/commControl.c: 167:             switch (me->commSM_State) {
  2973  000620  EF81  F004         	goto	l4971
  2974  000624                     l4937:
  2975                           
  2976                           ; BSR set to: 0
  2977                           ;driveControl/commControl.c: 172:                     POST(me, &commControl_processEvent
      +                          , evCTM, 20*10, 0);
  2978  000624  C0C0  F08A         	movff	commControl_processEvent@me,POST@target
  2979  000628  C0C1  F08B         	movff	commControl_processEvent@me+1,POST@target+1
  2980  00062C  0E1E               	movlw	low _commControl_processEvent
  2981  00062E  6F8C               	movwf	POST@processEvent& (0+255),b
  2982  000630  0E00               	movlw	high _commControl_processEvent
  2983  000632  6F8D               	movwf	(POST@processEvent+1)& (0+255),b
  2984  000634  0E29               	movlw	41
  2985  000636  6F8E               	movwf	POST@id& (0+255),b
  2986  000638  0E00               	movlw	0
  2987  00063A  6F90               	movwf	(POST@delay+1)& (0+255),b
  2988  00063C  0EC8               	movlw	200
  2989  00063E  6F8F               	movwf	POST@delay& (0+255),b
  2990  000640  0E00               	movlw	0
  2991  000642  6F91               	movwf	POST@data& (0+255),b
  2992  000644  0E00               	movlw	0
  2993  000646  6F92               	movwf	(POST@data+1)& (0+255),b
  2994  000648  0E00               	movlw	0
  2995  00064A  6F93               	movwf	(POST@data+2)& (0+255),b
  2996  00064C  0E00               	movlw	0
  2997  00064E  6F94               	movwf	(POST@data+3)& (0+255),b
  2998  000650  0E00               	movlw	0
  2999  000652  6F95               	movwf	(POST@data+4)& (0+255),b
  3000  000654  0E00               	movlw	0
  3001  000656  6F96               	movwf	(POST@data+5)& (0+255),b
  3002  000658  0E00               	movlw	0
  3003  00065A  6F97               	movwf	(POST@data+6)& (0+255),b
  3004  00065C  0E00               	movlw	0
  3005  00065E  6F98               	movwf	(POST@data+7)& (0+255),b
  3006  000660  ECD5  F010         	call	_POST	;wreg free
  3007                           
  3008                           ;driveControl/commControl.c: 173:                     break;
  3009  000664  EFB4  F004         	goto	l250
  3010  000668                     l4939:
  3011                           
  3012                           ; BSR set to: 0
  3013                           ;driveControl/commControl.c: 175:                     readCANFrame(me, &(me->msg));
  3014  000668  C0C0  F0A9         	movff	commControl_processEvent@me,readCANFrame@me
  3015  00066C  C0C1  F0AA         	movff	commControl_processEvent@me+1,readCANFrame@me+1
  3016  000670  0E02               	movlw	2
  3017  000672  25C0               	addwf	commControl_processEvent@me& (0+255),w,b
  3018  000674  6FAB               	movwf	readCANFrame@msg& (0+255),b
  3019  000676  0E00               	movlw	0
  3020  000678  21C1               	addwfc	(commControl_processEvent@me+1)& (0+255),w,b
  3021  00067A  6FAC               	movwf	(readCANFrame@msg+1)& (0+255),b
  3022  00067C  ECA3  F00B         	call	_readCANFrame	;wreg free
  3023                           
  3024                           ;driveControl/commControl.c: 176:                     break;
  3025  000680  EFB4  F004         	goto	l250
  3026  000684                     l4941:
  3027                           
  3028                           ; BSR set to: 0
  3029                           ;driveControl/commControl.c: 178:                     if(me->msg.frame.rtr == 1){
  3030  000684  EE20 F010          	lfsr	2,16
  3031  000688  51C0               	movf	commControl_processEvent@me& (0+255),w,b
  3032  00068A  26D9               	addwf	fsr2l,f,c
  3033  00068C  51C1               	movf	(commControl_processEvent@me+1)& (0+255),w,b
  3034  00068E  22DA               	addwfc	fsr2h,f,c
  3035  000690  04DE               	decf	postinc2,w,c
  3036  000692  A4D8               	btfss	status,2,c
  3037  000694  EF4E  F003         	goto	u2521
  3038  000698  EF50  F003         	goto	u2520
  3039  00069C                     u2521:
  3040  00069C  EF72  F003         	goto	l4945
  3041  0006A0                     u2520:
  3042  0006A0                     
  3043                           ; BSR set to: 0
  3044                           ;driveControl/commControl.c: 179:                         POST(me, &commControl_processE
      +                          vent, evGetSteering, 0, 0);
  3045  0006A0  C0C0  F08A         	movff	commControl_processEvent@me,POST@target
  3046  0006A4  C0C1  F08B         	movff	commControl_processEvent@me+1,POST@target+1
  3047  0006A8  0E1E               	movlw	low _commControl_processEvent
  3048  0006AA  6F8C               	movwf	POST@processEvent& (0+255),b
  3049  0006AC  0E00               	movlw	high _commControl_processEvent
  3050  0006AE  6F8D               	movwf	(POST@processEvent+1)& (0+255),b
  3051  0006B0  0E2D               	movlw	45
  3052  0006B2  6F8E               	movwf	POST@id& (0+255),b
  3053  0006B4  0E00               	movlw	0
  3054  0006B6  6F90               	movwf	(POST@delay+1)& (0+255),b
  3055  0006B8  0E00               	movlw	0
  3056  0006BA  6F8F               	movwf	POST@delay& (0+255),b
  3057  0006BC  0E00               	movlw	0
  3058  0006BE  6F91               	movwf	POST@data& (0+255),b
  3059  0006C0  0E00               	movlw	0
  3060  0006C2  6F92               	movwf	(POST@data+1)& (0+255),b
  3061  0006C4  0E00               	movlw	0
  3062  0006C6  6F93               	movwf	(POST@data+2)& (0+255),b
  3063  0006C8  0E00               	movlw	0
  3064  0006CA  6F94               	movwf	(POST@data+3)& (0+255),b
  3065  0006CC  0E00               	movlw	0
  3066  0006CE  6F95               	movwf	(POST@data+4)& (0+255),b
  3067  0006D0  0E00               	movlw	0
  3068  0006D2  6F96               	movwf	(POST@data+5)& (0+255),b
  3069  0006D4  0E00               	movlw	0
  3070  0006D6  6F97               	movwf	(POST@data+6)& (0+255),b
  3071  0006D8  0E00               	movlw	0
  3072  0006DA  6F98               	movwf	(POST@data+7)& (0+255),b
  3073  0006DC  ECD5  F010         	call	_POST	;wreg free
  3074                           
  3075                           ;driveControl/commControl.c: 180:                     }
  3076  0006E0  EFB4  F004         	goto	l250
  3077  0006E4                     l4945:
  3078                           
  3079                           ; BSR set to: 0
  3080                           ;driveControl/commControl.c: 182:                     setPosition(me, &(me->msg));
  3081  0006E4  C0C0  F060         	movff	commControl_processEvent@me,setPosition@me
  3082  0006E8  C0C1  F061         	movff	commControl_processEvent@me+1,setPosition@me+1
  3083  0006EC  0E02               	movlw	2
  3084  0006EE  25C0               	addwf	commControl_processEvent@me& (0+255),w,b
  3085  0006F0  6F62               	movwf	setPosition@msg& (0+255),b
  3086  0006F2  0E00               	movlw	0
  3087  0006F4  21C1               	addwfc	(commControl_processEvent@me+1)& (0+255),w,b
  3088  0006F6  6F63               	movwf	(setPosition@msg+1)& (0+255),b
  3089  0006F8  ECCA  F01A         	call	_setPosition	;wreg free
  3090  0006FC                     
  3091                           ;driveControl/commControl.c: 183:                     POST(me, &commControl_processEvent
      +                          , evCDefault, 0, 0);
  3092  0006FC  C0C0  F08A         	movff	commControl_processEvent@me,POST@target
  3093  000700  C0C1  F08B         	movff	commControl_processEvent@me+1,POST@target+1
  3094  000704  0E1E               	movlw	low _commControl_processEvent
  3095  000706  0100               	movlb	0	; () banked
  3096  000708  6F8C               	movwf	POST@processEvent& (0+255),b
  3097  00070A  0E00               	movlw	high _commControl_processEvent
  3098  00070C  6F8D               	movwf	(POST@processEvent+1)& (0+255),b
  3099  00070E  0E2C               	movlw	44
  3100  000710  6F8E               	movwf	POST@id& (0+255),b
  3101  000712  0E00               	movlw	0
  3102  000714  6F90               	movwf	(POST@delay+1)& (0+255),b
  3103  000716  0E00               	movlw	0
  3104  000718  6F8F               	movwf	POST@delay& (0+255),b
  3105  00071A  0E00               	movlw	0
  3106  00071C  6F91               	movwf	POST@data& (0+255),b
  3107  00071E  0E00               	movlw	0
  3108  000720  6F92               	movwf	(POST@data+1)& (0+255),b
  3109  000722  0E00               	movlw	0
  3110  000724  6F93               	movwf	(POST@data+2)& (0+255),b
  3111  000726  0E00               	movlw	0
  3112  000728  6F94               	movwf	(POST@data+3)& (0+255),b
  3113  00072A  0E00               	movlw	0
  3114  00072C  6F95               	movwf	(POST@data+4)& (0+255),b
  3115  00072E  0E00               	movlw	0
  3116  000730  6F96               	movwf	(POST@data+5)& (0+255),b
  3117  000732  0E00               	movlw	0
  3118  000734  6F97               	movwf	(POST@data+6)& (0+255),b
  3119  000736  0E00               	movlw	0
  3120  000738  6F98               	movwf	(POST@data+7)& (0+255),b
  3121  00073A  ECD5  F010         	call	_POST	;wreg free
  3122  00073E  EFB4  F004         	goto	l250
  3123  000742                     l4949:
  3124                           
  3125                           ; BSR set to: 0
  3126                           ;driveControl/commControl.c: 187:                     getPositionFrame(me);
  3127  000742  C0C0  F07B         	movff	commControl_processEvent@me,getPositionFrame@me
  3128  000746  C0C1  F07C         	movff	commControl_processEvent@me+1,getPositionFrame@me+1
  3129  00074A  EC7C  F018         	call	_getPositionFrame	;wreg free
  3130  00074E                     
  3131                           ;driveControl/commControl.c: 188:                     POST(me, &commControl_processEvent
      +                          , evCDefault, 0, 0);
  3132  00074E  C0C0  F08A         	movff	commControl_processEvent@me,POST@target
  3133  000752  C0C1  F08B         	movff	commControl_processEvent@me+1,POST@target+1
  3134  000756  0E1E               	movlw	low _commControl_processEvent
  3135  000758  0100               	movlb	0	; () banked
  3136  00075A  6F8C               	movwf	POST@processEvent& (0+255),b
  3137  00075C  0E00               	movlw	high _commControl_processEvent
  3138  00075E  6F8D               	movwf	(POST@processEvent+1)& (0+255),b
  3139  000760  0E2C               	movlw	44
  3140  000762  6F8E               	movwf	POST@id& (0+255),b
  3141  000764  0E00               	movlw	0
  3142  000766  6F90               	movwf	(POST@delay+1)& (0+255),b
  3143  000768  0E00               	movlw	0
  3144  00076A  6F8F               	movwf	POST@delay& (0+255),b
  3145  00076C  0E00               	movlw	0
  3146  00076E  6F91               	movwf	POST@data& (0+255),b
  3147  000770  0E00               	movlw	0
  3148  000772  6F92               	movwf	(POST@data+1)& (0+255),b
  3149  000774  0E00               	movlw	0
  3150  000776  6F93               	movwf	(POST@data+2)& (0+255),b
  3151  000778  0E00               	movlw	0
  3152  00077A  6F94               	movwf	(POST@data+3)& (0+255),b
  3153  00077C  0E00               	movlw	0
  3154  00077E  6F95               	movwf	(POST@data+4)& (0+255),b
  3155  000780  0E00               	movlw	0
  3156  000782  6F96               	movwf	(POST@data+5)& (0+255),b
  3157  000784  0E00               	movlw	0
  3158  000786  6F97               	movwf	(POST@data+6)& (0+255),b
  3159  000788  0E00               	movlw	0
  3160  00078A  6F98               	movwf	(POST@data+7)& (0+255),b
  3161  00078C  ECD5  F010         	call	_POST	;wreg free
  3162                           
  3163                           ;driveControl/commControl.c: 189:                     break;
  3164  000790  EFB4  F004         	goto	l250
  3165  000794                     l4953:
  3166                           
  3167                           ; BSR set to: 0
  3168                           ;driveControl/commControl.c: 191:                     steeringSetup(me, &(me->msg));
  3169  000794  C0C0  F07B         	movff	commControl_processEvent@me,steeringSetup@me
  3170  000798  C0C1  F07C         	movff	commControl_processEvent@me+1,steeringSetup@me+1
  3171  00079C  0E02               	movlw	2
  3172  00079E  25C0               	addwf	commControl_processEvent@me& (0+255),w,b
  3173  0007A0  6F7D               	movwf	steeringSetup@msg& (0+255),b
  3174  0007A2  0E00               	movlw	0
  3175  0007A4  21C1               	addwfc	(commControl_processEvent@me+1)& (0+255),w,b
  3176  0007A6  6F7E               	movwf	(steeringSetup@msg+1)& (0+255),b
  3177  0007A8  ECEA  F012         	call	_steeringSetup	;wreg free
  3178  0007AC                     
  3179                           ;driveControl/commControl.c: 192:                     POST(me, &commControl_processEvent
      +                          , evCDefault, 0, 0);
  3180  0007AC  C0C0  F08A         	movff	commControl_processEvent@me,POST@target
  3181  0007B0  C0C1  F08B         	movff	commControl_processEvent@me+1,POST@target+1
  3182  0007B4  0E1E               	movlw	low _commControl_processEvent
  3183  0007B6  0100               	movlb	0	; () banked
  3184  0007B8  6F8C               	movwf	POST@processEvent& (0+255),b
  3185  0007BA  0E00               	movlw	high _commControl_processEvent
  3186  0007BC  6F8D               	movwf	(POST@processEvent+1)& (0+255),b
  3187  0007BE  0E2C               	movlw	44
  3188  0007C0  6F8E               	movwf	POST@id& (0+255),b
  3189  0007C2  0E00               	movlw	0
  3190  0007C4  6F90               	movwf	(POST@delay+1)& (0+255),b
  3191  0007C6  0E00               	movlw	0
  3192  0007C8  6F8F               	movwf	POST@delay& (0+255),b
  3193  0007CA  0E00               	movlw	0
  3194  0007CC  6F91               	movwf	POST@data& (0+255),b
  3195  0007CE  0E00               	movlw	0
  3196  0007D0  6F92               	movwf	(POST@data+1)& (0+255),b
  3197  0007D2  0E00               	movlw	0
  3198  0007D4  6F93               	movwf	(POST@data+2)& (0+255),b
  3199  0007D6  0E00               	movlw	0
  3200  0007D8  6F94               	movwf	(POST@data+3)& (0+255),b
  3201  0007DA  0E00               	movlw	0
  3202  0007DC  6F95               	movwf	(POST@data+4)& (0+255),b
  3203  0007DE  0E00               	movlw	0
  3204  0007E0  6F96               	movwf	(POST@data+5)& (0+255),b
  3205  0007E2  0E00               	movlw	0
  3206  0007E4  6F97               	movwf	(POST@data+6)& (0+255),b
  3207  0007E6  0E00               	movlw	0
  3208  0007E8  6F98               	movwf	(POST@data+7)& (0+255),b
  3209  0007EA  ECD5  F010         	call	_POST	;wreg free
  3210                           
  3211                           ;driveControl/commControl.c: 193:                     break;
  3212  0007EE  EFB4  F004         	goto	l250
  3213  0007F2                     l4957:
  3214                           
  3215                           ; BSR set to: 0
  3216                           ;driveControl/commControl.c: 195:                     if(me->msg.frame.rtr == 1){
  3217  0007F2  EE20 F010          	lfsr	2,16
  3218  0007F6  51C0               	movf	commControl_processEvent@me& (0+255),w,b
  3219  0007F8  26D9               	addwf	fsr2l,f,c
  3220  0007FA  51C1               	movf	(commControl_processEvent@me+1)& (0+255),w,b
  3221  0007FC  22DA               	addwfc	fsr2h,f,c
  3222  0007FE  04DE               	decf	postinc2,w,c
  3223  000800  A4D8               	btfss	status,2,c
  3224  000802  EF05  F004         	goto	u2531
  3225  000806  EF07  F004         	goto	u2530
  3226  00080A                     u2531:
  3227  00080A  EF29  F004         	goto	l4961
  3228  00080E                     u2530:
  3229  00080E                     
  3230                           ; BSR set to: 0
  3231                           ;driveControl/commControl.c: 196:                         POST(me, &commControl_processE
      +                          vent, evGetCenter, 0, 0);
  3232  00080E  C0C0  F08A         	movff	commControl_processEvent@me,POST@target
  3233  000812  C0C1  F08B         	movff	commControl_processEvent@me+1,POST@target+1
  3234  000816  0E1E               	movlw	low _commControl_processEvent
  3235  000818  6F8C               	movwf	POST@processEvent& (0+255),b
  3236  00081A  0E00               	movlw	high _commControl_processEvent
  3237  00081C  6F8D               	movwf	(POST@processEvent+1)& (0+255),b
  3238  00081E  0E2E               	movlw	46
  3239  000820  6F8E               	movwf	POST@id& (0+255),b
  3240  000822  0E00               	movlw	0
  3241  000824  6F90               	movwf	(POST@delay+1)& (0+255),b
  3242  000826  0E00               	movlw	0
  3243  000828  6F8F               	movwf	POST@delay& (0+255),b
  3244  00082A  0E00               	movlw	0
  3245  00082C  6F91               	movwf	POST@data& (0+255),b
  3246  00082E  0E00               	movlw	0
  3247  000830  6F92               	movwf	(POST@data+1)& (0+255),b
  3248  000832  0E00               	movlw	0
  3249  000834  6F93               	movwf	(POST@data+2)& (0+255),b
  3250  000836  0E00               	movlw	0
  3251  000838  6F94               	movwf	(POST@data+3)& (0+255),b
  3252  00083A  0E00               	movlw	0
  3253  00083C  6F95               	movwf	(POST@data+4)& (0+255),b
  3254  00083E  0E00               	movlw	0
  3255  000840  6F96               	movwf	(POST@data+5)& (0+255),b
  3256  000842  0E00               	movlw	0
  3257  000844  6F97               	movwf	(POST@data+6)& (0+255),b
  3258  000846  0E00               	movlw	0
  3259  000848  6F98               	movwf	(POST@data+7)& (0+255),b
  3260  00084A  ECD5  F010         	call	_POST	;wreg free
  3261                           
  3262                           ;driveControl/commControl.c: 197:                     }
  3263  00084E  EFB4  F004         	goto	l250
  3264  000852                     l4961:
  3265                           
  3266                           ; BSR set to: 0
  3267                           ;driveControl/commControl.c: 199:                         setCenter(me, &(me->msg));
  3268  000852  C0C0  F068         	movff	commControl_processEvent@me,setCenter@me
  3269  000856  C0C1  F069         	movff	commControl_processEvent@me+1,setCenter@me+1
  3270  00085A  0E02               	movlw	2
  3271  00085C  25C0               	addwf	commControl_processEvent@me& (0+255),w,b
  3272  00085E  6F6A               	movwf	setCenter@msg& (0+255),b
  3273  000860  0E00               	movlw	0
  3274  000862  21C1               	addwfc	(commControl_processEvent@me+1)& (0+255),w,b
  3275  000864  6F6B               	movwf	(setCenter@msg+1)& (0+255),b
  3276  000866  EC3C  F013         	call	_setCenter	;wreg free
  3277  00086A                     
  3278                           ;driveControl/commControl.c: 200:                         POST(me, &commControl_processE
      +                          vent, evCDefault, 0 ,0);
  3279  00086A  C0C0  F08A         	movff	commControl_processEvent@me,POST@target
  3280  00086E  C0C1  F08B         	movff	commControl_processEvent@me+1,POST@target+1
  3281  000872  0E1E               	movlw	low _commControl_processEvent
  3282  000874  0100               	movlb	0	; () banked
  3283  000876  6F8C               	movwf	POST@processEvent& (0+255),b
  3284  000878  0E00               	movlw	high _commControl_processEvent
  3285  00087A  6F8D               	movwf	(POST@processEvent+1)& (0+255),b
  3286  00087C  0E2C               	movlw	44
  3287  00087E  6F8E               	movwf	POST@id& (0+255),b
  3288  000880  0E00               	movlw	0
  3289  000882  6F90               	movwf	(POST@delay+1)& (0+255),b
  3290  000884  0E00               	movlw	0
  3291  000886  6F8F               	movwf	POST@delay& (0+255),b
  3292  000888  0E00               	movlw	0
  3293  00088A  6F91               	movwf	POST@data& (0+255),b
  3294  00088C  0E00               	movlw	0
  3295  00088E  6F92               	movwf	(POST@data+1)& (0+255),b
  3296  000890  0E00               	movlw	0
  3297  000892  6F93               	movwf	(POST@data+2)& (0+255),b
  3298  000894  0E00               	movlw	0
  3299  000896  6F94               	movwf	(POST@data+3)& (0+255),b
  3300  000898  0E00               	movlw	0
  3301  00089A  6F95               	movwf	(POST@data+4)& (0+255),b
  3302  00089C  0E00               	movlw	0
  3303  00089E  6F96               	movwf	(POST@data+5)& (0+255),b
  3304  0008A0  0E00               	movlw	0
  3305  0008A2  6F97               	movwf	(POST@data+6)& (0+255),b
  3306  0008A4  0E00               	movlw	0
  3307  0008A6  6F98               	movwf	(POST@data+7)& (0+255),b
  3308  0008A8  ECD5  F010         	call	_POST	;wreg free
  3309  0008AC  EFB4  F004         	goto	l250
  3310  0008B0                     l4965:
  3311                           
  3312                           ; BSR set to: 0
  3313                           ;driveControl/commControl.c: 204:                     getCenterFrame(me);
  3314  0008B0  C0C0  F07B         	movff	commControl_processEvent@me,getCenterFrame@me
  3315  0008B4  C0C1  F07C         	movff	commControl_processEvent@me+1,getCenterFrame@me+1
  3316  0008B8  ECD4  F013         	call	_getCenterFrame	;wreg free
  3317  0008BC                     
  3318                           ;driveControl/commControl.c: 205:                     POST(me, &commControl_processEvent
      +                          , evCDefault, 0 ,0);
  3319  0008BC  C0C0  F08A         	movff	commControl_processEvent@me,POST@target
  3320  0008C0  C0C1  F08B         	movff	commControl_processEvent@me+1,POST@target+1
  3321  0008C4  0E1E               	movlw	low _commControl_processEvent
  3322  0008C6  0100               	movlb	0	; () banked
  3323  0008C8  6F8C               	movwf	POST@processEvent& (0+255),b
  3324  0008CA  0E00               	movlw	high _commControl_processEvent
  3325  0008CC  6F8D               	movwf	(POST@processEvent+1)& (0+255),b
  3326  0008CE  0E2C               	movlw	44
  3327  0008D0  6F8E               	movwf	POST@id& (0+255),b
  3328  0008D2  0E00               	movlw	0
  3329  0008D4  6F90               	movwf	(POST@delay+1)& (0+255),b
  3330  0008D6  0E00               	movlw	0
  3331  0008D8  6F8F               	movwf	POST@delay& (0+255),b
  3332  0008DA  0E00               	movlw	0
  3333  0008DC  6F91               	movwf	POST@data& (0+255),b
  3334  0008DE  0E00               	movlw	0
  3335  0008E0  6F92               	movwf	(POST@data+1)& (0+255),b
  3336  0008E2  0E00               	movlw	0
  3337  0008E4  6F93               	movwf	(POST@data+2)& (0+255),b
  3338  0008E6  0E00               	movlw	0
  3339  0008E8  6F94               	movwf	(POST@data+3)& (0+255),b
  3340  0008EA  0E00               	movlw	0
  3341  0008EC  6F95               	movwf	(POST@data+4)& (0+255),b
  3342  0008EE  0E00               	movlw	0
  3343  0008F0  6F96               	movwf	(POST@data+5)& (0+255),b
  3344  0008F2  0E00               	movlw	0
  3345  0008F4  6F97               	movwf	(POST@data+6)& (0+255),b
  3346  0008F6  0E00               	movlw	0
  3347  0008F8  6F98               	movwf	(POST@data+7)& (0+255),b
  3348  0008FA  ECD5  F010         	call	_POST	;wreg free
  3349                           
  3350                           ;driveControl/commControl.c: 206:                     break;
  3351  0008FE  EFB4  F004         	goto	l250
  3352  000902                     l4971:
  3353                           
  3354                           ; BSR set to: 0
  3355  000902  0060  F303  FFD9   	movff	commControl_processEvent@me,fsr2l
  3356  000908  0060  F307  FFDA   	movff	commControl_processEvent@me+1,fsr2h
  3357  00090E  50DF               	movf	indf2,w,c
  3358  000910  6FB3               	movwf	??_commControl_processEvent& (0+255),b
  3359  000912  6BB4               	clrf	(??_commControl_processEvent+1)& (0+255),b
  3360                           
  3361                           ; Switch on 2 bytes has been partitioned into a top level switch of size 1, and 1 sub-sw
      +                          itches
  3362                           ; Switch size 1, requested type "simple"
  3363                           ; Number of cases is 1, Range of values is 0 to 0
  3364                           ; switch strategies available:
  3365                           ; Name         Instructions Cycles
  3366                           ; simple_byte            4     3 (average)
  3367                           ;	Chosen strategy is simple_byte
  3368  000914  51B4               	movf	(??_commControl_processEvent+1)& (0+255),w,b
  3369  000916  0A00               	xorlw	0	; case 0
  3370  000918  B4D8               	btfsc	status,2,c
  3371  00091A  EF91  F004         	goto	l6043
  3372  00091E  EFB4  F004         	goto	l234
  3373  000922                     l6043:
  3374                           
  3375                           ; BSR set to: 0
  3376                           ; Switch size 1, requested type "simple"
  3377                           ; Number of cases is 8, Range of values is 10 to 17
  3378                           ; switch strategies available:
  3379                           ; Name         Instructions Cycles
  3380                           ; simple_byte           25    13 (average)
  3381                           ;	Chosen strategy is simple_byte
  3382  000922  51B3               	movf	??_commControl_processEvent& (0+255),w,b
  3383  000924  0A0A               	xorlw	10	; case 10
  3384  000926  B4D8               	btfsc	status,2,c
  3385  000928  EFB4  F004         	goto	l234
  3386  00092C  0A01               	xorlw	1	; case 11
  3387  00092E  B4D8               	btfsc	status,2,c
  3388  000930  EFCA  F003         	goto	l4953
  3389  000934  0A07               	xorlw	7	; case 12
  3390  000936  B4D8               	btfsc	status,2,c
  3391  000938  EF12  F003         	goto	l4937
  3392  00093C  0A01               	xorlw	1	; case 13
  3393  00093E  B4D8               	btfsc	status,2,c
  3394  000940  EF34  F003         	goto	l4939
  3395  000944  0A03               	xorlw	3	; case 14
  3396  000946  B4D8               	btfsc	status,2,c
  3397  000948  EF42  F003         	goto	l4941
  3398  00094C  0A01               	xorlw	1	; case 15
  3399  00094E  B4D8               	btfsc	status,2,c
  3400  000950  EFA1  F003         	goto	l4949
  3401  000954  0A1F               	xorlw	31	; case 16
  3402  000956  B4D8               	btfsc	status,2,c
  3403  000958  EFF9  F003         	goto	l4957
  3404  00095C  0A01               	xorlw	1	; case 17
  3405  00095E  B4D8               	btfsc	status,2,c
  3406  000960  EF58  F004         	goto	l4965
  3407  000964  EFB4  F004         	goto	l234
  3408  000968                     l234:
  3409  000968                     l250:
  3410  000968  0012               	return		;funcret
  3411  00096A                     __end_of_commControl_processEvent:
  3412                           	callstack 0
  3413                           
  3414 ;; *************** function _steeringSetup *****************
  3415 ;; Defined at:
  3416 ;;		line 250 in file "driveControl/commControl.c"
  3417 ;; Parameters:    Size  Location     Type
  3418 ;;  me              2   27[BANK0 ] PTR struct CommControl_
  3419 ;;		 -> theFactory(233), NULL(0), 
  3420 ;;  msg             2   29[BANK0 ] PTR struct .
  3421 ;;		 -> theFactory(233), NULL(0), 
  3422 ;; Auto vars:     Size  Location     Type
  3423 ;;  msgs           15   31[BANK0 ] struct .
  3424 ;; Return value:  Size  Location     Type
  3425 ;;                  1    wreg      void 
  3426 ;; Registers used:
  3427 ;;		wreg, fsr2l, fsr2h, status,2, status,0, cstack
  3428 ;; Tracked objects:
  3429 ;;		On entry : 0/0
  3430 ;;		On exit  : 0/0
  3431 ;;		Unchanged: 0/0
  3432 ;; Data sizes:     COMRAM   BANK0   BANK1   BANK2   BANK3   BANK4   BANK5   BANK6   BANK7   BANK8   BANK9  BANK10  BANK1
      +1  BANK12  BANK13  BANK14  BANK15
  3433 ;;      Params:         0       4       0       0       0       0       0       0       0       0       0       0       
      +0       0       0       0       0
  3434 ;;      Locals:         0      15       0       0       0       0       0       0       0       0       0       0       
      +0       0       0       0       0
  3435 ;;      Temps:          0       0       0       0       0       0       0       0       0       0       0       0       
      +0       0       0       0       0
  3436 ;;      Totals:         0      19       0       0       0       0       0       0       0       0       0       0       
      +0       0       0       0       0
  3437 ;;Total ram usage:       19 bytes
  3438 ;; Hardware stack levels used: 1
  3439 ;; Hardware stack levels required when called: 8
  3440 ;; This function calls:
  3441 ;;		_CAN_transmit
  3442 ;;		_st
  3443 ;;		_store_write
  3444 ;; This function is called by:
  3445 ;;		_commControl_processEvent
  3446 ;; This function uses a non-reentrant model
  3447 ;;
  3448                           
  3449                           	psect	text6
  3450  0025D4                     __ptext6:
  3451                           	callstack 0
  3452  0025D4                     _steeringSetup:
  3453                           	callstack 20
  3454  0025D4                     
  3455                           ;driveControl/commControl.c: 251:     uCAN_MSG msgs;;driveControl/commControl.c: 252:   
      +                            msgs.frame.idType = 1;
  3456  0025D4  0E01               	movlw	1
  3457  0025D6  0100               	movlb	0	; () banked
  3458  0025D8  6F7F               	movwf	steeringSetup@msgs& (0+255),b
  3459                           
  3460                           ;driveControl/commControl.c: 253:     msgs.frame.id = 0x510;
  3461  0025DA  0E10               	movlw	16
  3462  0025DC  6F80               	movwf	(steeringSetup@msgs+1)& (0+255),b
  3463  0025DE  0E05               	movlw	5
  3464  0025E0  6F81               	movwf	(steeringSetup@msgs+2)& (0+255),b
  3465  0025E2  0E00               	movlw	0
  3466  0025E4  6F82               	movwf	(steeringSetup@msgs+3)& (0+255),b
  3467  0025E6  0E00               	movlw	0
  3468  0025E8  6F83               	movwf	(steeringSetup@msgs+4)& (0+255),b
  3469                           
  3470                           ;driveControl/commControl.c: 254:     msgs.frame.dlc = 2;
  3471  0025EA  0E02               	movlw	2
  3472  0025EC  6F84               	movwf	(steeringSetup@msgs+5)& (0+255),b
  3473                           
  3474                           ;driveControl/commControl.c: 255:     msgs.frame.data0 = 99;
  3475  0025EE  0E63               	movlw	99
  3476  0025F0  6F85               	movwf	(steeringSetup@msgs+6)& (0+255),b
  3477                           
  3478                           ;driveControl/commControl.c: 256:     msgs.frame.data1 = 99;
  3479  0025F2  0E63               	movlw	99
  3480  0025F4  6F86               	movwf	(steeringSetup@msgs+7)& (0+255),b
  3481                           
  3482                           ;driveControl/commControl.c: 257:     msgs.frame.rtr = 0;
  3483  0025F6  0E00               	movlw	0
  3484  0025F8  6F8D               	movwf	(steeringSetup@msgs+14)& (0+255),b
  3485  0025FA                     
  3486                           ; BSR set to: 0
  3487                           ;driveControl/commControl.c: 272:     if(msg->frame.data1 != 0){
  3488  0025FA  EE20 F007          	lfsr	2,7
  3489  0025FE  517D               	movf	steeringSetup@msg& (0+255),w,b
  3490  002600  26D9               	addwf	fsr2l,f,c
  3491  002602  517E               	movf	(steeringSetup@msg+1)& (0+255),w,b
  3492  002604  22DA               	addwfc	fsr2h,f,c
  3493  002606  50DF               	movf	indf2,w,c
  3494  002608  B4D8               	btfsc	status,2,c
  3495  00260A  EF09  F013         	goto	u2151
  3496  00260E  EF0B  F013         	goto	u2150
  3497  002612                     u2151:
  3498  002612  EF22  F013         	goto	l4615
  3499  002616                     u2150:
  3500  002616                     
  3501                           ; BSR set to: 0
  3502                           ;driveControl/commControl.c: 275:         msgs.frame.data0 = 1;
  3503  002616  0E01               	movlw	1
  3504  002618  6F85               	movwf	(steeringSetup@msgs+6)& (0+255),b
  3505                           
  3506                           ;driveControl/commControl.c: 276:         msgs.frame.data1 = 1;
  3507  00261A  0E01               	movlw	1
  3508  00261C  6F86               	movwf	(steeringSetup@msgs+7)& (0+255),b
  3509  00261E                     
  3510                           ; BSR set to: 0
  3511                           ;driveControl/commControl.c: 277:         CAN_transmit(&msgs);
  3512  00261E  0E7F               	movlw	low steeringSetup@msgs
  3513  002620  6F72               	movwf	CAN_transmit@tempCanMsg& (0+255),b
  3514  002622  0E00               	movlw	high steeringSetup@msgs
  3515  002624  6F73               	movwf	(CAN_transmit@tempCanMsg+1)& (0+255),b
  3516  002626  EC00  F007         	call	_CAN_transmit	;wreg free
  3517  00262A                     
  3518                           ;driveControl/commControl.c: 282:         msgs.frame.data0 = 2;
  3519  00262A  0E02               	movlw	2
  3520  00262C  0100               	movlb	0	; () banked
  3521  00262E  6F85               	movwf	(steeringSetup@msgs+6)& (0+255),b
  3522  002630                     
  3523                           ; BSR set to: 0
  3524                           ;driveControl/commControl.c: 283:         msgs.frame.data1 = 0;
  3525  002630  0E00               	movlw	0
  3526  002632  6F86               	movwf	(steeringSetup@msgs+7)& (0+255),b
  3527  002634                     l4613:
  3528                           
  3529                           ; BSR set to: 0
  3530                           ;driveControl/commControl.c: 285:         CAN_transmit(&msgs);
  3531  002634  0E7F               	movlw	low steeringSetup@msgs
  3532  002636  6F72               	movwf	CAN_transmit@tempCanMsg& (0+255),b
  3533  002638  0E00               	movlw	high steeringSetup@msgs
  3534  00263A  6F73               	movwf	(CAN_transmit@tempCanMsg+1)& (0+255),b
  3535  00263C  EC00  F007         	call	_CAN_transmit	;wreg free
  3536                           
  3537                           ;driveControl/commControl.c: 286:     }else{
  3538  002640  EF28  F013         	goto	l4621
  3539  002644                     l4615:
  3540                           
  3541                           ; BSR set to: 0
  3542                           ;driveControl/commControl.c: 287:         msgs.frame.data0 = 0;
  3543  002644  0E00               	movlw	0
  3544  002646  6F85               	movwf	(steeringSetup@msgs+6)& (0+255),b
  3545                           
  3546                           ;driveControl/commControl.c: 288:         msgs.frame.data1 = 2;
  3547  002648  0E02               	movlw	2
  3548  00264A  6F86               	movwf	(steeringSetup@msgs+7)& (0+255),b
  3549  00264C  EF1A  F013         	goto	l4613
  3550  002650                     l4621:
  3551                           
  3552                           ;driveControl/commControl.c: 301:     store_write(st(), EE_ALIVE_TIME, msg->frame.data3)
      +                          ;
  3553  002650  EC8A  F01A         	call	_st	;wreg free
  3554  002654  C060  F064         	movff	?_st,store_write@me
  3555  002658  C061  F065         	movff	?_st+1,store_write@me+1
  3556  00265C  0E01               	movlw	1
  3557  00265E  0100               	movlb	0	; () banked
  3558  002660  6F66               	movwf	store_write@item& (0+255),b
  3559  002662  EE20 F009          	lfsr	2,9
  3560  002666  517D               	movf	steeringSetup@msg& (0+255),w,b
  3561  002668  26D9               	addwf	fsr2l,f,c
  3562  00266A  517E               	movf	(steeringSetup@msg+1)& (0+255),w,b
  3563  00266C  22DA               	addwfc	fsr2h,f,c
  3564  00266E  50DF               	movf	indf2,w,c
  3565  002670  6F67               	movwf	store_write@value& (0+255),b
  3566  002672  ECD5  F018         	call	_store_write	;wreg free
  3567  002676  0012               	return		;funcret
  3568  002678                     __end_of_steeringSetup:
  3569                           	callstack 0
  3570                           
  3571 ;; *************** function _setPosition *****************
  3572 ;; Defined at:
  3573 ;;		line 373 in file "driveControl/commControl.c"
  3574 ;; Parameters:    Size  Location     Type
  3575 ;;  me              2    0[BANK0 ] PTR struct CommControl_
  3576 ;;		 -> theFactory(233), NULL(0), 
  3577 ;;  msg             2    2[BANK0 ] PTR struct .
  3578 ;;		 -> theFactory(233), NULL(0), 
  3579 ;; Auto vars:     Size  Location     Type
  3580 ;;  position        4    0        unsigned long 
  3581 ;; Return value:  Size  Location     Type
  3582 ;;                  1    wreg      void 
  3583 ;; Registers used:
  3584 ;;		wreg, fsr2l, fsr2h, status,2, status,0
  3585 ;; Tracked objects:
  3586 ;;		On entry : 0/0
  3587 ;;		On exit  : 0/0
  3588 ;;		Unchanged: 0/0
  3589 ;; Data sizes:     COMRAM   BANK0   BANK1   BANK2   BANK3   BANK4   BANK5   BANK6   BANK7   BANK8   BANK9  BANK10  BANK1
      +1  BANK12  BANK13  BANK14  BANK15
  3590 ;;      Params:         0       4       0       0       0       0       0       0       0       0       0       0       
      +0       0       0       0       0
  3591 ;;      Locals:         0       0       0       0       0       0       0       0       0       0       0       0       
      +0       0       0       0       0
  3592 ;;      Temps:          0       0       0       0       0       0       0       0       0       0       0       0       
      +0       0       0       0       0
  3593 ;;      Totals:         0       4       0       0       0       0       0       0       0       0       0       0       
      +0       0       0       0       0
  3594 ;;Total ram usage:        4 bytes
  3595 ;; Hardware stack levels used: 1
  3596 ;; Hardware stack levels required when called: 6
  3597 ;; This function calls:
  3598 ;;		Nothing
  3599 ;; This function is called by:
  3600 ;;		_commControl_processEvent
  3601 ;; This function uses a non-reentrant model
  3602 ;;
  3603                           
  3604                           	psect	text7
  3605  003594                     __ptext7:
  3606                           	callstack 0
  3607  003594                     _setPosition:
  3608                           	callstack 22
  3609  003594  0012               	return		;funcret
  3610  003596                     __end_of_setPosition:
  3611                           	callstack 0
  3612                           
  3613 ;; *************** function _setCenter *****************
  3614 ;; Defined at:
  3615 ;;		line 334 in file "driveControl/commControl.c"
  3616 ;; Parameters:    Size  Location     Type
  3617 ;;  me              2    8[BANK0 ] PTR struct CommControl_
  3618 ;;		 -> theFactory(233), NULL(0), 
  3619 ;;  msg             2   10[BANK0 ] PTR struct .
  3620 ;;		 -> theFactory(233), NULL(0), 
  3621 ;; Auto vars:     Size  Location     Type
  3622 ;;  position        4    0        unsigned long 
  3623 ;; Return value:  Size  Location     Type
  3624 ;;                  1    wreg      void 
  3625 ;; Registers used:
  3626 ;;		wreg, fsr2l, fsr2h, status,2, status,0, cstack
  3627 ;; Tracked objects:
  3628 ;;		On entry : 0/0
  3629 ;;		On exit  : 0/0
  3630 ;;		Unchanged: 0/0
  3631 ;; Data sizes:     COMRAM   BANK0   BANK1   BANK2   BANK3   BANK4   BANK5   BANK6   BANK7   BANK8   BANK9  BANK10  BANK1
      +1  BANK12  BANK13  BANK14  BANK15
  3632 ;;      Params:         0       4       0       0       0       0       0       0       0       0       0       0       
      +0       0       0       0       0
  3633 ;;      Locals:         0       0       0       0       0       0       0       0       0       0       0       0       
      +0       0       0       0       0
  3634 ;;      Temps:          0       0       0       0       0       0       0       0       0       0       0       0       
      +0       0       0       0       0
  3635 ;;      Totals:         0       4       0       0       0       0       0       0       0       0       0       0       
      +0       0       0       0       0
  3636 ;;Total ram usage:        4 bytes
  3637 ;; Hardware stack levels used: 1
  3638 ;; Hardware stack levels required when called: 8
  3639 ;; This function calls:
  3640 ;;		_st
  3641 ;;		_store_write
  3642 ;; This function is called by:
  3643 ;;		_commControl_processEvent
  3644 ;; This function uses a non-reentrant model
  3645 ;;
  3646                           
  3647                           	psect	text8
  3648  002678                     __ptext8:
  3649                           	callstack 0
  3650  002678                     _setCenter:
  3651                           	callstack 20
  3652  002678                     
  3653                           ;driveControl/commControl.c: 338:     store_write(st(), EE_CENTER_LL, msg->frame.data3);
  3654  002678  EC8A  F01A         	call	_st	;wreg free
  3655  00267C  C060  F064         	movff	?_st,store_write@me
  3656  002680  C061  F065         	movff	?_st+1,store_write@me+1
  3657  002684  0E02               	movlw	2
  3658  002686  0100               	movlb	0	; () banked
  3659  002688  6F66               	movwf	store_write@item& (0+255),b
  3660  00268A  EE20 F009          	lfsr	2,9
  3661  00268E  516A               	movf	setCenter@msg& (0+255),w,b
  3662  002690  26D9               	addwf	fsr2l,f,c
  3663  002692  516B               	movf	(setCenter@msg+1)& (0+255),w,b
  3664  002694  22DA               	addwfc	fsr2h,f,c
  3665  002696  50DF               	movf	indf2,w,c
  3666  002698  6F67               	movwf	store_write@value& (0+255),b
  3667  00269A  ECD5  F018         	call	_store_write	;wreg free
  3668  00269E                     
  3669                           ;driveControl/commControl.c: 339:     store_write(st(), EE_CENTER_L, msg->frame.data2);
  3670  00269E  EC8A  F01A         	call	_st	;wreg free
  3671  0026A2  C060  F064         	movff	?_st,store_write@me
  3672  0026A6  C061  F065         	movff	?_st+1,store_write@me+1
  3673  0026AA  0E03               	movlw	3
  3674  0026AC  0100               	movlb	0	; () banked
  3675  0026AE  6F66               	movwf	store_write@item& (0+255),b
  3676  0026B0  EE20 F008          	lfsr	2,8
  3677  0026B4  516A               	movf	setCenter@msg& (0+255),w,b
  3678  0026B6  26D9               	addwf	fsr2l,f,c
  3679  0026B8  516B               	movf	(setCenter@msg+1)& (0+255),w,b
  3680  0026BA  22DA               	addwfc	fsr2h,f,c
  3681  0026BC  50DF               	movf	indf2,w,c
  3682  0026BE  6F67               	movwf	store_write@value& (0+255),b
  3683  0026C0  ECD5  F018         	call	_store_write	;wreg free
  3684  0026C4                     
  3685                           ;driveControl/commControl.c: 340:     store_write(st(), EE_CENTER_H, msg->frame.data1);
  3686  0026C4  EC8A  F01A         	call	_st	;wreg free
  3687  0026C8  C060  F064         	movff	?_st,store_write@me
  3688  0026CC  C061  F065         	movff	?_st+1,store_write@me+1
  3689  0026D0  0E04               	movlw	4
  3690  0026D2  0100               	movlb	0	; () banked
  3691  0026D4  6F66               	movwf	store_write@item& (0+255),b
  3692  0026D6  EE20 F007          	lfsr	2,7
  3693  0026DA  516A               	movf	setCenter@msg& (0+255),w,b
  3694  0026DC  26D9               	addwf	fsr2l,f,c
  3695  0026DE  516B               	movf	(setCenter@msg+1)& (0+255),w,b
  3696  0026E0  22DA               	addwfc	fsr2h,f,c
  3697  0026E2  50DF               	movf	indf2,w,c
  3698  0026E4  6F67               	movwf	store_write@value& (0+255),b
  3699  0026E6  ECD5  F018         	call	_store_write	;wreg free
  3700  0026EA                     
  3701                           ;driveControl/commControl.c: 341:     store_write(st(), EE_CENTER_HH, msg->frame.data0);
  3702  0026EA  EC8A  F01A         	call	_st	;wreg free
  3703  0026EE  C060  F064         	movff	?_st,store_write@me
  3704  0026F2  C061  F065         	movff	?_st+1,store_write@me+1
  3705  0026F6  0E05               	movlw	5
  3706  0026F8  0100               	movlb	0	; () banked
  3707  0026FA  6F66               	movwf	store_write@item& (0+255),b
  3708  0026FC  EE20 F006          	lfsr	2,6
  3709  002700  516A               	movf	setCenter@msg& (0+255),w,b
  3710  002702  26D9               	addwf	fsr2l,f,c
  3711  002704  516B               	movf	(setCenter@msg+1)& (0+255),w,b
  3712  002706  22DA               	addwfc	fsr2h,f,c
  3713  002708  50DF               	movf	indf2,w,c
  3714  00270A  6F67               	movwf	store_write@value& (0+255),b
  3715  00270C  ECD5  F018         	call	_store_write	;wreg free
  3716  002710  0012               	return		;funcret
  3717  002712                     __end_of_setCenter:
  3718                           	callstack 0
  3719                           
  3720 ;; *************** function _store_write *****************
  3721 ;; Defined at:
  3722 ;;		line 36 in file "driveControl/store.c"
  3723 ;; Parameters:    Size  Location     Type
  3724 ;;  me              2    4[BANK0 ] PTR struct Store_
  3725 ;;		 -> theFactory.st_(5), theFactory(233), 
  3726 ;;  item            1    6[BANK0 ] enum E55
  3727 ;;  value           1    7[BANK0 ] unsigned char 
  3728 ;; Auto vars:     Size  Location     Type
  3729 ;;		None
  3730 ;; Return value:  Size  Location     Type
  3731 ;;                  1    wreg      void 
  3732 ;; Registers used:
  3733 ;;		wreg, fsr2l, fsr2h, status,2, status,0, cstack
  3734 ;; Tracked objects:
  3735 ;;		On entry : 0/0
  3736 ;;		On exit  : 0/0
  3737 ;;		Unchanged: 0/0
  3738 ;; Data sizes:     COMRAM   BANK0   BANK1   BANK2   BANK3   BANK4   BANK5   BANK6   BANK7   BANK8   BANK9  BANK10  BANK1
      +1  BANK12  BANK13  BANK14  BANK15
  3739 ;;      Params:         0       4       0       0       0       0       0       0       0       0       0       0       
      +0       0       0       0       0
  3740 ;;      Locals:         0       0       0       0       0       0       0       0       0       0       0       0       
      +0       0       0       0       0
  3741 ;;      Temps:          0       0       0       0       0       0       0       0       0       0       0       0       
      +0       0       0       0       0
  3742 ;;      Totals:         0       4       0       0       0       0       0       0       0       0       0       0       
      +0       0       0       0       0
  3743 ;;Total ram usage:        4 bytes
  3744 ;; Hardware stack levels used: 1
  3745 ;; Hardware stack levels required when called: 7
  3746 ;; This function calls:
  3747 ;;		_DATAEE_WriteByte
  3748 ;; This function is called by:
  3749 ;;		_steeringSetup
  3750 ;;		_setCenter
  3751 ;; This function uses a non-reentrant model
  3752 ;;
  3753                           
  3754                           	psect	text9
  3755  0031AA                     __ptext9:
  3756                           	callstack 0
  3757  0031AA                     _store_write:
  3758                           	callstack 20
  3759  0031AA                     
  3760                           ;driveControl/store.c: 37:     if (item < 5) {
  3761  0031AA  0E05               	movlw	5
  3762  0031AC  0100               	movlb	0	; () banked
  3763  0031AE  6166               	cpfslt	store_write@item& (0+255),b
  3764  0031B0  EFDC  F018         	goto	u1971
  3765  0031B4  EFDE  F018         	goto	u1970
  3766  0031B8                     u1971:
  3767  0031B8  EFEE  F018         	goto	l300
  3768  0031BC                     u1970:
  3769  0031BC                     
  3770                           ; BSR set to: 0
  3771                           ;driveControl/store.c: 38:         me->eeValues[item] = value;
  3772  0031BC  5166               	movf	store_write@item& (0+255),w,b
  3773  0031BE  2564               	addwf	store_write@me& (0+255),w,b
  3774  0031C0  6ED9               	movwf	fsr2l,c
  3775  0031C2  0E00               	movlw	0
  3776  0031C4  2165               	addwfc	(store_write@me+1)& (0+255),w,b
  3777  0031C6  6EDA               	movwf	fsr2h,c
  3778  0031C8  0060  F19F  FFDF   	movff	store_write@value,indf2
  3779  0031CE                     
  3780                           ; BSR set to: 0
  3781                           ;driveControl/store.c: 39:         DATAEE_WriteByte(item, value);
  3782  0031CE  C066  F060         	movff	store_write@item,DATAEE_WriteByte@bAdd
  3783  0031D2  6B61               	clrf	(DATAEE_WriteByte@bAdd+1)& (0+255),b
  3784  0031D4  C067  F062         	movff	store_write@value,DATAEE_WriteByte@bData
  3785  0031D8  ECEF  F017         	call	_DATAEE_WriteByte	;wreg free
  3786  0031DC                     l300:
  3787  0031DC  0012               	return		;funcret
  3788  0031DE                     __end_of_store_write:
  3789                           	callstack 0
  3790                           
  3791 ;; *************** function _sendAliveFrame *****************
  3792 ;; Defined at:
  3793 ;;		line 309 in file "driveControl/commControl.c"
  3794 ;; Parameters:    Size  Location     Type
  3795 ;;  me              2   27[BANK0 ] PTR struct CommControl_
  3796 ;;		 -> theFactory(233), NULL(0), 
  3797 ;; Auto vars:     Size  Location     Type
  3798 ;;		None
  3799 ;; Return value:  Size  Location     Type
  3800 ;;                  1    wreg      void 
  3801 ;; Registers used:
  3802 ;;		wreg, fsr2l, fsr2h, status,2, status,0, cstack
  3803 ;; Tracked objects:
  3804 ;;		On entry : 0/0
  3805 ;;		On exit  : 0/0
  3806 ;;		Unchanged: 0/0
  3807 ;; Data sizes:     COMRAM   BANK0   BANK1   BANK2   BANK3   BANK4   BANK5   BANK6   BANK7   BANK8   BANK9  BANK10  BANK1
      +1  BANK12  BANK13  BANK14  BANK15
  3808 ;;      Params:         0       2       0       0       0       0       0       0       0       0       0       0       
      +0       0       0       0       0
  3809 ;;      Locals:         0       0       0       0       0       0       0       0       0       0       0       0       
      +0       0       0       0       0
  3810 ;;      Temps:          0       0       0       0       0       0       0       0       0       0       0       0       
      +0       0       0       0       0
  3811 ;;      Totals:         0       2       0       0       0       0       0       0       0       0       0       0       
      +0       0       0       0       0
  3812 ;;Total ram usage:        2 bytes
  3813 ;; Hardware stack levels used: 1
  3814 ;; Hardware stack levels required when called: 8
  3815 ;; This function calls:
  3816 ;;		_CAN_transmit
  3817 ;;		_st
  3818 ;;		_store_read
  3819 ;; This function is called by:
  3820 ;;		_commControl_processEvent
  3821 ;; This function uses a non-reentrant model
  3822 ;;
  3823                           
  3824                           	psect	text10
  3825  002712                     __ptext10:
  3826                           	callstack 0
  3827  002712                     _sendAliveFrame:
  3828                           	callstack 20
  3829  002712                     
  3830                           ;driveControl/commControl.c: 316:     if(store_read(st(), EE_ALIVE_TIME) > 0){
  3831  002712  EC8A  F01A         	call	_st	;wreg free
  3832  002716  C060  F062         	movff	?_st,store_read@me
  3833  00271A  C061  F063         	movff	?_st+1,store_read@me+1
  3834  00271E  0E01               	movlw	1
  3835  002720  0100               	movlb	0	; () banked
  3836  002722  6F64               	movwf	store_read@item& (0+255),b
  3837  002724  EC50  F019         	call	_store_read	;wreg free
  3838  002728  0900               	iorlw	0
  3839  00272A  B4D8               	btfsc	status,2,c
  3840  00272C  EF9A  F013         	goto	u2131
  3841  002730  EF9C  F013         	goto	u2130
  3842  002734                     u2131:
  3843  002734  EFD3  F013         	goto	l272
  3844  002738                     u2130:
  3845  002738                     
  3846                           ;driveControl/commControl.c: 317:         me->msg.frame.id = 0x51F;
  3847  002738  0100               	movlb	0	; () banked
  3848  00273A  EE20 F003          	lfsr	2,3
  3849  00273E  517B               	movf	sendAliveFrame@me& (0+255),w,b
  3850  002740  26D9               	addwf	fsr2l,f,c
  3851  002742  517C               	movf	(sendAliveFrame@me+1)& (0+255),w,b
  3852  002744  22DA               	addwfc	fsr2h,f,c
  3853  002746  0E1F               	movlw	31
  3854  002748  6EDE               	movwf	postinc2,c
  3855  00274A  0E05               	movlw	5
  3856  00274C  6EDE               	movwf	postinc2,c
  3857  00274E  0E00               	movlw	0
  3858  002750  6EDE               	movwf	postinc2,c
  3859  002752  0E00               	movlw	0
  3860  002754  6EDD               	movwf	postdec2,c
  3861                           
  3862                           ;driveControl/commControl.c: 318:         me->msg.frame.dlc = 2;
  3863  002756  EE20 F007          	lfsr	2,7
  3864  00275A  517B               	movf	sendAliveFrame@me& (0+255),w,b
  3865  00275C  26D9               	addwf	fsr2l,f,c
  3866  00275E  517C               	movf	(sendAliveFrame@me+1)& (0+255),w,b
  3867  002760  22DA               	addwfc	fsr2h,f,c
  3868  002762  0E02               	movlw	2
  3869  002764  6EDF               	movwf	indf2,c
  3870                           
  3871                           ;driveControl/commControl.c: 322:         me->msg.frame.data0 = 0xaa;
  3872  002766  EE20 F008          	lfsr	2,8
  3873  00276A  517B               	movf	sendAliveFrame@me& (0+255),w,b
  3874  00276C  26D9               	addwf	fsr2l,f,c
  3875  00276E  517C               	movf	(sendAliveFrame@me+1)& (0+255),w,b
  3876  002770  22DA               	addwfc	fsr2h,f,c
  3877  002772  0EAA               	movlw	170
  3878  002774  6EDF               	movwf	indf2,c
  3879                           
  3880                           ;driveControl/commControl.c: 323:         me->msg.frame.data1 = 0xbb;
  3881  002776  EE20 F009          	lfsr	2,9
  3882  00277A  517B               	movf	sendAliveFrame@me& (0+255),w,b
  3883  00277C  26D9               	addwf	fsr2l,f,c
  3884  00277E  517C               	movf	(sendAliveFrame@me+1)& (0+255),w,b
  3885  002780  22DA               	addwfc	fsr2h,f,c
  3886  002782  0EBB               	movlw	187
  3887  002784  6EDF               	movwf	indf2,c
  3888                           
  3889                           ;driveControl/commControl.c: 324:         me->msg.frame.rtr = 0;
  3890  002786  EE20 F010          	lfsr	2,16
  3891  00278A  517B               	movf	sendAliveFrame@me& (0+255),w,b
  3892  00278C  26D9               	addwf	fsr2l,f,c
  3893  00278E  517C               	movf	(sendAliveFrame@me+1)& (0+255),w,b
  3894  002790  22DA               	addwfc	fsr2h,f,c
  3895  002792  0E00               	movlw	0
  3896  002794  6EDF               	movwf	indf2,c
  3897  002796                     
  3898                           ; BSR set to: 0
  3899                           ;driveControl/commControl.c: 325:         CAN_transmit(&(me->msg));
  3900  002796  0E02               	movlw	2
  3901  002798  257B               	addwf	sendAliveFrame@me& (0+255),w,b
  3902  00279A  6F72               	movwf	CAN_transmit@tempCanMsg& (0+255),b
  3903  00279C  0E00               	movlw	0
  3904  00279E  217C               	addwfc	(sendAliveFrame@me+1)& (0+255),w,b
  3905  0027A0  6F73               	movwf	(CAN_transmit@tempCanMsg+1)& (0+255),b
  3906  0027A2  EC00  F007         	call	_CAN_transmit	;wreg free
  3907  0027A6                     l272:
  3908  0027A6  0012               	return		;funcret
  3909  0027A8                     __end_of_sendAliveFrame:
  3910                           	callstack 0
  3911                           
  3912 ;; *************** function _readCANFrame *****************
  3913 ;; Defined at:
  3914 ;;		line 222 in file "driveControl/commControl.c"
  3915 ;; Parameters:    Size  Location     Type
  3916 ;;  me              2   73[BANK0 ] PTR struct CommControl_
  3917 ;;		 -> theFactory(233), NULL(0), 
  3918 ;;  msg             2   75[BANK0 ] PTR struct .
  3919 ;;		 -> theFactory(233), NULL(0), 
  3920 ;; Auto vars:     Size  Location     Type
  3921 ;;		None
  3922 ;; Return value:  Size  Location     Type
  3923 ;;                  1    wreg      void 
  3924 ;; Registers used:
  3925 ;;		wreg, fsr0l, fsr0h, fsr1l, fsr1h, fsr2l, fsr2h, status,2, status,0, prodl, prodh, cstack
  3926 ;; Tracked objects:
  3927 ;;		On entry : 0/0
  3928 ;;		On exit  : 0/0
  3929 ;;		Unchanged: 0/0
  3930 ;; Data sizes:     COMRAM   BANK0   BANK1   BANK2   BANK3   BANK4   BANK5   BANK6   BANK7   BANK8   BANK9  BANK10  BANK1
      +1  BANK12  BANK13  BANK14  BANK15
  3931 ;;      Params:         0       4       0       0       0       0       0       0       0       0       0       0       
      +0       0       0       0       0
  3932 ;;      Locals:         0       0       0       0       0       0       0       0       0       0       0       0       
      +0       0       0       0       0
  3933 ;;      Temps:          0       4       0       0       0       0       0       0       0       0       0       0       
      +0       0       0       0       0
  3934 ;;      Totals:         0       8       0       0       0       0       0       0       0       0       0       0       
      +0       0       0       0       0
  3935 ;;Total ram usage:        8 bytes
  3936 ;; Hardware stack levels used: 1
  3937 ;; Hardware stack levels required when called: 10
  3938 ;; This function calls:
  3939 ;;		_CAN_receive
  3940 ;;		_POST
  3941 ;; This function is called by:
  3942 ;;		_commControl_processEvent
  3943 ;; This function uses a non-reentrant model
  3944 ;;
  3945                           
  3946                           	psect	text11
  3947  001746                     __ptext11:
  3948                           	callstack 0
  3949  001746                     _readCANFrame:
  3950                           	callstack 18
  3951  001746                     
  3952                           ;driveControl/commControl.c: 223:     if (CAN_receive(msg) != 0) {
  3953  001746  C0AB  F073         	movff	readCANFrame@msg,CAN_receive@tempCanMsg
  3954  00174A  C0AC  F074         	movff	readCANFrame@msg+1,CAN_receive@tempCanMsg+1
  3955  00174E  EC18  F009         	call	_CAN_receive	;wreg free
  3956  001752  0900               	iorlw	0
  3957  001754  B4D8               	btfsc	status,2,c
  3958  001756  EFAF  F00B         	goto	u2141
  3959  00175A  EFB1  F00B         	goto	u2140
  3960  00175E                     u2141:
  3961  00175E  EF79  F00C         	goto	l4573
  3962  001762                     u2140:
  3963  001762  EF3B  F00C         	goto	l4571
  3964  001766                     l4561:
  3965                           
  3966                           ; BSR set to: 0
  3967                           ;driveControl/commControl.c: 226:                 POST(me, &commControl_processEvent, ev
      +                          CMsg, 0, 0x150);
  3968  001766  C0A9  F08A         	movff	readCANFrame@me,POST@target
  3969  00176A  C0AA  F08B         	movff	readCANFrame@me+1,POST@target+1
  3970  00176E  0E1E               	movlw	low _commControl_processEvent
  3971  001770  6F8C               	movwf	POST@processEvent& (0+255),b
  3972  001772  0E00               	movlw	high _commControl_processEvent
  3973  001774  6F8D               	movwf	(POST@processEvent+1)& (0+255),b
  3974  001776  0E2A               	movlw	42
  3975  001778  6F8E               	movwf	POST@id& (0+255),b
  3976  00177A  0E00               	movlw	0
  3977  00177C  6F90               	movwf	(POST@delay+1)& (0+255),b
  3978  00177E  0E00               	movlw	0
  3979  001780  6F8F               	movwf	POST@delay& (0+255),b
  3980  001782  0E50               	movlw	80
  3981  001784  6F91               	movwf	POST@data& (0+255),b
  3982  001786  0E01               	movlw	1
  3983  001788  6F92               	movwf	(POST@data+1)& (0+255),b
  3984  00178A  0E00               	movlw	0
  3985  00178C  6F93               	movwf	(POST@data+2)& (0+255),b
  3986  00178E  0E00               	movlw	0
  3987  001790  6F94               	movwf	(POST@data+3)& (0+255),b
  3988  001792  0E00               	movlw	0
  3989  001794  6F95               	movwf	(POST@data+4)& (0+255),b
  3990  001796  0E00               	movlw	0
  3991  001798  6F96               	movwf	(POST@data+5)& (0+255),b
  3992  00179A  0E00               	movlw	0
  3993  00179C  6F97               	movwf	(POST@data+6)& (0+255),b
  3994  00179E  0E00               	movlw	0
  3995  0017A0  6F98               	movwf	(POST@data+7)& (0+255),b
  3996  0017A2  ECD5  F010         	call	_POST	;wreg free
  3997                           
  3998                           ;driveControl/commControl.c: 227:                 break;
  3999  0017A6  EF9A  F00C         	goto	l261
  4000  0017AA                     l4563:
  4001                           
  4002                           ; BSR set to: 0
  4003                           ;driveControl/commControl.c: 229:                 POST(me, &commControl_processEvent, ev
      +                          CMsg, 0, 0x151);
  4004  0017AA  C0A9  F08A         	movff	readCANFrame@me,POST@target
  4005  0017AE  C0AA  F08B         	movff	readCANFrame@me+1,POST@target+1
  4006  0017B2  0E1E               	movlw	low _commControl_processEvent
  4007  0017B4  6F8C               	movwf	POST@processEvent& (0+255),b
  4008  0017B6  0E00               	movlw	high _commControl_processEvent
  4009  0017B8  6F8D               	movwf	(POST@processEvent+1)& (0+255),b
  4010  0017BA  0E2A               	movlw	42
  4011  0017BC  6F8E               	movwf	POST@id& (0+255),b
  4012  0017BE  0E00               	movlw	0
  4013  0017C0  6F90               	movwf	(POST@delay+1)& (0+255),b
  4014  0017C2  0E00               	movlw	0
  4015  0017C4  6F8F               	movwf	POST@delay& (0+255),b
  4016  0017C6  0E51               	movlw	81
  4017  0017C8  6F91               	movwf	POST@data& (0+255),b
  4018  0017CA  0E01               	movlw	1
  4019  0017CC  6F92               	movwf	(POST@data+1)& (0+255),b
  4020  0017CE  0E00               	movlw	0
  4021  0017D0  6F93               	movwf	(POST@data+2)& (0+255),b
  4022  0017D2  0E00               	movlw	0
  4023  0017D4  6F94               	movwf	(POST@data+3)& (0+255),b
  4024  0017D6  0E00               	movlw	0
  4025  0017D8  6F95               	movwf	(POST@data+4)& (0+255),b
  4026  0017DA  0E00               	movlw	0
  4027  0017DC  6F96               	movwf	(POST@data+5)& (0+255),b
  4028  0017DE  0E00               	movlw	0
  4029  0017E0  6F97               	movwf	(POST@data+6)& (0+255),b
  4030  0017E2  0E00               	movlw	0
  4031  0017E4  6F98               	movwf	(POST@data+7)& (0+255),b
  4032  0017E6  ECD5  F010         	call	_POST	;wreg free
  4033                           
  4034                           ;driveControl/commControl.c: 230:                 break;
  4035  0017EA  EF9A  F00C         	goto	l261
  4036  0017EE                     l4565:
  4037                           
  4038                           ; BSR set to: 0
  4039                           ;driveControl/commControl.c: 232:                 POST(me, &commControl_processEvent, ev
      +                          CMsg, 0, 0x052);
  4040  0017EE  C0A9  F08A         	movff	readCANFrame@me,POST@target
  4041  0017F2  C0AA  F08B         	movff	readCANFrame@me+1,POST@target+1
  4042  0017F6  0E1E               	movlw	low _commControl_processEvent
  4043  0017F8  6F8C               	movwf	POST@processEvent& (0+255),b
  4044  0017FA  0E00               	movlw	high _commControl_processEvent
  4045  0017FC  6F8D               	movwf	(POST@processEvent+1)& (0+255),b
  4046  0017FE  0E2A               	movlw	42
  4047  001800  6F8E               	movwf	POST@id& (0+255),b
  4048  001802  0E00               	movlw	0
  4049  001804  6F90               	movwf	(POST@delay+1)& (0+255),b
  4050  001806  0E00               	movlw	0
  4051  001808  6F8F               	movwf	POST@delay& (0+255),b
  4052  00180A  0E52               	movlw	82
  4053  00180C  6F91               	movwf	POST@data& (0+255),b
  4054  00180E  0E00               	movlw	0
  4055  001810  6F92               	movwf	(POST@data+1)& (0+255),b
  4056  001812  0E00               	movlw	0
  4057  001814  6F93               	movwf	(POST@data+2)& (0+255),b
  4058  001816  0E00               	movlw	0
  4059  001818  6F94               	movwf	(POST@data+3)& (0+255),b
  4060  00181A  0E00               	movlw	0
  4061  00181C  6F95               	movwf	(POST@data+4)& (0+255),b
  4062  00181E  0E00               	movlw	0
  4063  001820  6F96               	movwf	(POST@data+5)& (0+255),b
  4064  001822  0E00               	movlw	0
  4065  001824  6F97               	movwf	(POST@data+6)& (0+255),b
  4066  001826  0E00               	movlw	0
  4067  001828  6F98               	movwf	(POST@data+7)& (0+255),b
  4068  00182A  ECD5  F010         	call	_POST	;wreg free
  4069                           
  4070                           ;driveControl/commControl.c: 233:                 break;
  4071  00182E  EF9A  F00C         	goto	l261
  4072  001832                     l4567:
  4073                           
  4074                           ; BSR set to: 0
  4075                           ;driveControl/commControl.c: 235:                 POST(me, &commControl_processEvent, ev
      +                          CDefault, 0, 0);
  4076  001832  C0A9  F08A         	movff	readCANFrame@me,POST@target
  4077  001836  C0AA  F08B         	movff	readCANFrame@me+1,POST@target+1
  4078  00183A  0E1E               	movlw	low _commControl_processEvent
  4079  00183C  6F8C               	movwf	POST@processEvent& (0+255),b
  4080  00183E  0E00               	movlw	high _commControl_processEvent
  4081  001840  6F8D               	movwf	(POST@processEvent+1)& (0+255),b
  4082  001842  0E2C               	movlw	44
  4083  001844  6F8E               	movwf	POST@id& (0+255),b
  4084  001846  0E00               	movlw	0
  4085  001848  6F90               	movwf	(POST@delay+1)& (0+255),b
  4086  00184A  0E00               	movlw	0
  4087  00184C  6F8F               	movwf	POST@delay& (0+255),b
  4088  00184E  0E00               	movlw	0
  4089  001850  6F91               	movwf	POST@data& (0+255),b
  4090  001852  0E00               	movlw	0
  4091  001854  6F92               	movwf	(POST@data+1)& (0+255),b
  4092  001856  0E00               	movlw	0
  4093  001858  6F93               	movwf	(POST@data+2)& (0+255),b
  4094  00185A  0E00               	movlw	0
  4095  00185C  6F94               	movwf	(POST@data+3)& (0+255),b
  4096  00185E  0E00               	movlw	0
  4097  001860  6F95               	movwf	(POST@data+4)& (0+255),b
  4098  001862  0E00               	movlw	0
  4099  001864  6F96               	movwf	(POST@data+5)& (0+255),b
  4100  001866  0E00               	movlw	0
  4101  001868  6F97               	movwf	(POST@data+6)& (0+255),b
  4102  00186A  0E00               	movlw	0
  4103  00186C  6F98               	movwf	(POST@data+7)& (0+255),b
  4104  00186E  ECD5  F010         	call	_POST	;wreg free
  4105                           
  4106                           ;driveControl/commControl.c: 236:                 break;
  4107  001872  EF9A  F00C         	goto	l261
  4108  001876                     l4571:
  4109  001876  0100               	movlb	0	; () banked
  4110  001878  EE20 F001          	lfsr	2,1
  4111  00187C  51AB               	movf	readCANFrame@msg& (0+255),w,b
  4112  00187E  26D9               	addwf	fsr2l,f,c
  4113  001880  51AC               	movf	(readCANFrame@msg+1)& (0+255),w,b
  4114  001882  22DA               	addwfc	fsr2h,f,c
  4115  001884  006F FF78  F0AD    	movff	postinc2,??_readCANFrame
  4116  00188A  006F FF78  F0AE    	movff	postinc2,??_readCANFrame+1
  4117  001890  006F FF78  F0AF    	movff	postinc2,??_readCANFrame+2
  4118  001896  006F FF78  F0B0    	movff	postinc2,??_readCANFrame+3
  4119                           
  4120                           ; Switch on 2 bytes has been partitioned into a top level switch of size 1, and 2 sub-sw
      +                          itches
  4121                           ; Switch size 1, requested type "simple"
  4122                           ; Number of cases is 1, Range of values is 0 to 0
  4123                           ; switch strategies available:
  4124                           ; Name         Instructions Cycles
  4125                           ; simple_byte            4     3 (average)
  4126                           ;	Chosen strategy is simple_byte
  4127  00189C  51B0               	movf	(??_readCANFrame+3)& (0+255),w,b
  4128  00189E  0A00               	xorlw	0	; case 0
  4129  0018A0  B4D8               	btfsc	status,2,c
  4130  0018A2  EF72  F00C         	goto	l6047
  4131  0018A6  EF19  F00C         	goto	l4567
  4132  0018AA                     l6045:
  4133                           
  4134                           ; BSR set to: 0
  4135                           ; Switch on 2 bytes has been partitioned into a top level switch of size 1, and 2 sub-sw
      +                          itches
  4136                           ; Switch size 1, requested type "simple"
  4137                           ; Number of cases is 2, Range of values is 0 to 1
  4138                           ; switch strategies available:
  4139                           ; Name         Instructions Cycles
  4140                           ; simple_byte            7     4 (average)
  4141                           ;	Chosen strategy is simple_byte
  4142  0018AA  51AE               	movf	(??_readCANFrame+1)& (0+255),w,b
  4143  0018AC  0A00               	xorlw	0	; case 0
  4144  0018AE  B4D8               	btfsc	status,2,c
  4145  0018B0  EF60  F00C         	goto	l6049
  4146  0018B4  0A01               	xorlw	1	; case 1
  4147  0018B6  B4D8               	btfsc	status,2,c
  4148  0018B8  EF67  F00C         	goto	l6051
  4149  0018BC  EF19  F00C         	goto	l4567
  4150  0018C0                     l6049:
  4151                           
  4152                           ; BSR set to: 0
  4153                           ; Switch size 1, requested type "simple"
  4154                           ; Number of cases is 1, Range of values is 82 to 82
  4155                           ; switch strategies available:
  4156                           ; Name         Instructions Cycles
  4157                           ; simple_byte            4     3 (average)
  4158                           ;	Chosen strategy is simple_byte
  4159  0018C0  51AD               	movf	??_readCANFrame& (0+255),w,b
  4160  0018C2  0A52               	xorlw	82	; case 82
  4161  0018C4  B4D8               	btfsc	status,2,c
  4162  0018C6  EFF7  F00B         	goto	l4565
  4163  0018CA  EF19  F00C         	goto	l4567
  4164  0018CE                     l6051:
  4165                           
  4166                           ; BSR set to: 0
  4167                           ; Switch size 1, requested type "simple"
  4168                           ; Number of cases is 2, Range of values is 80 to 81
  4169                           ; switch strategies available:
  4170                           ; Name         Instructions Cycles
  4171                           ; simple_byte            7     4 (average)
  4172                           ;	Chosen strategy is simple_byte
  4173  0018CE  51AD               	movf	??_readCANFrame& (0+255),w,b
  4174  0018D0  0A50               	xorlw	80	; case 80
  4175  0018D2  B4D8               	btfsc	status,2,c
  4176  0018D4  EFB3  F00B         	goto	l4561
  4177  0018D8  0A01               	xorlw	1	; case 81
  4178  0018DA  B4D8               	btfsc	status,2,c
  4179  0018DC  EFD5  F00B         	goto	l4563
  4180  0018E0  EF19  F00C         	goto	l4567
  4181  0018E4                     l6047:
  4182                           
  4183                           ; BSR set to: 0
  4184                           ; Switch size 1, requested type "simple"
  4185                           ; Number of cases is 1, Range of values is 0 to 0
  4186                           ; switch strategies available:
  4187                           ; Name         Instructions Cycles
  4188                           ; simple_byte            4     3 (average)
  4189                           ;	Chosen strategy is simple_byte
  4190  0018E4  51AF               	movf	(??_readCANFrame+2)& (0+255),w,b
  4191  0018E6  0A00               	xorlw	0	; case 0
  4192  0018E8  B4D8               	btfsc	status,2,c
  4193  0018EA  EF55  F00C         	goto	l6045
  4194  0018EE  EF19  F00C         	goto	l4567
  4195  0018F2                     l4573:
  4196                           
  4197                           ;driveControl/commControl.c: 240:         POST(me, &commControl_processEvent, evCDefault
      +                          , 0, 0);
  4198  0018F2  C0A9  F08A         	movff	readCANFrame@me,POST@target
  4199  0018F6  C0AA  F08B         	movff	readCANFrame@me+1,POST@target+1
  4200  0018FA  0E1E               	movlw	low _commControl_processEvent
  4201  0018FC  0100               	movlb	0	; () banked
  4202  0018FE  6F8C               	movwf	POST@processEvent& (0+255),b
  4203  001900  0E00               	movlw	high _commControl_processEvent
  4204  001902  6F8D               	movwf	(POST@processEvent+1)& (0+255),b
  4205  001904  0E2C               	movlw	44
  4206  001906  6F8E               	movwf	POST@id& (0+255),b
  4207  001908  0E00               	movlw	0
  4208  00190A  6F90               	movwf	(POST@delay+1)& (0+255),b
  4209  00190C  0E00               	movlw	0
  4210  00190E  6F8F               	movwf	POST@delay& (0+255),b
  4211  001910  0E00               	movlw	0
  4212  001912  6F91               	movwf	POST@data& (0+255),b
  4213  001914  0E00               	movlw	0
  4214  001916  6F92               	movwf	(POST@data+1)& (0+255),b
  4215  001918  0E00               	movlw	0
  4216  00191A  6F93               	movwf	(POST@data+2)& (0+255),b
  4217  00191C  0E00               	movlw	0
  4218  00191E  6F94               	movwf	(POST@data+3)& (0+255),b
  4219  001920  0E00               	movlw	0
  4220  001922  6F95               	movwf	(POST@data+4)& (0+255),b
  4221  001924  0E00               	movlw	0
  4222  001926  6F96               	movwf	(POST@data+5)& (0+255),b
  4223  001928  0E00               	movlw	0
  4224  00192A  6F97               	movwf	(POST@data+6)& (0+255),b
  4225  00192C  0E00               	movlw	0
  4226  00192E  6F98               	movwf	(POST@data+7)& (0+255),b
  4227  001930  ECD5  F010         	call	_POST	;wreg free
  4228  001934                     l261:
  4229  001934  0012               	return		;funcret
  4230  001936                     __end_of_readCANFrame:
  4231                           	callstack 0
  4232                           
  4233 ;; *************** function _CAN_receive *****************
  4234 ;; Defined at:
  4235 ;;		line 210 in file "mcc_generated_files/ecan.c"
  4236 ;; Parameters:    Size  Location     Type
  4237 ;;  tempCanMsg      2   19[BANK0 ] PTR struct .
  4238 ;;		 -> theFactory(233), NULL(0), 
  4239 ;; Auto vars:     Size  Location     Type
  4240 ;;  returnValue     1   21[BANK0 ] unsigned char 
  4241 ;; Return value:  Size  Location     Type
  4242 ;;                  1    wreg      unsigned char 
  4243 ;; Registers used:
  4244 ;;		wreg, fsr2l, fsr2h, status,2, status,0, cstack
  4245 ;; Tracked objects:
  4246 ;;		On entry : 0/0
  4247 ;;		On exit  : 0/0
  4248 ;;		Unchanged: 0/0
  4249 ;; Data sizes:     COMRAM   BANK0   BANK1   BANK2   BANK3   BANK4   BANK5   BANK6   BANK7   BANK8   BANK9  BANK10  BANK1
      +1  BANK12  BANK13  BANK14  BANK15
  4250 ;;      Params:         0       2       0       0       0       0       0       0       0       0       0       0       
      +0       0       0       0       0
  4251 ;;      Locals:         0       1       0       0       0       0       0       0       0       0       0       0       
      +0       0       0       0       0
  4252 ;;      Temps:          0       0       0       0       0       0       0       0       0       0       0       0       
      +0       0       0       0       0
  4253 ;;      Totals:         0       3       0       0       0       0       0       0       0       0       0       0       
      +0       0       0       0       0
  4254 ;;Total ram usage:        3 bytes
  4255 ;; Hardware stack levels used: 1
  4256 ;; Hardware stack levels required when called: 7
  4257 ;; This function calls:
  4258 ;;		_convertReg2ExtendedCANid
  4259 ;;		_convertReg2StandardCANid
  4260 ;; This function is called by:
  4261 ;;		_readCANFrame
  4262 ;; This function uses a non-reentrant model
  4263 ;;
  4264                           
  4265                           	psect	text12
  4266  001230                     __ptext12:
  4267                           	callstack 0
  4268  001230                     _CAN_receive:
  4269                           	callstack 20
  4270  001230                     
  4271                           ;mcc_generated_files/ecan.c: 210: uint8_t CAN_receive(uCAN_MSG *tempCanMsg);mcc_generate
      +                          d_files/ecan.c: 211: {;mcc_generated_files/ecan.c: 212:     uint8_t returnValue = 0;
  4272  001230  0E00               	movlw	0
  4273  001232  0100               	movlb	0	; () banked
  4274  001234  6F75               	movwf	CAN_receive@returnValue& (0+255),b
  4275  001236                     
  4276                           ; BSR set to: 0
  4277                           ;mcc_generated_files/ecan.c: 215:     if (RXB0CONbits.RXFUL != 0)
  4278  001236  AE80               	btfss	128,7,c	;volatile
  4279  001238  EF20  F009         	goto	u1871
  4280  00123C  EF22  F009         	goto	u1870
  4281  001240                     u1871:
  4282  001240  EFD4  F009         	goto	l862
  4283  001244                     u1870:
  4284  001244                     
  4285                           ; BSR set to: 0
  4286                           ;mcc_generated_files/ecan.c: 216:     {;mcc_generated_files/ecan.c: 217:         if ((RX
      +                          B0SIDL & 0x08) == 0x08)
  4287  001244  A682               	btfss	130,3,c	;volatile
  4288  001246  EF27  F009         	goto	u1881
  4289  00124A  EF29  F009         	goto	u1880
  4290  00124E                     u1881:
  4291  00124E  EF52  F009         	goto	l4263
  4292  001252                     u1880:
  4293  001252                     
  4294                           ; BSR set to: 0
  4295                           ;mcc_generated_files/ecan.c: 218:         {;mcc_generated_files/ecan.c: 220:            
      +                           tempCanMsg->frame.idType = (uint8_t) 2;
  4296  001252  0060  F1CF  FFD9   	movff	CAN_receive@tempCanMsg,fsr2l
  4297  001258  0060  F1D3  FFDA   	movff	CAN_receive@tempCanMsg+1,fsr2h
  4298  00125E  0E02               	movlw	2
  4299  001260  6EDF               	movwf	indf2,c
  4300  001262                     
  4301                           ; BSR set to: 0
  4302                           ;mcc_generated_files/ecan.c: 221:             tempCanMsg->frame.id = convertReg2Extended
      +                          CANid(RXB0EIDH, RXB0EIDL, RXB0SIDH, RXB0SIDL);
  4303  001262  006F FE10  F060    	movff	16260,convertReg2ExtendedCANid@tempRXBn_EIDL	;volatile
  4304  001268  006F FE04  F061    	movff	16257,convertReg2ExtendedCANid@tempRXBn_SIDH	;volatile
  4305  00126E  006F FE08  F062    	movff	16258,convertReg2ExtendedCANid@tempRXBn_SIDL	;volatile
  4306  001274  5083               	movf	131,w,c	;volatile
  4307  001276  EC68  F00D         	call	_convertReg2ExtendedCANid
  4308  00127A  0100               	movlb	0	; () banked
  4309  00127C  EE20 F001          	lfsr	2,1
  4310  001280  5173               	movf	CAN_receive@tempCanMsg& (0+255),w,b
  4311  001282  26D9               	addwf	fsr2l,f,c
  4312  001284  5174               	movf	(CAN_receive@tempCanMsg+1)& (0+255),w,b
  4313  001286  22DA               	addwfc	fsr2h,f,c
  4314  001288  0060  F183  FFDE   	movff	?_convertReg2ExtendedCANid,postinc2
  4315  00128E  0060  F187  FFDE   	movff	?_convertReg2ExtendedCANid+1,postinc2
  4316  001294  0060  F18B  FFDE   	movff	?_convertReg2ExtendedCANid+2,postinc2
  4317  00129A  0060  F18F  FFDE   	movff	?_convertReg2ExtendedCANid+3,postinc2
  4318                           
  4319                           ;mcc_generated_files/ecan.c: 222:         }
  4320  0012A0  EF73  F009         	goto	l4267
  4321  0012A4                     l4263:
  4322                           
  4323                           ; BSR set to: 0
  4324                           ;mcc_generated_files/ecan.c: 224:         {;mcc_generated_files/ecan.c: 226:            
      +                           tempCanMsg->frame.idType = (uint8_t) 1;
  4325  0012A4  0060  F1CF  FFD9   	movff	CAN_receive@tempCanMsg,fsr2l
  4326  0012AA  0060  F1D3  FFDA   	movff	CAN_receive@tempCanMsg+1,fsr2h
  4327  0012B0  0E01               	movlw	1
  4328  0012B2  6EDF               	movwf	indf2,c
  4329  0012B4                     
  4330                           ; BSR set to: 0
  4331                           ;mcc_generated_files/ecan.c: 227:             tempCanMsg->frame.id = convertReg2Standard
      +                          CANid(RXB0SIDH, RXB0SIDL);
  4332  0012B4  006F FE08  F060    	movff	16258,convertReg2StandardCANid@tempRXBn_SIDL	;volatile
  4333  0012BA  5081               	movf	129,w,c	;volatile
  4334  0012BC  ECB8  F015         	call	_convertReg2StandardCANid
  4335  0012C0  0100               	movlb	0	; () banked
  4336  0012C2  EE20 F001          	lfsr	2,1
  4337  0012C6  5173               	movf	CAN_receive@tempCanMsg& (0+255),w,b
  4338  0012C8  26D9               	addwf	fsr2l,f,c
  4339  0012CA  5174               	movf	(CAN_receive@tempCanMsg+1)& (0+255),w,b
  4340  0012CC  22DA               	addwfc	fsr2h,f,c
  4341  0012CE  0060  F183  FFDE   	movff	?_convertReg2StandardCANid,postinc2
  4342  0012D4  0060  F187  FFDE   	movff	?_convertReg2StandardCANid+1,postinc2
  4343  0012DA  0060  F18B  FFDE   	movff	?_convertReg2StandardCANid+2,postinc2
  4344  0012E0  0060  F18F  FFDE   	movff	?_convertReg2StandardCANid+3,postinc2
  4345  0012E6                     l4267:
  4346                           
  4347                           ; BSR set to: 0
  4348                           ;mcc_generated_files/ecan.c: 230:         tempCanMsg->frame.dlc = RXB0DLC & 0x0F;
  4349  0012E6  EE20 F005          	lfsr	2,5
  4350  0012EA  5173               	movf	CAN_receive@tempCanMsg& (0+255),w,b
  4351  0012EC  26D9               	addwf	fsr2l,f,c
  4352  0012EE  5174               	movf	(CAN_receive@tempCanMsg+1)& (0+255),w,b
  4353  0012F0  22DA               	addwfc	fsr2h,f,c
  4354  0012F2  5085               	movf	133,w,c	;volatile
  4355  0012F4  0B0F               	andlw	15
  4356  0012F6  6EDF               	movwf	indf2,c
  4357  0012F8                     
  4358                           ; BSR set to: 0
  4359                           ;mcc_generated_files/ecan.c: 231:         tempCanMsg->frame.rtr = RXB0DLC >> 6;
  4360  0012F8  EE20 F00E          	lfsr	2,14
  4361  0012FC  5173               	movf	CAN_receive@tempCanMsg& (0+255),w,b
  4362  0012FE  26D9               	addwf	fsr2l,f,c
  4363  001300  5174               	movf	(CAN_receive@tempCanMsg+1)& (0+255),w,b
  4364  001302  22DA               	addwfc	fsr2h,f,c
  4365  001304  4485               	rlncf	133,w,c	;volatile
  4366  001306  46E8               	rlncf	wreg,f,c
  4367  001308  0B03               	andlw	3
  4368  00130A  6EDF               	movwf	indf2,c
  4369  00130C                     
  4370                           ; BSR set to: 0
  4371                           ;mcc_generated_files/ecan.c: 232:         tempCanMsg->frame.data0 = RXB0D0;
  4372  00130C  EE20 F006          	lfsr	2,6
  4373  001310  5173               	movf	CAN_receive@tempCanMsg& (0+255),w,b
  4374  001312  26D9               	addwf	fsr2l,f,c
  4375  001314  5174               	movf	(CAN_receive@tempCanMsg+1)& (0+255),w,b
  4376  001316  22DA               	addwfc	fsr2h,f,c
  4377  001318  006F FE1B FFDF     	movff	16262,indf2	;volatile
  4378  00131E                     
  4379                           ; BSR set to: 0
  4380                           ;mcc_generated_files/ecan.c: 233:         tempCanMsg->frame.data1 = RXB0D1;
  4381  00131E  EE20 F007          	lfsr	2,7
  4382  001322  5173               	movf	CAN_receive@tempCanMsg& (0+255),w,b
  4383  001324  26D9               	addwf	fsr2l,f,c
  4384  001326  5174               	movf	(CAN_receive@tempCanMsg+1)& (0+255),w,b
  4385  001328  22DA               	addwfc	fsr2h,f,c
  4386  00132A  006F FE1F FFDF     	movff	16263,indf2	;volatile
  4387  001330                     
  4388                           ; BSR set to: 0
  4389                           ;mcc_generated_files/ecan.c: 234:         tempCanMsg->frame.data2 = RXB0D2;
  4390  001330  EE20 F008          	lfsr	2,8
  4391  001334  5173               	movf	CAN_receive@tempCanMsg& (0+255),w,b
  4392  001336  26D9               	addwf	fsr2l,f,c
  4393  001338  5174               	movf	(CAN_receive@tempCanMsg+1)& (0+255),w,b
  4394  00133A  22DA               	addwfc	fsr2h,f,c
  4395  00133C  006F FE23 FFDF     	movff	16264,indf2	;volatile
  4396  001342                     
  4397                           ; BSR set to: 0
  4398                           ;mcc_generated_files/ecan.c: 235:         tempCanMsg->frame.data3 = RXB0D3;
  4399  001342  EE20 F009          	lfsr	2,9
  4400  001346  5173               	movf	CAN_receive@tempCanMsg& (0+255),w,b
  4401  001348  26D9               	addwf	fsr2l,f,c
  4402  00134A  5174               	movf	(CAN_receive@tempCanMsg+1)& (0+255),w,b
  4403  00134C  22DA               	addwfc	fsr2h,f,c
  4404  00134E  006F FE27 FFDF     	movff	16265,indf2	;volatile
  4405  001354                     
  4406                           ; BSR set to: 0
  4407                           ;mcc_generated_files/ecan.c: 236:         tempCanMsg->frame.data4 = RXB0D4;
  4408  001354  EE20 F00A          	lfsr	2,10
  4409  001358  5173               	movf	CAN_receive@tempCanMsg& (0+255),w,b
  4410  00135A  26D9               	addwf	fsr2l,f,c
  4411  00135C  5174               	movf	(CAN_receive@tempCanMsg+1)& (0+255),w,b
  4412  00135E  22DA               	addwfc	fsr2h,f,c
  4413  001360  006F FE2B FFDF     	movff	16266,indf2	;volatile
  4414  001366                     
  4415                           ; BSR set to: 0
  4416                           ;mcc_generated_files/ecan.c: 237:         tempCanMsg->frame.data5 = RXB0D5;
  4417  001366  EE20 F00B          	lfsr	2,11
  4418  00136A  5173               	movf	CAN_receive@tempCanMsg& (0+255),w,b
  4419  00136C  26D9               	addwf	fsr2l,f,c
  4420  00136E  5174               	movf	(CAN_receive@tempCanMsg+1)& (0+255),w,b
  4421  001370  22DA               	addwfc	fsr2h,f,c
  4422  001372  006F FE2F FFDF     	movff	16267,indf2	;volatile
  4423  001378                     
  4424                           ; BSR set to: 0
  4425                           ;mcc_generated_files/ecan.c: 238:         tempCanMsg->frame.data6 = RXB0D6;
  4426  001378  EE20 F00C          	lfsr	2,12
  4427  00137C  5173               	movf	CAN_receive@tempCanMsg& (0+255),w,b
  4428  00137E  26D9               	addwf	fsr2l,f,c
  4429  001380  5174               	movf	(CAN_receive@tempCanMsg+1)& (0+255),w,b
  4430  001382  22DA               	addwfc	fsr2h,f,c
  4431  001384  006F FE33 FFDF     	movff	16268,indf2	;volatile
  4432  00138A                     
  4433                           ; BSR set to: 0
  4434                           ;mcc_generated_files/ecan.c: 239:         tempCanMsg->frame.data7 = RXB0D7;
  4435  00138A  EE20 F00D          	lfsr	2,13
  4436  00138E  5173               	movf	CAN_receive@tempCanMsg& (0+255),w,b
  4437  001390  26D9               	addwf	fsr2l,f,c
  4438  001392  5174               	movf	(CAN_receive@tempCanMsg+1)& (0+255),w,b
  4439  001394  22DA               	addwfc	fsr2h,f,c
  4440  001396  006F FE37 FFDF     	movff	16269,indf2	;volatile
  4441  00139C                     
  4442                           ; BSR set to: 0
  4443                           ;mcc_generated_files/ecan.c: 240:         RXB0CONbits.RXFUL = 0;
  4444  00139C  9E80               	bcf	128,7,c	;volatile
  4445  00139E                     l4289:
  4446                           
  4447                           ;mcc_generated_files/ecan.c: 241:         returnValue = 1;
  4448  00139E  0E01               	movlw	1
  4449  0013A0  0100               	movlb	0	; () banked
  4450  0013A2  6F75               	movwf	CAN_receive@returnValue& (0+255),b
  4451                           
  4452                           ;mcc_generated_files/ecan.c: 242:     }
  4453  0013A4  EF90  F00A         	goto	l4325
  4454  0013A8                     l862:
  4455                           
  4456                           ; BSR set to: 0
  4457  0013A8  0137               	movlb	55	; () banked
  4458  0013AA  AFF0               	btfss	240,7,b	;volatile
  4459  0013AC  EFDA  F009         	goto	u1891
  4460  0013B0  EFDC  F009         	goto	u1890
  4461  0013B4                     u1891:
  4462  0013B4  EF90  F00A         	goto	l4325
  4463  0013B8                     u1890:
  4464  0013B8                     
  4465                           ; BSR set to: 55
  4466                           ;mcc_generated_files/ecan.c: 244:     {;mcc_generated_files/ecan.c: 245:         if ((RX
      +                          B1SIDL & 0x08) == 0x08)
  4467  0013B8  A7F2               	btfss	242,3,b	;volatile
  4468  0013BA  EFE1  F009         	goto	u1901
  4469  0013BE  EFE3  F009         	goto	u1900
  4470  0013C2                     u1901:
  4471  0013C2  EF0C  F00A         	goto	l4297
  4472  0013C6                     u1900:
  4473  0013C6                     
  4474                           ; BSR set to: 55
  4475                           ;mcc_generated_files/ecan.c: 246:         {;mcc_generated_files/ecan.c: 248:            
      +                           tempCanMsg->frame.idType = (uint8_t) 2;
  4476  0013C6  0060  F1CF  FFD9   	movff	CAN_receive@tempCanMsg,fsr2l
  4477  0013CC  0060  F1D3  FFDA   	movff	CAN_receive@tempCanMsg+1,fsr2h
  4478  0013D2  0E02               	movlw	2
  4479  0013D4  6EDF               	movwf	indf2,c
  4480  0013D6                     
  4481                           ; BSR set to: 55
  4482                           ;mcc_generated_files/ecan.c: 249:             tempCanMsg->frame.id = convertReg2Extended
      +                          CANid(RXB1EIDH, RXB1EIDL, RXB1SIDH, RXB1SIDL);
  4483  0013D6  006D FFD0  F060    	movff	14324,convertReg2ExtendedCANid@tempRXBn_EIDL	;volatile
  4484  0013DC  006D FFC4  F061    	movff	14321,convertReg2ExtendedCANid@tempRXBn_SIDH	;volatile
  4485  0013E2  006D FFC8  F062    	movff	14322,convertReg2ExtendedCANid@tempRXBn_SIDL	;volatile
  4486  0013E8  51F3               	movf	243,w,b	;volatile
  4487  0013EA  EC68  F00D         	call	_convertReg2ExtendedCANid
  4488  0013EE  0100               	movlb	0	; () banked
  4489  0013F0  EE20 F001          	lfsr	2,1
  4490  0013F4  5173               	movf	CAN_receive@tempCanMsg& (0+255),w,b
  4491  0013F6  26D9               	addwf	fsr2l,f,c
  4492  0013F8  5174               	movf	(CAN_receive@tempCanMsg+1)& (0+255),w,b
  4493  0013FA  22DA               	addwfc	fsr2h,f,c
  4494  0013FC  0060  F183  FFDE   	movff	?_convertReg2ExtendedCANid,postinc2
  4495  001402  0060  F187  FFDE   	movff	?_convertReg2ExtendedCANid+1,postinc2
  4496  001408  0060  F18B  FFDE   	movff	?_convertReg2ExtendedCANid+2,postinc2
  4497  00140E  0060  F18F  FFDE   	movff	?_convertReg2ExtendedCANid+3,postinc2
  4498                           
  4499                           ;mcc_generated_files/ecan.c: 250:         }
  4500  001414  EF2D  F00A         	goto	l4301
  4501  001418                     l4297:
  4502                           
  4503                           ; BSR set to: 55
  4504                           ;mcc_generated_files/ecan.c: 252:         {;mcc_generated_files/ecan.c: 254:            
      +                           tempCanMsg->frame.idType = (uint8_t) 1;
  4505  001418  0060  F1CF  FFD9   	movff	CAN_receive@tempCanMsg,fsr2l
  4506  00141E  0060  F1D3  FFDA   	movff	CAN_receive@tempCanMsg+1,fsr2h
  4507  001424  0E01               	movlw	1
  4508  001426  6EDF               	movwf	indf2,c
  4509  001428                     
  4510                           ; BSR set to: 55
  4511                           ;mcc_generated_files/ecan.c: 255:             tempCanMsg->frame.id = convertReg2Standard
      +                          CANid(RXB1SIDH, RXB1SIDL);
  4512  001428  006D FFC8  F060    	movff	14322,convertReg2StandardCANid@tempRXBn_SIDL	;volatile
  4513  00142E  51F1               	movf	241,w,b	;volatile
  4514  001430  ECB8  F015         	call	_convertReg2StandardCANid
  4515  001434  0100               	movlb	0	; () banked
  4516  001436  EE20 F001          	lfsr	2,1
  4517  00143A  5173               	movf	CAN_receive@tempCanMsg& (0+255),w,b
  4518  00143C  26D9               	addwf	fsr2l,f,c
  4519  00143E  5174               	movf	(CAN_receive@tempCanMsg+1)& (0+255),w,b
  4520  001440  22DA               	addwfc	fsr2h,f,c
  4521  001442  0060  F183  FFDE   	movff	?_convertReg2StandardCANid,postinc2
  4522  001448  0060  F187  FFDE   	movff	?_convertReg2StandardCANid+1,postinc2
  4523  00144E  0060  F18B  FFDE   	movff	?_convertReg2StandardCANid+2,postinc2
  4524  001454  0060  F18F  FFDE   	movff	?_convertReg2StandardCANid+3,postinc2
  4525  00145A                     l4301:
  4526                           
  4527                           ; BSR set to: 0
  4528                           ;mcc_generated_files/ecan.c: 258:         tempCanMsg->frame.dlc = RXB1DLC & 0x0F;
  4529  00145A  EE20 F005          	lfsr	2,5
  4530  00145E  5173               	movf	CAN_receive@tempCanMsg& (0+255),w,b
  4531  001460  26D9               	addwf	fsr2l,f,c
  4532  001462  5174               	movf	(CAN_receive@tempCanMsg+1)& (0+255),w,b
  4533  001464  22DA               	addwfc	fsr2h,f,c
  4534  001466  0137               	movlb	55	; () banked
  4535  001468  51F5               	movf	245,w,b	;volatile
  4536  00146A  0B0F               	andlw	15
  4537  00146C  6EDF               	movwf	indf2,c
  4538  00146E                     
  4539                           ; BSR set to: 55
  4540                           ;mcc_generated_files/ecan.c: 259:         tempCanMsg->frame.rtr = RXB1DLC >> 6;
  4541  00146E  0100               	movlb	0	; () banked
  4542  001470  EE20 F00E          	lfsr	2,14
  4543  001474  5173               	movf	CAN_receive@tempCanMsg& (0+255),w,b
  4544  001476  26D9               	addwf	fsr2l,f,c
  4545  001478  5174               	movf	(CAN_receive@tempCanMsg+1)& (0+255),w,b
  4546  00147A  22DA               	addwfc	fsr2h,f,c
  4547  00147C  0137               	movlb	55	; () banked
  4548  00147E  45F5               	rlncf	245,w,b	;volatile
  4549  001480  46E8               	rlncf	wreg,f,c
  4550  001482  0B03               	andlw	3
  4551  001484  6EDF               	movwf	indf2,c
  4552  001486                     
  4553                           ; BSR set to: 55
  4554                           ;mcc_generated_files/ecan.c: 260:         tempCanMsg->frame.data0 = RXB1D0;
  4555  001486  0100               	movlb	0	; () banked
  4556  001488  EE20 F006          	lfsr	2,6
  4557  00148C  5173               	movf	CAN_receive@tempCanMsg& (0+255),w,b
  4558  00148E  26D9               	addwf	fsr2l,f,c
  4559  001490  5174               	movf	(CAN_receive@tempCanMsg+1)& (0+255),w,b
  4560  001492  22DA               	addwfc	fsr2h,f,c
  4561  001494  006D FFDB FFDF     	movff	14326,indf2	;volatile
  4562  00149A                     
  4563                           ; BSR set to: 0
  4564                           ;mcc_generated_files/ecan.c: 261:         tempCanMsg->frame.data1 = RXB1D1;
  4565  00149A  EE20 F007          	lfsr	2,7
  4566  00149E  5173               	movf	CAN_receive@tempCanMsg& (0+255),w,b
  4567  0014A0  26D9               	addwf	fsr2l,f,c
  4568  0014A2  5174               	movf	(CAN_receive@tempCanMsg+1)& (0+255),w,b
  4569  0014A4  22DA               	addwfc	fsr2h,f,c
  4570  0014A6  006D FFDF FFDF     	movff	14327,indf2	;volatile
  4571  0014AC                     
  4572                           ; BSR set to: 0
  4573                           ;mcc_generated_files/ecan.c: 262:         tempCanMsg->frame.data2 = RXB1D2;
  4574  0014AC  EE20 F008          	lfsr	2,8
  4575  0014B0  5173               	movf	CAN_receive@tempCanMsg& (0+255),w,b
  4576  0014B2  26D9               	addwf	fsr2l,f,c
  4577  0014B4  5174               	movf	(CAN_receive@tempCanMsg+1)& (0+255),w,b
  4578  0014B6  22DA               	addwfc	fsr2h,f,c
  4579  0014B8  006D FFE3 FFDF     	movff	14328,indf2	;volatile
  4580  0014BE                     
  4581                           ; BSR set to: 0
  4582                           ;mcc_generated_files/ecan.c: 263:         tempCanMsg->frame.data3 = RXB1D3;
  4583  0014BE  EE20 F009          	lfsr	2,9
  4584  0014C2  5173               	movf	CAN_receive@tempCanMsg& (0+255),w,b
  4585  0014C4  26D9               	addwf	fsr2l,f,c
  4586  0014C6  5174               	movf	(CAN_receive@tempCanMsg+1)& (0+255),w,b
  4587  0014C8  22DA               	addwfc	fsr2h,f,c
  4588  0014CA  006D FFE7 FFDF     	movff	14329,indf2	;volatile
  4589  0014D0                     
  4590                           ; BSR set to: 0
  4591                           ;mcc_generated_files/ecan.c: 264:         tempCanMsg->frame.data4 = RXB1D4;
  4592  0014D0  EE20 F00A          	lfsr	2,10
  4593  0014D4  5173               	movf	CAN_receive@tempCanMsg& (0+255),w,b
  4594  0014D6  26D9               	addwf	fsr2l,f,c
  4595  0014D8  5174               	movf	(CAN_receive@tempCanMsg+1)& (0+255),w,b
  4596  0014DA  22DA               	addwfc	fsr2h,f,c
  4597  0014DC  006D FFEB FFDF     	movff	14330,indf2	;volatile
  4598  0014E2                     
  4599                           ; BSR set to: 0
  4600                           ;mcc_generated_files/ecan.c: 265:         tempCanMsg->frame.data5 = RXB1D5;
  4601  0014E2  EE20 F00B          	lfsr	2,11
  4602  0014E6  5173               	movf	CAN_receive@tempCanMsg& (0+255),w,b
  4603  0014E8  26D9               	addwf	fsr2l,f,c
  4604  0014EA  5174               	movf	(CAN_receive@tempCanMsg+1)& (0+255),w,b
  4605  0014EC  22DA               	addwfc	fsr2h,f,c
  4606  0014EE  006D FFEF FFDF     	movff	14331,indf2	;volatile
  4607  0014F4                     
  4608                           ; BSR set to: 0
  4609                           ;mcc_generated_files/ecan.c: 266:         tempCanMsg->frame.data6 = RXB1D6;
  4610  0014F4  EE20 F00C          	lfsr	2,12
  4611  0014F8  5173               	movf	CAN_receive@tempCanMsg& (0+255),w,b
  4612  0014FA  26D9               	addwf	fsr2l,f,c
  4613  0014FC  5174               	movf	(CAN_receive@tempCanMsg+1)& (0+255),w,b
  4614  0014FE  22DA               	addwfc	fsr2h,f,c
  4615  001500  006D FFF3 FFDF     	movff	14332,indf2	;volatile
  4616  001506                     
  4617                           ; BSR set to: 0
  4618                           ;mcc_generated_files/ecan.c: 267:         tempCanMsg->frame.data7 = RXB1D7;
  4619  001506  EE20 F00D          	lfsr	2,13
  4620  00150A  5173               	movf	CAN_receive@tempCanMsg& (0+255),w,b
  4621  00150C  26D9               	addwf	fsr2l,f,c
  4622  00150E  5174               	movf	(CAN_receive@tempCanMsg+1)& (0+255),w,b
  4623  001510  22DA               	addwfc	fsr2h,f,c
  4624  001512  006D FFF7 FFDF     	movff	14333,indf2	;volatile
  4625  001518                     
  4626                           ; BSR set to: 0
  4627                           ;mcc_generated_files/ecan.c: 268:         RXB1CONbits.RXFUL = 0;
  4628  001518  0137               	movlb	55	; () banked
  4629  00151A  9FF0               	bcf	240,7,b	;volatile
  4630  00151C  EFCF  F009         	goto	l4289
  4631  001520                     l4325:
  4632                           
  4633                           ;mcc_generated_files/ecan.c: 271:     return (returnValue);
  4634  001520  0100               	movlb	0	; () banked
  4635  001522  5175               	movf	CAN_receive@returnValue& (0+255),w,b
  4636  001524                     
  4637                           ; BSR set to: 0
  4638  001524  0012               	return		;funcret
  4639  001526                     __end_of_CAN_receive:
  4640                           	callstack 0
  4641                           
  4642 ;; *************** function _convertReg2StandardCANid *****************
  4643 ;; Defined at:
  4644 ;;		line 358 in file "mcc_generated_files/ecan.c"
  4645 ;; Parameters:    Size  Location     Type
  4646 ;;  tempRXBn_SID    1    wreg     unsigned char 
  4647 ;;  tempRXBn_SID    1    0[BANK0 ] unsigned char 
  4648 ;; Auto vars:     Size  Location     Type
  4649 ;;  tempRXBn_SID    1    6[BANK0 ] unsigned char 
  4650 ;;  ConvertedID     4   11[BANK0 ] unsigned long 
  4651 ;;  returnValue     4    7[BANK0 ] unsigned long 
  4652 ;; Return value:  Size  Location     Type
  4653 ;;                  4    0[BANK0 ] unsigned long 
  4654 ;; Registers used:
  4655 ;;		wreg, status,2, status,0
  4656 ;; Tracked objects:
  4657 ;;		On entry : 0/0
  4658 ;;		On exit  : 0/0
  4659 ;;		Unchanged: 0/0
  4660 ;; Data sizes:     COMRAM   BANK0   BANK1   BANK2   BANK3   BANK4   BANK5   BANK6   BANK7   BANK8   BANK9  BANK10  BANK1
      +1  BANK12  BANK13  BANK14  BANK15
  4661 ;;      Params:         0       4       0       0       0       0       0       0       0       0       0       0       
      +0       0       0       0       0
  4662 ;;      Locals:         0       9       0       0       0       0       0       0       0       0       0       0       
      +0       0       0       0       0
  4663 ;;      Temps:          0       2       0       0       0       0       0       0       0       0       0       0       
      +0       0       0       0       0
  4664 ;;      Totals:         0      15       0       0       0       0       0       0       0       0       0       0       
      +0       0       0       0       0
  4665 ;;Total ram usage:       15 bytes
  4666 ;; Hardware stack levels used: 1
  4667 ;; Hardware stack levels required when called: 6
  4668 ;; This function calls:
  4669 ;;		Nothing
  4670 ;; This function is called by:
  4671 ;;		_CAN_receive
  4672 ;; This function uses a non-reentrant model
  4673 ;;
  4674                           
  4675                           	psect	text13
  4676  002B70                     __ptext13:
  4677                           	callstack 0
  4678  002B70                     _convertReg2StandardCANid:
  4679                           	callstack 20
  4680                           
  4681                           ; BSR set to: 0
  4682                           ;incstack = 0
  4683                           ;convertReg2StandardCANid@tempRXBn_SIDH stored from wreg
  4684  002B70  0100               	movlb	0	; () banked
  4685  002B72  6F66               	movwf	convertReg2StandardCANid@tempRXBn_SIDH& (0+255),b
  4686  002B74                     
  4687                           ;mcc_generated_files/ecan.c: 361:     uint32_t ConvertedID;;mcc_generated_files/ecan.c: 
      +                          365:     ConvertedID = (uint32_t)(tempRXBn_SIDH << 3);
  4688  002B74  0100               	movlb	0	; () banked
  4689  002B76  5166               	movf	convertReg2StandardCANid@tempRXBn_SIDH& (0+255),w,b
  4690  002B78  6F64               	movwf	??_convertReg2StandardCANid& (0+255),b
  4691  002B7A  6B65               	clrf	(??_convertReg2StandardCANid+1)& (0+255),b
  4692  002B7C  90D8               	bcf	status,0,c
  4693  002B7E  3764               	rlcf	??_convertReg2StandardCANid& (0+255),f,b
  4694  002B80  3765               	rlcf	(??_convertReg2StandardCANid+1)& (0+255),f,b
  4695  002B82  90D8               	bcf	status,0,c
  4696  002B84  3764               	rlcf	??_convertReg2StandardCANid& (0+255),f,b
  4697  002B86  3765               	rlcf	(??_convertReg2StandardCANid+1)& (0+255),f,b
  4698  002B88  90D8               	bcf	status,0,c
  4699  002B8A  3764               	rlcf	??_convertReg2StandardCANid& (0+255),f,b
  4700  002B8C  3765               	rlcf	(??_convertReg2StandardCANid+1)& (0+255),f,b
  4701  002B8E  C064  F06B         	movff	??_convertReg2StandardCANid,convertReg2StandardCANid@ConvertedID
  4702  002B92  C065  F06C         	movff	??_convertReg2StandardCANid+1,convertReg2StandardCANid@ConvertedID+1
  4703  002B96  0E00               	movlw	0
  4704  002B98  BF6C               	btfsc	(convertReg2StandardCANid@ConvertedID+1)& (0+255),7,b
  4705  002B9A  0EFF               	movlw	-1
  4706  002B9C  6F6D               	movwf	(convertReg2StandardCANid@ConvertedID+2)& (0+255),b
  4707  002B9E  6F6E               	movwf	(convertReg2StandardCANid@ConvertedID+3)& (0+255),b
  4708  002BA0                     
  4709                           ; BSR set to: 0
  4710                           ;mcc_generated_files/ecan.c: 366:     ConvertedID = ConvertedID + (uint32_t)(tempRXBn_SI
      +                          DL >> 5);
  4711  002BA0  C060  F064         	movff	convertReg2StandardCANid@tempRXBn_SIDL,??_convertReg2StandardCANid
  4712  002BA4  0E05               	movlw	5
  4713  002BA6  6F65               	movwf	(??_convertReg2StandardCANid+1)& (0+255),b
  4714  002BA8                     u1775:
  4715  002BA8  90D8               	bcf	status,0,c
  4716  002BAA  3364               	rrcf	??_convertReg2StandardCANid& (0+255),f,b
  4717  002BAC  2F65               	decfsz	(??_convertReg2StandardCANid+1)& (0+255),f,b
  4718  002BAE  EFD4  F015         	goto	u1775
  4719  002BB2  5164               	movf	??_convertReg2StandardCANid& (0+255),w,b
  4720  002BB4  256B               	addwf	convertReg2StandardCANid@ConvertedID& (0+255),w,b
  4721  002BB6  6F6B               	movwf	convertReg2StandardCANid@ConvertedID& (0+255),b
  4722  002BB8  0E00               	movlw	0
  4723  002BBA  216C               	addwfc	(convertReg2StandardCANid@ConvertedID+1)& (0+255),w,b
  4724  002BBC  6F6C               	movwf	(convertReg2StandardCANid@ConvertedID+1)& (0+255),b
  4725  002BBE  0E00               	movlw	0
  4726  002BC0  216D               	addwfc	(convertReg2StandardCANid@ConvertedID+2)& (0+255),w,b
  4727  002BC2  6F6D               	movwf	(convertReg2StandardCANid@ConvertedID+2)& (0+255),b
  4728  002BC4  0E00               	movlw	0
  4729  002BC6  216E               	addwfc	(convertReg2StandardCANid@ConvertedID+3)& (0+255),w,b
  4730  002BC8  6F6E               	movwf	(convertReg2StandardCANid@ConvertedID+3)& (0+255),b
  4731  002BCA                     
  4732                           ; BSR set to: 0
  4733                           ;mcc_generated_files/ecan.c: 367:     returnValue = ConvertedID;
  4734  002BCA  C06B  F067         	movff	convertReg2StandardCANid@ConvertedID,convertReg2StandardCANid@returnValue
  4735  002BCE  C06C  F068         	movff	convertReg2StandardCANid@ConvertedID+1,convertReg2StandardCANid@returnValue+1
  4736  002BD2  C06D  F069         	movff	convertReg2StandardCANid@ConvertedID+2,convertReg2StandardCANid@returnValue+2
  4737  002BD6  C06E  F06A         	movff	convertReg2StandardCANid@ConvertedID+3,convertReg2StandardCANid@returnValue+3
  4738  002BDA                     
  4739                           ; BSR set to: 0
  4740                           ;mcc_generated_files/ecan.c: 368:     return (returnValue);
  4741  002BDA  C067  F060         	movff	convertReg2StandardCANid@returnValue,?_convertReg2StandardCANid
  4742  002BDE  C068  F061         	movff	convertReg2StandardCANid@returnValue+1,?_convertReg2StandardCANid+1
  4743  002BE2  C069  F062         	movff	convertReg2StandardCANid@returnValue+2,?_convertReg2StandardCANid+2
  4744  002BE6  C06A  F063         	movff	convertReg2StandardCANid@returnValue+3,?_convertReg2StandardCANid+3
  4745  002BEA                     
  4746                           ; BSR set to: 0
  4747  002BEA  0012               	return		;funcret
  4748  002BEC                     __end_of_convertReg2StandardCANid:
  4749                           	callstack 0
  4750                           
  4751 ;; *************** function _convertReg2ExtendedCANid *****************
  4752 ;; Defined at:
  4753 ;;		line 337 in file "mcc_generated_files/ecan.c"
  4754 ;; Parameters:    Size  Location     Type
  4755 ;;  tempRXBn_EID    1    wreg     unsigned char 
  4756 ;;  tempRXBn_EID    1    0[BANK0 ] unsigned char 
  4757 ;;  tempRXBn_SID    1    1[BANK0 ] unsigned char 
  4758 ;;  tempRXBn_SID    1    2[BANK0 ] unsigned char 
  4759 ;; Auto vars:     Size  Location     Type
  4760 ;;  tempRXBn_EID    1    8[BANK0 ] unsigned char 
  4761 ;;  ConvertedID     4   15[BANK0 ] unsigned long 
  4762 ;;  returnValue     4    9[BANK0 ] unsigned long 
  4763 ;;  CAN_standard    1   14[BANK0 ] unsigned char 
  4764 ;;  CAN_standard    1   13[BANK0 ] unsigned char 
  4765 ;; Return value:  Size  Location     Type
  4766 ;;                  4    0[BANK0 ] unsigned long 
  4767 ;; Registers used:
  4768 ;;		wreg, status,2, status,0
  4769 ;; Tracked objects:
  4770 ;;		On entry : 0/0
  4771 ;;		On exit  : 0/0
  4772 ;;		Unchanged: 0/0
  4773 ;; Data sizes:     COMRAM   BANK0   BANK1   BANK2   BANK3   BANK4   BANK5   BANK6   BANK7   BANK8   BANK9  BANK10  BANK1
      +1  BANK12  BANK13  BANK14  BANK15
  4774 ;;      Params:         0       4       0       0       0       0       0       0       0       0       0       0       
      +0       0       0       0       0
  4775 ;;      Locals:         0      11       0       0       0       0       0       0       0       0       0       0       
      +0       0       0       0       0
  4776 ;;      Temps:          0       4       0       0       0       0       0       0       0       0       0       0       
      +0       0       0       0       0
  4777 ;;      Totals:         0      19       0       0       0       0       0       0       0       0       0       0       
      +0       0       0       0       0
  4778 ;;Total ram usage:       19 bytes
  4779 ;; Hardware stack levels used: 1
  4780 ;; Hardware stack levels required when called: 6
  4781 ;; This function calls:
  4782 ;;		Nothing
  4783 ;; This function is called by:
  4784 ;;		_CAN_receive
  4785 ;; This function uses a non-reentrant model
  4786 ;;
  4787                           
  4788                           	psect	text14
  4789  001AD0                     __ptext14:
  4790                           	callstack 0
  4791  001AD0                     _convertReg2ExtendedCANid:
  4792                           	callstack 20
  4793                           
  4794                           ; BSR set to: 0
  4795                           ;incstack = 0
  4796                           ;convertReg2ExtendedCANid@tempRXBn_EIDH stored from wreg
  4797  001AD0  0100               	movlb	0	; () banked
  4798  001AD2  6F68               	movwf	convertReg2ExtendedCANid@tempRXBn_EIDH& (0+255),b
  4799  001AD4                     
  4800                           ;mcc_generated_files/ecan.c: 340:     uint32_t ConvertedID = 0;
  4801  001AD4  0E00               	movlw	0
  4802  001AD6  0100               	movlb	0	; () banked
  4803  001AD8  6F6F               	movwf	convertReg2ExtendedCANid@ConvertedID& (0+255),b
  4804  001ADA  0E00               	movlw	0
  4805  001ADC  6F70               	movwf	(convertReg2ExtendedCANid@ConvertedID+1)& (0+255),b
  4806  001ADE  0E00               	movlw	0
  4807  001AE0  6F71               	movwf	(convertReg2ExtendedCANid@ConvertedID+2)& (0+255),b
  4808  001AE2  0E00               	movlw	0
  4809  001AE4  6F72               	movwf	(convertReg2ExtendedCANid@ConvertedID+3)& (0+255),b
  4810  001AE6                     
  4811                           ; BSR set to: 0
  4812                           ;mcc_generated_files/ecan.c: 341:     uint8_t CAN_standardLo_ID_lo2bits;;mcc_generated_f
      +                          iles/ecan.c: 342:     uint8_t CAN_standardLo_ID_hi3bits;;mcc_generated_files/ecan.c: 344
      +                          :     CAN_standardLo_ID_lo2bits = (uint8_t)(tempRXBn_SIDL & 0x03);
  4813  001AE6  5162               	movf	convertReg2ExtendedCANid@tempRXBn_SIDL& (0+255),w,b
  4814  001AE8  0B03               	andlw	3
  4815  001AEA  6F6D               	movwf	convertReg2ExtendedCANid@CAN_standardLo_ID_lo2bits& (0+255),b
  4816  001AEC                     
  4817                           ; BSR set to: 0
  4818                           ;mcc_generated_files/ecan.c: 345:     CAN_standardLo_ID_hi3bits = (uint8_t)(tempRXBn_SID
      +                          L >> 5);
  4819  001AEC  3962               	swapf	convertReg2ExtendedCANid@tempRXBn_SIDL& (0+255),w,b
  4820  001AEE  42E8               	rrncf	wreg,f,c
  4821  001AF0  0B07               	andlw	7
  4822  001AF2  6F6E               	movwf	convertReg2ExtendedCANid@CAN_standardLo_ID_hi3bits& (0+255),b
  4823  001AF4                     
  4824                           ; BSR set to: 0
  4825                           ;mcc_generated_files/ecan.c: 346:     ConvertedID = (uint32_t)(tempRXBn_SIDH << 3);
  4826  001AF4  5161               	movf	convertReg2ExtendedCANid@tempRXBn_SIDH& (0+255),w,b
  4827  001AF6  6F64               	movwf	??_convertReg2ExtendedCANid& (0+255),b
  4828  001AF8  6B65               	clrf	(??_convertReg2ExtendedCANid+1)& (0+255),b
  4829  001AFA  90D8               	bcf	status,0,c
  4830  001AFC  3764               	rlcf	??_convertReg2ExtendedCANid& (0+255),f,b
  4831  001AFE  3765               	rlcf	(??_convertReg2ExtendedCANid+1)& (0+255),f,b
  4832  001B00  90D8               	bcf	status,0,c
  4833  001B02  3764               	rlcf	??_convertReg2ExtendedCANid& (0+255),f,b
  4834  001B04  3765               	rlcf	(??_convertReg2ExtendedCANid+1)& (0+255),f,b
  4835  001B06  90D8               	bcf	status,0,c
  4836  001B08  3764               	rlcf	??_convertReg2ExtendedCANid& (0+255),f,b
  4837  001B0A  3765               	rlcf	(??_convertReg2ExtendedCANid+1)& (0+255),f,b
  4838  001B0C  C064  F06F         	movff	??_convertReg2ExtendedCANid,convertReg2ExtendedCANid@ConvertedID
  4839  001B10  C065  F070         	movff	??_convertReg2ExtendedCANid+1,convertReg2ExtendedCANid@ConvertedID+1
  4840  001B14  0E00               	movlw	0
  4841  001B16  BF70               	btfsc	(convertReg2ExtendedCANid@ConvertedID+1)& (0+255),7,b
  4842  001B18  0EFF               	movlw	-1
  4843  001B1A  6F71               	movwf	(convertReg2ExtendedCANid@ConvertedID+2)& (0+255),b
  4844  001B1C  6F72               	movwf	(convertReg2ExtendedCANid@ConvertedID+3)& (0+255),b
  4845  001B1E                     
  4846                           ; BSR set to: 0
  4847                           ;mcc_generated_files/ecan.c: 347:     ConvertedID = ConvertedID + CAN_standardLo_ID_hi3b
      +                          its;
  4848  001B1E  516E               	movf	convertReg2ExtendedCANid@CAN_standardLo_ID_hi3bits& (0+255),w,b
  4849  001B20  256F               	addwf	convertReg2ExtendedCANid@ConvertedID& (0+255),w,b
  4850  001B22  6F6F               	movwf	convertReg2ExtendedCANid@ConvertedID& (0+255),b
  4851  001B24  0E00               	movlw	0
  4852  001B26  2170               	addwfc	(convertReg2ExtendedCANid@ConvertedID+1)& (0+255),w,b
  4853  001B28  6F70               	movwf	(convertReg2ExtendedCANid@ConvertedID+1)& (0+255),b
  4854  001B2A  0E00               	movlw	0
  4855  001B2C  2171               	addwfc	(convertReg2ExtendedCANid@ConvertedID+2)& (0+255),w,b
  4856  001B2E  6F71               	movwf	(convertReg2ExtendedCANid@ConvertedID+2)& (0+255),b
  4857  001B30  0E00               	movlw	0
  4858  001B32  2172               	addwfc	(convertReg2ExtendedCANid@ConvertedID+3)& (0+255),w,b
  4859  001B34  6F72               	movwf	(convertReg2ExtendedCANid@ConvertedID+3)& (0+255),b
  4860  001B36                     
  4861                           ; BSR set to: 0
  4862                           ;mcc_generated_files/ecan.c: 348:     ConvertedID = (ConvertedID << 2);
  4863  001B36  C06F  F064         	movff	convertReg2ExtendedCANid@ConvertedID,??_convertReg2ExtendedCANid
  4864  001B3A  C070  F065         	movff	convertReg2ExtendedCANid@ConvertedID+1,??_convertReg2ExtendedCANid+1
  4865  001B3E  C071  F066         	movff	convertReg2ExtendedCANid@ConvertedID+2,??_convertReg2ExtendedCANid+2
  4866  001B42  C072  F067         	movff	convertReg2ExtendedCANid@ConvertedID+3,??_convertReg2ExtendedCANid+3
  4867  001B46  0E02               	movlw	2
  4868  001B48                     u1765:
  4869  001B48  90D8               	bcf	status,0,c
  4870  001B4A  3764               	rlcf	??_convertReg2ExtendedCANid& (0+255),f,b
  4871  001B4C  3765               	rlcf	(??_convertReg2ExtendedCANid+1)& (0+255),f,b
  4872  001B4E  3766               	rlcf	(??_convertReg2ExtendedCANid+2)& (0+255),f,b
  4873  001B50  3767               	rlcf	(??_convertReg2ExtendedCANid+3)& (0+255),f,b
  4874  001B52  2EE8               	decfsz	wreg,f,c
  4875  001B54  EFA4  F00D         	goto	u1765
  4876  001B58  C064  F06F         	movff	??_convertReg2ExtendedCANid,convertReg2ExtendedCANid@ConvertedID
  4877  001B5C  C065  F070         	movff	??_convertReg2ExtendedCANid+1,convertReg2ExtendedCANid@ConvertedID+1
  4878  001B60  C066  F071         	movff	??_convertReg2ExtendedCANid+2,convertReg2ExtendedCANid@ConvertedID+2
  4879  001B64  C067  F072         	movff	??_convertReg2ExtendedCANid+3,convertReg2ExtendedCANid@ConvertedID+3
  4880  001B68                     
  4881                           ; BSR set to: 0
  4882                           ;mcc_generated_files/ecan.c: 349:     ConvertedID = ConvertedID + CAN_standardLo_ID_lo2b
      +                          its;
  4883  001B68  516D               	movf	convertReg2ExtendedCANid@CAN_standardLo_ID_lo2bits& (0+255),w,b
  4884  001B6A  256F               	addwf	convertReg2ExtendedCANid@ConvertedID& (0+255),w,b
  4885  001B6C  6F6F               	movwf	convertReg2ExtendedCANid@ConvertedID& (0+255),b
  4886  001B6E  0E00               	movlw	0
  4887  001B70  2170               	addwfc	(convertReg2ExtendedCANid@ConvertedID+1)& (0+255),w,b
  4888  001B72  6F70               	movwf	(convertReg2ExtendedCANid@ConvertedID+1)& (0+255),b
  4889  001B74  0E00               	movlw	0
  4890  001B76  2171               	addwfc	(convertReg2ExtendedCANid@ConvertedID+2)& (0+255),w,b
  4891  001B78  6F71               	movwf	(convertReg2ExtendedCANid@ConvertedID+2)& (0+255),b
  4892  001B7A  0E00               	movlw	0
  4893  001B7C  2172               	addwfc	(convertReg2ExtendedCANid@ConvertedID+3)& (0+255),w,b
  4894  001B7E  6F72               	movwf	(convertReg2ExtendedCANid@ConvertedID+3)& (0+255),b
  4895                           
  4896                           ;mcc_generated_files/ecan.c: 350:     ConvertedID = (ConvertedID << 8);
  4897  001B80  C06F  F065         	movff	convertReg2ExtendedCANid@ConvertedID,??_convertReg2ExtendedCANid+1
  4898  001B84  C070  F066         	movff	convertReg2ExtendedCANid@ConvertedID+1,??_convertReg2ExtendedCANid+2
  4899  001B88  C071  F067         	movff	convertReg2ExtendedCANid@ConvertedID+2,??_convertReg2ExtendedCANid+3
  4900  001B8C  6B64               	clrf	??_convertReg2ExtendedCANid& (0+255),b
  4901  001B8E  C064  F06F         	movff	??_convertReg2ExtendedCANid,convertReg2ExtendedCANid@ConvertedID
  4902  001B92  C065  F070         	movff	??_convertReg2ExtendedCANid+1,convertReg2ExtendedCANid@ConvertedID+1
  4903  001B96  C066  F071         	movff	??_convertReg2ExtendedCANid+2,convertReg2ExtendedCANid@ConvertedID+2
  4904  001B9A  C067  F072         	movff	??_convertReg2ExtendedCANid+3,convertReg2ExtendedCANid@ConvertedID+3
  4905  001B9E                     
  4906                           ; BSR set to: 0
  4907                           ;mcc_generated_files/ecan.c: 351:     ConvertedID = ConvertedID + tempRXBn_EIDH;
  4908  001B9E  5168               	movf	convertReg2ExtendedCANid@tempRXBn_EIDH& (0+255),w,b
  4909  001BA0  256F               	addwf	convertReg2ExtendedCANid@ConvertedID& (0+255),w,b
  4910  001BA2  6F6F               	movwf	convertReg2ExtendedCANid@ConvertedID& (0+255),b
  4911  001BA4  0E00               	movlw	0
  4912  001BA6  2170               	addwfc	(convertReg2ExtendedCANid@ConvertedID+1)& (0+255),w,b
  4913  001BA8  6F70               	movwf	(convertReg2ExtendedCANid@ConvertedID+1)& (0+255),b
  4914  001BAA  0E00               	movlw	0
  4915  001BAC  2171               	addwfc	(convertReg2ExtendedCANid@ConvertedID+2)& (0+255),w,b
  4916  001BAE  6F71               	movwf	(convertReg2ExtendedCANid@ConvertedID+2)& (0+255),b
  4917  001BB0  0E00               	movlw	0
  4918  001BB2  2172               	addwfc	(convertReg2ExtendedCANid@ConvertedID+3)& (0+255),w,b
  4919  001BB4  6F72               	movwf	(convertReg2ExtendedCANid@ConvertedID+3)& (0+255),b
  4920  001BB6                     
  4921                           ; BSR set to: 0
  4922                           ;mcc_generated_files/ecan.c: 352:     ConvertedID = (ConvertedID << 8);
  4923  001BB6  C06F  F065         	movff	convertReg2ExtendedCANid@ConvertedID,??_convertReg2ExtendedCANid+1
  4924  001BBA  C070  F066         	movff	convertReg2ExtendedCANid@ConvertedID+1,??_convertReg2ExtendedCANid+2
  4925  001BBE  C071  F067         	movff	convertReg2ExtendedCANid@ConvertedID+2,??_convertReg2ExtendedCANid+3
  4926  001BC2  6B64               	clrf	??_convertReg2ExtendedCANid& (0+255),b
  4927  001BC4  C064  F06F         	movff	??_convertReg2ExtendedCANid,convertReg2ExtendedCANid@ConvertedID
  4928  001BC8  C065  F070         	movff	??_convertReg2ExtendedCANid+1,convertReg2ExtendedCANid@ConvertedID+1
  4929  001BCC  C066  F071         	movff	??_convertReg2ExtendedCANid+2,convertReg2ExtendedCANid@ConvertedID+2
  4930  001BD0  C067  F072         	movff	??_convertReg2ExtendedCANid+3,convertReg2ExtendedCANid@ConvertedID+3
  4931                           
  4932                           ;mcc_generated_files/ecan.c: 353:     ConvertedID = ConvertedID + tempRXBn_EIDL;
  4933  001BD4  5160               	movf	convertReg2ExtendedCANid@tempRXBn_EIDL& (0+255),w,b
  4934  001BD6  256F               	addwf	convertReg2ExtendedCANid@ConvertedID& (0+255),w,b
  4935  001BD8  6F6F               	movwf	convertReg2ExtendedCANid@ConvertedID& (0+255),b
  4936  001BDA  0E00               	movlw	0
  4937  001BDC  2170               	addwfc	(convertReg2ExtendedCANid@ConvertedID+1)& (0+255),w,b
  4938  001BDE  6F70               	movwf	(convertReg2ExtendedCANid@ConvertedID+1)& (0+255),b
  4939  001BE0  0E00               	movlw	0
  4940  001BE2  2171               	addwfc	(convertReg2ExtendedCANid@ConvertedID+2)& (0+255),w,b
  4941  001BE4  6F71               	movwf	(convertReg2ExtendedCANid@ConvertedID+2)& (0+255),b
  4942  001BE6  0E00               	movlw	0
  4943  001BE8  2172               	addwfc	(convertReg2ExtendedCANid@ConvertedID+3)& (0+255),w,b
  4944  001BEA  6F72               	movwf	(convertReg2ExtendedCANid@ConvertedID+3)& (0+255),b
  4945  001BEC                     
  4946                           ; BSR set to: 0
  4947                           ;mcc_generated_files/ecan.c: 354:     returnValue = ConvertedID;
  4948  001BEC  C06F  F069         	movff	convertReg2ExtendedCANid@ConvertedID,convertReg2ExtendedCANid@returnValue
  4949  001BF0  C070  F06A         	movff	convertReg2ExtendedCANid@ConvertedID+1,convertReg2ExtendedCANid@returnValue+1
  4950  001BF4  C071  F06B         	movff	convertReg2ExtendedCANid@ConvertedID+2,convertReg2ExtendedCANid@returnValue+2
  4951  001BF8  C072  F06C         	movff	convertReg2ExtendedCANid@ConvertedID+3,convertReg2ExtendedCANid@returnValue+3
  4952  001BFC                     
  4953                           ; BSR set to: 0
  4954                           ;mcc_generated_files/ecan.c: 355:     return (returnValue);
  4955  001BFC  C069  F060         	movff	convertReg2ExtendedCANid@returnValue,?_convertReg2ExtendedCANid
  4956  001C00  C06A  F061         	movff	convertReg2ExtendedCANid@returnValue+1,?_convertReg2ExtendedCANid+1
  4957  001C04  C06B  F062         	movff	convertReg2ExtendedCANid@returnValue+2,?_convertReg2ExtendedCANid+2
  4958  001C08  C06C  F063         	movff	convertReg2ExtendedCANid@returnValue+3,?_convertReg2ExtendedCANid+3
  4959  001C0C                     
  4960                           ; BSR set to: 0
  4961  001C0C  0012               	return		;funcret
  4962  001C0E                     __end_of_convertReg2ExtendedCANid:
  4963                           	callstack 0
  4964                           
  4965 ;; *************** function _getPositionFrame *****************
  4966 ;; Defined at:
  4967 ;;		line 388 in file "driveControl/commControl.c"
  4968 ;; Parameters:    Size  Location     Type
  4969 ;;  me              2   27[BANK0 ] PTR struct CommControl_
  4970 ;;		 -> theFactory(233), NULL(0), 
  4971 ;; Auto vars:     Size  Location     Type
  4972 ;;  msg            15   33[BANK0 ] struct .
  4973 ;;  position        4   29[BANK0 ] unsigned long 
  4974 ;; Return value:  Size  Location     Type
  4975 ;;                  1    wreg      void 
  4976 ;; Registers used:
  4977 ;;		wreg, fsr2l, fsr2h, status,2, status,0, cstack
  4978 ;; Tracked objects:
  4979 ;;		On entry : 0/0
  4980 ;;		On exit  : 0/0
  4981 ;;		Unchanged: 0/0
  4982 ;; Data sizes:     COMRAM   BANK0   BANK1   BANK2   BANK3   BANK4   BANK5   BANK6   BANK7   BANK8   BANK9  BANK10  BANK1
      +1  BANK12  BANK13  BANK14  BANK15
  4983 ;;      Params:         0       2       0       0       0       0       0       0       0       0       0       0       
      +0       0       0       0       0
  4984 ;;      Locals:         0      19       0       0       0       0       0       0       0       0       0       0       
      +0       0       0       0       0
  4985 ;;      Temps:          0       0       0       0       0       0       0       0       0       0       0       0       
      +0       0       0       0       0
  4986 ;;      Totals:         0      21       0       0       0       0       0       0       0       0       0       0       
      +0       0       0       0       0
  4987 ;;Total ram usage:       21 bytes
  4988 ;; Hardware stack levels used: 1
  4989 ;; Hardware stack levels required when called: 8
  4990 ;; This function calls:
  4991 ;;		_CAN_transmit
  4992 ;; This function is called by:
  4993 ;;		_commControl_processEvent
  4994 ;; This function uses a non-reentrant model
  4995 ;;
  4996                           
  4997                           	psect	text15
  4998  0030F8                     __ptext15:
  4999                           	callstack 0
  5000  0030F8                     _getPositionFrame:
  5001                           	callstack 20
  5002  0030F8                     
  5003                           ;driveControl/commControl.c: 389:     uint32_t position;;driveControl/commControl.c: 391
      +                          :     uCAN_MSG msg;;driveControl/commControl.c: 392:     msg.frame.idType = 1;
  5004  0030F8  0E01               	movlw	1
  5005  0030FA  0100               	movlb	0	; () banked
  5006  0030FC  6F81               	movwf	getPositionFrame@msg& (0+255),b
  5007                           
  5008                           ;driveControl/commControl.c: 393:     msg.frame.id = 0x512;
  5009  0030FE  0E12               	movlw	18
  5010  003100  6F82               	movwf	(getPositionFrame@msg+1)& (0+255),b
  5011  003102  0E05               	movlw	5
  5012  003104  6F83               	movwf	(getPositionFrame@msg+2)& (0+255),b
  5013  003106  0E00               	movlw	0
  5014  003108  6F84               	movwf	(getPositionFrame@msg+3)& (0+255),b
  5015  00310A  0E00               	movlw	0
  5016  00310C  6F85               	movwf	(getPositionFrame@msg+4)& (0+255),b
  5017                           
  5018                           ;driveControl/commControl.c: 394:     msg.frame.dlc = 4;
  5019  00310E  0E04               	movlw	4
  5020  003110  6F86               	movwf	(getPositionFrame@msg+5)& (0+255),b
  5021  003112                     
  5022                           ; BSR set to: 0
  5023                           ;driveControl/commControl.c: 395:     msg.frame.data3 = (uint8_t)(position);
  5024  003112  C07D  F08A         	movff	getPositionFrame@position,getPositionFrame@msg+9
  5025                           
  5026                           ;driveControl/commControl.c: 396:     msg.frame.data2 = (uint8_t)(position<<8);
  5027  003116  0E00               	movlw	0
  5028  003118  6F89               	movwf	(getPositionFrame@msg+8)& (0+255),b
  5029                           
  5030                           ;driveControl/commControl.c: 397:     msg.frame.data1 = (uint8_t)(position<<16);
  5031  00311A  0E00               	movlw	0
  5032  00311C  6F88               	movwf	(getPositionFrame@msg+7)& (0+255),b
  5033                           
  5034                           ;driveControl/commControl.c: 398:     msg.frame.data0 = (uint8_t)(position<<24);
  5035  00311E  0E00               	movlw	0
  5036  003120  6F87               	movwf	(getPositionFrame@msg+6)& (0+255),b
  5037                           
  5038                           ;driveControl/commControl.c: 399:     msg.frame.rtr = 0;
  5039  003122  0E00               	movlw	0
  5040  003124  6F8F               	movwf	(getPositionFrame@msg+14)& (0+255),b
  5041  003126                     
  5042                           ; BSR set to: 0
  5043                           ;driveControl/commControl.c: 400:     CAN_transmit(&msg);
  5044  003126  0E81               	movlw	low getPositionFrame@msg
  5045  003128  6F72               	movwf	CAN_transmit@tempCanMsg& (0+255),b
  5046  00312A  0E00               	movlw	high getPositionFrame@msg
  5047  00312C  6F73               	movwf	(CAN_transmit@tempCanMsg+1)& (0+255),b
  5048  00312E  EC00  F007         	call	_CAN_transmit	;wreg free
  5049  003132  0012               	return		;funcret
  5050  003134                     __end_of_getPositionFrame:
  5051                           	callstack 0
  5052                           
  5053 ;; *************** function _getCenterFrame *****************
  5054 ;; Defined at:
  5055 ;;		line 353 in file "driveControl/commControl.c"
  5056 ;; Parameters:    Size  Location     Type
  5057 ;;  me              2   27[BANK0 ] PTR struct CommControl_
  5058 ;;		 -> theFactory(233), NULL(0), 
  5059 ;; Auto vars:     Size  Location     Type
  5060 ;;  msgs           15   29[BANK0 ] struct .
  5061 ;; Return value:  Size  Location     Type
  5062 ;;                  1    wreg      void 
  5063 ;; Registers used:
  5064 ;;		wreg, fsr2l, fsr2h, status,2, status,0, cstack
  5065 ;; Tracked objects:
  5066 ;;		On entry : 0/0
  5067 ;;		On exit  : 0/0
  5068 ;;		Unchanged: 0/0
  5069 ;; Data sizes:     COMRAM   BANK0   BANK1   BANK2   BANK3   BANK4   BANK5   BANK6   BANK7   BANK8   BANK9  BANK10  BANK1
      +1  BANK12  BANK13  BANK14  BANK15
  5070 ;;      Params:         0       2       0       0       0       0       0       0       0       0       0       0       
      +0       0       0       0       0
  5071 ;;      Locals:         0      15       0       0       0       0       0       0       0       0       0       0       
      +0       0       0       0       0
  5072 ;;      Temps:          0       0       0       0       0       0       0       0       0       0       0       0       
      +0       0       0       0       0
  5073 ;;      Totals:         0      17       0       0       0       0       0       0       0       0       0       0       
      +0       0       0       0       0
  5074 ;;Total ram usage:       17 bytes
  5075 ;; Hardware stack levels used: 1
  5076 ;; Hardware stack levels required when called: 8
  5077 ;; This function calls:
  5078 ;;		_CAN_transmit
  5079 ;;		_st
  5080 ;;		_store_read
  5081 ;; This function is called by:
  5082 ;;		_commControl_processEvent
  5083 ;; This function uses a non-reentrant model
  5084 ;;
  5085                           
  5086                           	psect	text16
  5087  0027A8                     __ptext16:
  5088                           	callstack 0
  5089  0027A8                     _getCenterFrame:
  5090                           	callstack 20
  5091  0027A8                     
  5092                           ;driveControl/commControl.c: 354:     uCAN_MSG msgs;;driveControl/commControl.c: 355:   
      +                            msgs.frame.idType = 1;
  5093  0027A8  0E01               	movlw	1
  5094  0027AA  0100               	movlb	0	; () banked
  5095  0027AC  6F7D               	movwf	getCenterFrame@msgs& (0+255),b
  5096                           
  5097                           ;driveControl/commControl.c: 356:     msgs.frame.id = 0x511;
  5098  0027AE  0E11               	movlw	17
  5099  0027B0  6F7E               	movwf	(getCenterFrame@msgs+1)& (0+255),b
  5100  0027B2  0E05               	movlw	5
  5101  0027B4  6F7F               	movwf	(getCenterFrame@msgs+2)& (0+255),b
  5102  0027B6  0E00               	movlw	0
  5103  0027B8  6F80               	movwf	(getCenterFrame@msgs+3)& (0+255),b
  5104  0027BA  0E00               	movlw	0
  5105  0027BC  6F81               	movwf	(getCenterFrame@msgs+4)& (0+255),b
  5106                           
  5107                           ;driveControl/commControl.c: 357:     msgs.frame.dlc = 4;
  5108  0027BE  0E04               	movlw	4
  5109  0027C0  6F82               	movwf	(getCenterFrame@msgs+5)& (0+255),b
  5110  0027C2                     
  5111                           ; BSR set to: 0
  5112                           ;driveControl/commControl.c: 359:     msgs.frame.data0 = store_read(st(), EE_CENTER_HH);
  5113  0027C2  EC8A  F01A         	call	_st	;wreg free
  5114  0027C6  C060  F062         	movff	?_st,store_read@me
  5115  0027CA  C061  F063         	movff	?_st+1,store_read@me+1
  5116  0027CE  0E05               	movlw	5
  5117  0027D0  0100               	movlb	0	; () banked
  5118  0027D2  6F64               	movwf	store_read@item& (0+255),b
  5119  0027D4  EC50  F019         	call	_store_read	;wreg free
  5120  0027D8  0100               	movlb	0	; () banked
  5121  0027DA  6F83               	movwf	(getCenterFrame@msgs+6)& (0+255),b
  5122  0027DC                     
  5123                           ; BSR set to: 0
  5124                           ;driveControl/commControl.c: 360:     msgs.frame.data1 = store_read(st(), EE_CENTER_H);
  5125  0027DC  EC8A  F01A         	call	_st	;wreg free
  5126  0027E0  C060  F062         	movff	?_st,store_read@me
  5127  0027E4  C061  F063         	movff	?_st+1,store_read@me+1
  5128  0027E8  0E04               	movlw	4
  5129  0027EA  0100               	movlb	0	; () banked
  5130  0027EC  6F64               	movwf	store_read@item& (0+255),b
  5131  0027EE  EC50  F019         	call	_store_read	;wreg free
  5132  0027F2  0100               	movlb	0	; () banked
  5133  0027F4  6F84               	movwf	(getCenterFrame@msgs+7)& (0+255),b
  5134  0027F6                     
  5135                           ; BSR set to: 0
  5136                           ;driveControl/commControl.c: 361:     msgs.frame.data2 = store_read(st(), EE_CENTER_L);
  5137  0027F6  EC8A  F01A         	call	_st	;wreg free
  5138  0027FA  C060  F062         	movff	?_st,store_read@me
  5139  0027FE  C061  F063         	movff	?_st+1,store_read@me+1
  5140  002802  0E03               	movlw	3
  5141  002804  0100               	movlb	0	; () banked
  5142  002806  6F64               	movwf	store_read@item& (0+255),b
  5143  002808  EC50  F019         	call	_store_read	;wreg free
  5144  00280C  0100               	movlb	0	; () banked
  5145  00280E  6F85               	movwf	(getCenterFrame@msgs+8)& (0+255),b
  5146  002810                     
  5147                           ; BSR set to: 0
  5148                           ;driveControl/commControl.c: 362:     msgs.frame.data3 = store_read(st(), EE_CENTER_LL);
  5149  002810  EC8A  F01A         	call	_st	;wreg free
  5150  002814  C060  F062         	movff	?_st,store_read@me
  5151  002818  C061  F063         	movff	?_st+1,store_read@me+1
  5152  00281C  0E02               	movlw	2
  5153  00281E  0100               	movlb	0	; () banked
  5154  002820  6F64               	movwf	store_read@item& (0+255),b
  5155  002822  EC50  F019         	call	_store_read	;wreg free
  5156  002826  0100               	movlb	0	; () banked
  5157  002828  6F86               	movwf	(getCenterFrame@msgs+9)& (0+255),b
  5158                           
  5159                           ;driveControl/commControl.c: 364:     msgs.frame.rtr = 0;
  5160  00282A  0E00               	movlw	0
  5161  00282C  6F8B               	movwf	(getCenterFrame@msgs+14)& (0+255),b
  5162  00282E                     
  5163                           ; BSR set to: 0
  5164                           ;driveControl/commControl.c: 365:     CAN_transmit(&msgs);
  5165  00282E  0E7D               	movlw	low getCenterFrame@msgs
  5166  002830  6F72               	movwf	CAN_transmit@tempCanMsg& (0+255),b
  5167  002832  0E00               	movlw	high getCenterFrame@msgs
  5168  002834  6F73               	movwf	(CAN_transmit@tempCanMsg+1)& (0+255),b
  5169  002836  EC00  F007         	call	_CAN_transmit	;wreg free
  5170  00283A  0012               	return		;funcret
  5171  00283C                     __end_of_getCenterFrame:
  5172                           	callstack 0
  5173                           
  5174 ;; *************** function _store_read *****************
  5175 ;; Defined at:
  5176 ;;		line 28 in file "driveControl/store.c"
  5177 ;; Parameters:    Size  Location     Type
  5178 ;;  me              2    2[BANK0 ] PTR struct Store_
  5179 ;;		 -> theFactory.st_(5), theFactory(233), 
  5180 ;;  item            1    4[BANK0 ] enum E55
  5181 ;; Auto vars:     Size  Location     Type
  5182 ;;  value           1    5[BANK0 ] unsigned char 
  5183 ;; Return value:  Size  Location     Type
  5184 ;;                  1    wreg      unsigned char 
  5185 ;; Registers used:
  5186 ;;		wreg, fsr2l, fsr2h, status,2, status,0
  5187 ;; Tracked objects:
  5188 ;;		On entry : 0/0
  5189 ;;		On exit  : 0/0
  5190 ;;		Unchanged: 0/0
  5191 ;; Data sizes:     COMRAM   BANK0   BANK1   BANK2   BANK3   BANK4   BANK5   BANK6   BANK7   BANK8   BANK9  BANK10  BANK1
      +1  BANK12  BANK13  BANK14  BANK15
  5192 ;;      Params:         0       3       0       0       0       0       0       0       0       0       0       0       
      +0       0       0       0       0
  5193 ;;      Locals:         0       1       0       0       0       0       0       0       0       0       0       0       
      +0       0       0       0       0
  5194 ;;      Temps:          0       0       0       0       0       0       0       0       0       0       0       0       
      +0       0       0       0       0
  5195 ;;      Totals:         0       4       0       0       0       0       0       0       0       0       0       0       
      +0       0       0       0       0
  5196 ;;Total ram usage:        4 bytes
  5197 ;; Hardware stack levels used: 1
  5198 ;; Hardware stack levels required when called: 6
  5199 ;; This function calls:
  5200 ;;		Nothing
  5201 ;; This function is called by:
  5202 ;;		_commControl_processEvent
  5203 ;;		_sendAliveFrame
  5204 ;;		_getCenterFrame
  5205 ;; This function uses a non-reentrant model
  5206 ;;
  5207                           
  5208                           	psect	text17
  5209  0032A0                     __ptext17:
  5210                           	callstack 0
  5211  0032A0                     _store_read:
  5212                           	callstack 22
  5213  0032A0                     
  5214                           ;driveControl/store.c: 29:     uint8_t value = 0;
  5215  0032A0  0E00               	movlw	0
  5216  0032A2  0100               	movlb	0	; () banked
  5217  0032A4  6F65               	movwf	store_read@value& (0+255),b
  5218  0032A6                     
  5219                           ; BSR set to: 0
  5220                           ;driveControl/store.c: 30:     if (item < 5) {
  5221  0032A6  0E05               	movlw	5
  5222  0032A8  6164               	cpfslt	store_read@item& (0+255),b
  5223  0032AA  EF59  F019         	goto	u1861
  5224  0032AE  EF5B  F019         	goto	u1860
  5225  0032B2                     u1861:
  5226  0032B2  EF63  F019         	goto	l4249
  5227  0032B6                     u1860:
  5228  0032B6                     
  5229                           ; BSR set to: 0
  5230                           ;driveControl/store.c: 31:         value = me->eeValues[item];
  5231  0032B6  5164               	movf	store_read@item& (0+255),w,b
  5232  0032B8  2562               	addwf	store_read@me& (0+255),w,b
  5233  0032BA  6ED9               	movwf	fsr2l,c
  5234  0032BC  0E00               	movlw	0
  5235  0032BE  2163               	addwfc	(store_read@me+1)& (0+255),w,b
  5236  0032C0  6EDA               	movwf	fsr2h,c
  5237  0032C2  50DF               	movf	indf2,w,c
  5238  0032C4  6F65               	movwf	store_read@value& (0+255),b
  5239  0032C6                     l4249:
  5240                           
  5241                           ; BSR set to: 0
  5242                           ;driveControl/store.c: 33:     return value;
  5243  0032C6  5165               	movf	store_read@value& (0+255),w,b
  5244  0032C8                     
  5245                           ; BSR set to: 0
  5246  0032C8  0012               	return		;funcret
  5247  0032CA                     __end_of_store_read:
  5248                           	callstack 0
  5249                           
  5250 ;; *************** function _CAN_transmit *****************
  5251 ;; Defined at:
  5252 ;;		line 132 in file "mcc_generated_files/ecan.c"
  5253 ;; Parameters:    Size  Location     Type
  5254 ;;  tempCanMsg      2   18[BANK0 ] PTR struct .
  5255 ;;		 -> theFactory(233), getPositionFrame@msg(15), getCenterFrame@msgs(15), steeringSetup@msgs(15), 
  5256 ;;		 -> NULL(0), 
  5257 ;; Auto vars:     Size  Location     Type
  5258 ;;  tempSIDL        1   26[BANK0 ] unsigned char 
  5259 ;;  tempSIDH        1   25[BANK0 ] unsigned char 
  5260 ;;  tempEIDL        1   24[BANK0 ] unsigned char 
  5261 ;;  tempEIDH        1   23[BANK0 ] unsigned char 
  5262 ;;  returnValue     1    0        unsigned char 
  5263 ;; Return value:  Size  Location     Type
  5264 ;;                  1    wreg      unsigned char 
  5265 ;; Registers used:
  5266 ;;		wreg, fsr2l, fsr2h, status,2, status,0, cstack
  5267 ;; Tracked objects:
  5268 ;;		On entry : 0/0
  5269 ;;		On exit  : 0/0
  5270 ;;		Unchanged: 0/0
  5271 ;; Data sizes:     COMRAM   BANK0   BANK1   BANK2   BANK3   BANK4   BANK5   BANK6   BANK7   BANK8   BANK9  BANK10  BANK1
      +1  BANK12  BANK13  BANK14  BANK15
  5272 ;;      Params:         0       2       0       0       0       0       0       0       0       0       0       0       
      +0       0       0       0       0
  5273 ;;      Locals:         0       4       0       0       0       0       0       0       0       0       0       0       
      +0       0       0       0       0
  5274 ;;      Temps:          0       3       0       0       0       0       0       0       0       0       0       0       
      +0       0       0       0       0
  5275 ;;      Totals:         0       9       0       0       0       0       0       0       0       0       0       0       
      +0       0       0       0       0
  5276 ;;Total ram usage:        9 bytes
  5277 ;; Hardware stack levels used: 1
  5278 ;; Hardware stack levels required when called: 7
  5279 ;; This function calls:
  5280 ;;		_convertCANid2Reg
  5281 ;; This function is called by:
  5282 ;;		_steeringSetup
  5283 ;;		_sendAliveFrame
  5284 ;;		_getCenterFrame
  5285 ;;		_getPositionFrame
  5286 ;; This function uses a non-reentrant model
  5287 ;;
  5288                           
  5289                           	psect	text18
  5290  000E00                     __ptext18:
  5291                           	callstack 0
  5292  000E00                     _CAN_transmit:
  5293                           	callstack 20
  5294  000E00                     
  5295                           ;mcc_generated_files/ecan.c: 133:     uint8_t tempEIDH = 0;
  5296  000E00  0E00               	movlw	0
  5297  000E02  0100               	movlb	0	; () banked
  5298  000E04  6F77               	movwf	CAN_transmit@tempEIDH& (0+255),b
  5299                           
  5300                           ;mcc_generated_files/ecan.c: 134:     uint8_t tempEIDL = 0;
  5301  000E06  0E00               	movlw	0
  5302  000E08  6F78               	movwf	CAN_transmit@tempEIDL& (0+255),b
  5303                           
  5304                           ;mcc_generated_files/ecan.c: 135:     uint8_t tempSIDH = 0;
  5305  000E0A  0E00               	movlw	0
  5306  000E0C  6F79               	movwf	CAN_transmit@tempSIDH& (0+255),b
  5307                           
  5308                           ;mcc_generated_files/ecan.c: 136:     uint8_t tempSIDL = 0;
  5309  000E0E  0E00               	movlw	0
  5310  000E10  6F7A               	movwf	CAN_transmit@tempSIDL& (0+255),b
  5311  000E12                     
  5312                           ; BSR set to: 0
  5313                           ;mcc_generated_files/ecan.c: 140:     if (TXB0CONbits.TXREQ != 1)
  5314  000E12  0137               	movlb	55	; () banked
  5315  000E14  B7E0               	btfsc	224,3,b	;volatile
  5316  000E16  EF0F  F007         	goto	u1911
  5317  000E1A  EF11  F007         	goto	u1910
  5318  000E1E                     u1911:
  5319  000E1E  EFB9  F007         	goto	l854
  5320  000E22                     u1910:
  5321  000E22                     
  5322                           ; BSR set to: 55
  5323                           ;mcc_generated_files/ecan.c: 141:     {;mcc_generated_files/ecan.c: 142:         convert
      +                          CANid2Reg(tempCanMsg->frame.id, tempCanMsg->frame.idType, &tempEIDH, &tempEIDL, &tempSID
      +                          H, &tempSIDL);
  5324  000E22  0100               	movlb	0	; () banked
  5325  000E24  EE20 F001          	lfsr	2,1
  5326  000E28  5172               	movf	CAN_transmit@tempCanMsg& (0+255),w,b
  5327  000E2A  26D9               	addwf	fsr2l,f,c
  5328  000E2C  5173               	movf	(CAN_transmit@tempCanMsg+1)& (0+255),w,b
  5329  000E2E  22DA               	addwfc	fsr2h,f,c
  5330  000E30  006F FF78  F060    	movff	postinc2,convertCANid2Reg@tempPassedInID
  5331  000E36  006F FF78  F061    	movff	postinc2,convertCANid2Reg@tempPassedInID+1
  5332  000E3C  006F FF78  F062    	movff	postinc2,convertCANid2Reg@tempPassedInID+2
  5333  000E42  006F FF78  F063    	movff	postinc2,convertCANid2Reg@tempPassedInID+3
  5334  000E48  0060  F1CB  FFD9   	movff	CAN_transmit@tempCanMsg,fsr2l
  5335  000E4E  0060  F1CF  FFDA   	movff	CAN_transmit@tempCanMsg+1,fsr2h
  5336  000E54  50DF               	movf	indf2,w,c
  5337  000E56  6F64               	movwf	convertCANid2Reg@canIdType& (0+255),b
  5338  000E58  0E77               	movlw	low CAN_transmit@tempEIDH
  5339  000E5A  6F65               	movwf	convertCANid2Reg@passedInEIDH& (0+255),b
  5340  000E5C  0E00               	movlw	high CAN_transmit@tempEIDH
  5341  000E5E  6F66               	movwf	(convertCANid2Reg@passedInEIDH+1)& (0+255),b
  5342  000E60  0E78               	movlw	low CAN_transmit@tempEIDL
  5343  000E62  6F67               	movwf	convertCANid2Reg@passedInEIDL& (0+255),b
  5344  000E64  0E00               	movlw	high CAN_transmit@tempEIDL
  5345  000E66  6F68               	movwf	(convertCANid2Reg@passedInEIDL+1)& (0+255),b
  5346  000E68  0E79               	movlw	low CAN_transmit@tempSIDH
  5347  000E6A  6F69               	movwf	convertCANid2Reg@passedInSIDH& (0+255),b
  5348  000E6C  0E00               	movlw	high CAN_transmit@tempSIDH
  5349  000E6E  6F6A               	movwf	(convertCANid2Reg@passedInSIDH+1)& (0+255),b
  5350  000E70  0E7A               	movlw	low CAN_transmit@tempSIDL
  5351  000E72  6F6B               	movwf	convertCANid2Reg@passedInSIDL& (0+255),b
  5352  000E74  0E00               	movlw	high CAN_transmit@tempSIDL
  5353  000E76  6F6C               	movwf	(convertCANid2Reg@passedInSIDL+1)& (0+255),b
  5354  000E78  EC9B  F00C         	call	_convertCANid2Reg	;wreg free
  5355  000E7C                     
  5356                           ;mcc_generated_files/ecan.c: 144:         TXB0EIDH = tempEIDH;
  5357  000E7C  0060  F1DF  F7E3   	movff	CAN_transmit@tempEIDH,14307	;volatile
  5358  000E82                     
  5359                           ;mcc_generated_files/ecan.c: 145:         TXB0EIDL = tempEIDL;
  5360  000E82  0060  F1E3  F7E4   	movff	CAN_transmit@tempEIDL,14308	;volatile
  5361  000E88                     
  5362                           ;mcc_generated_files/ecan.c: 146:         TXB0SIDH = tempSIDH;
  5363  000E88  0060  F1E7  F7E1   	movff	CAN_transmit@tempSIDH,14305	;volatile
  5364  000E8E                     
  5365                           ;mcc_generated_files/ecan.c: 147:         TXB0SIDL = tempSIDL;
  5366  000E8E  0060  F1EB  F7E2   	movff	CAN_transmit@tempSIDL,14306	;volatile
  5367  000E94                     
  5368                           ;mcc_generated_files/ecan.c: 148:         TXB0DLC = tempCanMsg->frame.dlc | ((tempCanMsg
      +                          ->frame.rtr)<<6);
  5369  000E94  0100               	movlb	0	; () banked
  5370  000E96  EE20 F005          	lfsr	2,5
  5371  000E9A  5172               	movf	CAN_transmit@tempCanMsg& (0+255),w,b
  5372  000E9C  26D9               	addwf	fsr2l,f,c
  5373  000E9E  5173               	movf	(CAN_transmit@tempCanMsg+1)& (0+255),w,b
  5374  000EA0  22DA               	addwfc	fsr2h,f,c
  5375  000EA2  50DF               	movf	indf2,w,c
  5376  000EA4  6F74               	movwf	??_CAN_transmit& (0+255),b
  5377  000EA6  EE20 F00E          	lfsr	2,14
  5378  000EAA  5172               	movf	CAN_transmit@tempCanMsg& (0+255),w,b
  5379  000EAC  26D9               	addwf	fsr2l,f,c
  5380  000EAE  5173               	movf	(CAN_transmit@tempCanMsg+1)& (0+255),w,b
  5381  000EB0  22DA               	addwfc	fsr2h,f,c
  5382  000EB2  50DF               	movf	indf2,w,c
  5383  000EB4  6F75               	movwf	(??_CAN_transmit+1)& (0+255),b
  5384  000EB6  0E06               	movlw	6
  5385  000EB8  6F76               	movwf	(??_CAN_transmit+2)& (0+255),b
  5386  000EBA                     u1925:
  5387  000EBA  90D8               	bcf	status,0,c
  5388  000EBC  3775               	rlcf	(??_CAN_transmit+1)& (0+255),f,b
  5389  000EBE  2F76               	decfsz	(??_CAN_transmit+2)& (0+255),f,b
  5390  000EC0  EF5D  F007         	goto	u1925
  5391  000EC4  5175               	movf	(??_CAN_transmit+1)& (0+255),w,b
  5392  000EC6  1174               	iorwf	??_CAN_transmit& (0+255),w,b
  5393  000EC8  0137               	movlb	55	; () banked
  5394  000ECA  6FE5               	movwf	229,b	;volatile
  5395  000ECC                     
  5396                           ; BSR set to: 55
  5397                           ;mcc_generated_files/ecan.c: 149:         TXB0D0 = tempCanMsg->frame.data0;
  5398  000ECC  0100               	movlb	0	; () banked
  5399  000ECE  EE20 F006          	lfsr	2,6
  5400  000ED2  5172               	movf	CAN_transmit@tempCanMsg& (0+255),w,b
  5401  000ED4  26D9               	addwf	fsr2l,f,c
  5402  000ED6  5173               	movf	(CAN_transmit@tempCanMsg+1)& (0+255),w,b
  5403  000ED8  22DA               	addwfc	fsr2h,f,c
  5404  000EDA  50DF               	movf	indf2,w,c
  5405  000EDC  0137               	movlb	55	; () banked
  5406  000EDE  6FE6               	movwf	230,b	;volatile
  5407  000EE0                     
  5408                           ; BSR set to: 55
  5409                           ;mcc_generated_files/ecan.c: 150:         TXB0D1 = tempCanMsg->frame.data1;
  5410  000EE0  0100               	movlb	0	; () banked
  5411  000EE2  EE20 F007          	lfsr	2,7
  5412  000EE6  5172               	movf	CAN_transmit@tempCanMsg& (0+255),w,b
  5413  000EE8  26D9               	addwf	fsr2l,f,c
  5414  000EEA  5173               	movf	(CAN_transmit@tempCanMsg+1)& (0+255),w,b
  5415  000EEC  22DA               	addwfc	fsr2h,f,c
  5416  000EEE  50DF               	movf	indf2,w,c
  5417  000EF0  0137               	movlb	55	; () banked
  5418  000EF2  6FE7               	movwf	231,b	;volatile
  5419  000EF4                     
  5420                           ; BSR set to: 55
  5421                           ;mcc_generated_files/ecan.c: 151:         TXB0D2 = tempCanMsg->frame.data2;
  5422  000EF4  0100               	movlb	0	; () banked
  5423  000EF6  EE20 F008          	lfsr	2,8
  5424  000EFA  5172               	movf	CAN_transmit@tempCanMsg& (0+255),w,b
  5425  000EFC  26D9               	addwf	fsr2l,f,c
  5426  000EFE  5173               	movf	(CAN_transmit@tempCanMsg+1)& (0+255),w,b
  5427  000F00  22DA               	addwfc	fsr2h,f,c
  5428  000F02  50DF               	movf	indf2,w,c
  5429  000F04  0137               	movlb	55	; () banked
  5430  000F06  6FE8               	movwf	232,b	;volatile
  5431  000F08                     
  5432                           ; BSR set to: 55
  5433                           ;mcc_generated_files/ecan.c: 152:         TXB0D3 = tempCanMsg->frame.data3;
  5434  000F08  0100               	movlb	0	; () banked
  5435  000F0A  EE20 F009          	lfsr	2,9
  5436  000F0E  5172               	movf	CAN_transmit@tempCanMsg& (0+255),w,b
  5437  000F10  26D9               	addwf	fsr2l,f,c
  5438  000F12  5173               	movf	(CAN_transmit@tempCanMsg+1)& (0+255),w,b
  5439  000F14  22DA               	addwfc	fsr2h,f,c
  5440  000F16  50DF               	movf	indf2,w,c
  5441  000F18  0137               	movlb	55	; () banked
  5442  000F1A  6FE9               	movwf	233,b	;volatile
  5443  000F1C                     
  5444                           ; BSR set to: 55
  5445                           ;mcc_generated_files/ecan.c: 153:         TXB0D4 = tempCanMsg->frame.data4;
  5446  000F1C  0100               	movlb	0	; () banked
  5447  000F1E  EE20 F00A          	lfsr	2,10
  5448  000F22  5172               	movf	CAN_transmit@tempCanMsg& (0+255),w,b
  5449  000F24  26D9               	addwf	fsr2l,f,c
  5450  000F26  5173               	movf	(CAN_transmit@tempCanMsg+1)& (0+255),w,b
  5451  000F28  22DA               	addwfc	fsr2h,f,c
  5452  000F2A  50DF               	movf	indf2,w,c
  5453  000F2C  0137               	movlb	55	; () banked
  5454  000F2E  6FEA               	movwf	234,b	;volatile
  5455  000F30                     
  5456                           ; BSR set to: 55
  5457                           ;mcc_generated_files/ecan.c: 154:         TXB0D5 = tempCanMsg->frame.data5;
  5458  000F30  0100               	movlb	0	; () banked
  5459  000F32  EE20 F00B          	lfsr	2,11
  5460  000F36  5172               	movf	CAN_transmit@tempCanMsg& (0+255),w,b
  5461  000F38  26D9               	addwf	fsr2l,f,c
  5462  000F3A  5173               	movf	(CAN_transmit@tempCanMsg+1)& (0+255),w,b
  5463  000F3C  22DA               	addwfc	fsr2h,f,c
  5464  000F3E  50DF               	movf	indf2,w,c
  5465  000F40  0137               	movlb	55	; () banked
  5466  000F42  6FEB               	movwf	235,b	;volatile
  5467  000F44                     
  5468                           ; BSR set to: 55
  5469                           ;mcc_generated_files/ecan.c: 155:         TXB0D6 = tempCanMsg->frame.data6;
  5470  000F44  0100               	movlb	0	; () banked
  5471  000F46  EE20 F00C          	lfsr	2,12
  5472  000F4A  5172               	movf	CAN_transmit@tempCanMsg& (0+255),w,b
  5473  000F4C  26D9               	addwf	fsr2l,f,c
  5474  000F4E  5173               	movf	(CAN_transmit@tempCanMsg+1)& (0+255),w,b
  5475  000F50  22DA               	addwfc	fsr2h,f,c
  5476  000F52  50DF               	movf	indf2,w,c
  5477  000F54  0137               	movlb	55	; () banked
  5478  000F56  6FEC               	movwf	236,b	;volatile
  5479  000F58                     
  5480                           ; BSR set to: 55
  5481                           ;mcc_generated_files/ecan.c: 156:         TXB0D7 = tempCanMsg->frame.data7;
  5482  000F58  0100               	movlb	0	; () banked
  5483  000F5A  EE20 F00D          	lfsr	2,13
  5484  000F5E  5172               	movf	CAN_transmit@tempCanMsg& (0+255),w,b
  5485  000F60  26D9               	addwf	fsr2l,f,c
  5486  000F62  5173               	movf	(CAN_transmit@tempCanMsg+1)& (0+255),w,b
  5487  000F64  22DA               	addwfc	fsr2h,f,c
  5488  000F66  50DF               	movf	indf2,w,c
  5489  000F68  0137               	movlb	55	; () banked
  5490  000F6A  6FED               	movwf	237,b	;volatile
  5491  000F6C                     
  5492                           ; BSR set to: 55
  5493                           ;mcc_generated_files/ecan.c: 158:         TXB0CONbits.TXREQ = 1;
  5494  000F6C  87E0               	bsf	224,3,b	;volatile
  5495  000F6E                     l4363:
  5496                           
  5497                           ; BSR set to: 55
  5498                           ;mcc_generated_files/ecan.c: 161:     }
  5499  000F6E  EF17  F009         	goto	l859
  5500  000F72                     l854:
  5501                           
  5502                           ; BSR set to: 55
  5503  000F72  B7D0               	btfsc	208,3,b	;volatile
  5504  000F74  EFBE  F007         	goto	u1931
  5505  000F78  EFC0  F007         	goto	u1930
  5506  000F7C                     u1931:
  5507  000F7C  EF68  F008         	goto	l856
  5508  000F80                     u1930:
  5509  000F80                     
  5510                           ; BSR set to: 55
  5511                           ;mcc_generated_files/ecan.c: 163:     {;mcc_generated_files/ecan.c: 165:         convert
      +                          CANid2Reg(tempCanMsg->frame.id, tempCanMsg->frame.idType, &tempEIDH, &tempEIDL, &tempSID
      +                          H, &tempSIDL);
  5512  000F80  0100               	movlb	0	; () banked
  5513  000F82  EE20 F001          	lfsr	2,1
  5514  000F86  5172               	movf	CAN_transmit@tempCanMsg& (0+255),w,b
  5515  000F88  26D9               	addwf	fsr2l,f,c
  5516  000F8A  5173               	movf	(CAN_transmit@tempCanMsg+1)& (0+255),w,b
  5517  000F8C  22DA               	addwfc	fsr2h,f,c
  5518  000F8E  006F FF78  F060    	movff	postinc2,convertCANid2Reg@tempPassedInID
  5519  000F94  006F FF78  F061    	movff	postinc2,convertCANid2Reg@tempPassedInID+1
  5520  000F9A  006F FF78  F062    	movff	postinc2,convertCANid2Reg@tempPassedInID+2
  5521  000FA0  006F FF78  F063    	movff	postinc2,convertCANid2Reg@tempPassedInID+3
  5522  000FA6  0060  F1CB  FFD9   	movff	CAN_transmit@tempCanMsg,fsr2l
  5523  000FAC  0060  F1CF  FFDA   	movff	CAN_transmit@tempCanMsg+1,fsr2h
  5524  000FB2  50DF               	movf	indf2,w,c
  5525  000FB4  6F64               	movwf	convertCANid2Reg@canIdType& (0+255),b
  5526  000FB6  0E77               	movlw	low CAN_transmit@tempEIDH
  5527  000FB8  6F65               	movwf	convertCANid2Reg@passedInEIDH& (0+255),b
  5528  000FBA  0E00               	movlw	high CAN_transmit@tempEIDH
  5529  000FBC  6F66               	movwf	(convertCANid2Reg@passedInEIDH+1)& (0+255),b
  5530  000FBE  0E78               	movlw	low CAN_transmit@tempEIDL
  5531  000FC0  6F67               	movwf	convertCANid2Reg@passedInEIDL& (0+255),b
  5532  000FC2  0E00               	movlw	high CAN_transmit@tempEIDL
  5533  000FC4  6F68               	movwf	(convertCANid2Reg@passedInEIDL+1)& (0+255),b
  5534  000FC6  0E79               	movlw	low CAN_transmit@tempSIDH
  5535  000FC8  6F69               	movwf	convertCANid2Reg@passedInSIDH& (0+255),b
  5536  000FCA  0E00               	movlw	high CAN_transmit@tempSIDH
  5537  000FCC  6F6A               	movwf	(convertCANid2Reg@passedInSIDH+1)& (0+255),b
  5538  000FCE  0E7A               	movlw	low CAN_transmit@tempSIDL
  5539  000FD0  6F6B               	movwf	convertCANid2Reg@passedInSIDL& (0+255),b
  5540  000FD2  0E00               	movlw	high CAN_transmit@tempSIDL
  5541  000FD4  6F6C               	movwf	(convertCANid2Reg@passedInSIDL+1)& (0+255),b
  5542  000FD6  EC9B  F00C         	call	_convertCANid2Reg	;wreg free
  5543  000FDA                     
  5544                           ;mcc_generated_files/ecan.c: 167:         TXB1EIDH = tempEIDH;
  5545  000FDA  0060  F1DF  F7D3   	movff	CAN_transmit@tempEIDH,14291	;volatile
  5546  000FE0                     
  5547                           ;mcc_generated_files/ecan.c: 168:         TXB1EIDL = tempEIDL;
  5548  000FE0  0060  F1E3  F7D4   	movff	CAN_transmit@tempEIDL,14292	;volatile
  5549  000FE6                     
  5550                           ;mcc_generated_files/ecan.c: 169:         TXB1SIDH = tempSIDH;
  5551  000FE6  0060  F1E7  F7D1   	movff	CAN_transmit@tempSIDH,14289	;volatile
  5552  000FEC                     
  5553                           ;mcc_generated_files/ecan.c: 170:         TXB1SIDL = tempSIDL;
  5554  000FEC  0060  F1EB  F7D2   	movff	CAN_transmit@tempSIDL,14290	;volatile
  5555  000FF2                     
  5556                           ;mcc_generated_files/ecan.c: 171:         TXB1DLC = tempCanMsg->frame.dlc | ((tempCanMsg
      +                          ->frame.rtr)<<6);
  5557  000FF2  0100               	movlb	0	; () banked
  5558  000FF4  EE20 F005          	lfsr	2,5
  5559  000FF8  5172               	movf	CAN_transmit@tempCanMsg& (0+255),w,b
  5560  000FFA  26D9               	addwf	fsr2l,f,c
  5561  000FFC  5173               	movf	(CAN_transmit@tempCanMsg+1)& (0+255),w,b
  5562  000FFE  22DA               	addwfc	fsr2h,f,c
  5563  001000  50DF               	movf	indf2,w,c
  5564  001002  6F74               	movwf	??_CAN_transmit& (0+255),b
  5565  001004  EE20 F00E          	lfsr	2,14
  5566  001008  5172               	movf	CAN_transmit@tempCanMsg& (0+255),w,b
  5567  00100A  26D9               	addwf	fsr2l,f,c
  5568  00100C  5173               	movf	(CAN_transmit@tempCanMsg+1)& (0+255),w,b
  5569  00100E  22DA               	addwfc	fsr2h,f,c
  5570  001010  50DF               	movf	indf2,w,c
  5571  001012  6F75               	movwf	(??_CAN_transmit+1)& (0+255),b
  5572  001014  0E06               	movlw	6
  5573  001016  6F76               	movwf	(??_CAN_transmit+2)& (0+255),b
  5574  001018                     u1945:
  5575  001018  90D8               	bcf	status,0,c
  5576  00101A  3775               	rlcf	(??_CAN_transmit+1)& (0+255),f,b
  5577  00101C  2F76               	decfsz	(??_CAN_transmit+2)& (0+255),f,b
  5578  00101E  EF0C  F008         	goto	u1945
  5579  001022  5175               	movf	(??_CAN_transmit+1)& (0+255),w,b
  5580  001024  1174               	iorwf	??_CAN_transmit& (0+255),w,b
  5581  001026  0137               	movlb	55	; () banked
  5582  001028  6FD5               	movwf	213,b	;volatile
  5583  00102A                     
  5584                           ; BSR set to: 55
  5585                           ;mcc_generated_files/ecan.c: 172:         TXB1D0 = tempCanMsg->frame.data0;
  5586  00102A  0100               	movlb	0	; () banked
  5587  00102C  EE20 F006          	lfsr	2,6
  5588  001030  5172               	movf	CAN_transmit@tempCanMsg& (0+255),w,b
  5589  001032  26D9               	addwf	fsr2l,f,c
  5590  001034  5173               	movf	(CAN_transmit@tempCanMsg+1)& (0+255),w,b
  5591  001036  22DA               	addwfc	fsr2h,f,c
  5592  001038  50DF               	movf	indf2,w,c
  5593  00103A  0137               	movlb	55	; () banked
  5594  00103C  6FD6               	movwf	214,b	;volatile
  5595  00103E                     
  5596                           ; BSR set to: 55
  5597                           ;mcc_generated_files/ecan.c: 173:         TXB1D1 = tempCanMsg->frame.data1;
  5598  00103E  0100               	movlb	0	; () banked
  5599  001040  EE20 F007          	lfsr	2,7
  5600  001044  5172               	movf	CAN_transmit@tempCanMsg& (0+255),w,b
  5601  001046  26D9               	addwf	fsr2l,f,c
  5602  001048  5173               	movf	(CAN_transmit@tempCanMsg+1)& (0+255),w,b
  5603  00104A  22DA               	addwfc	fsr2h,f,c
  5604  00104C  50DF               	movf	indf2,w,c
  5605  00104E  0137               	movlb	55	; () banked
  5606  001050  6FD7               	movwf	215,b	;volatile
  5607  001052                     
  5608                           ; BSR set to: 55
  5609                           ;mcc_generated_files/ecan.c: 174:         TXB1D2 = tempCanMsg->frame.data2;
  5610  001052  0100               	movlb	0	; () banked
  5611  001054  EE20 F008          	lfsr	2,8
  5612  001058  5172               	movf	CAN_transmit@tempCanMsg& (0+255),w,b
  5613  00105A  26D9               	addwf	fsr2l,f,c
  5614  00105C  5173               	movf	(CAN_transmit@tempCanMsg+1)& (0+255),w,b
  5615  00105E  22DA               	addwfc	fsr2h,f,c
  5616  001060  50DF               	movf	indf2,w,c
  5617  001062  0137               	movlb	55	; () banked
  5618  001064  6FD8               	movwf	216,b	;volatile
  5619  001066                     
  5620                           ; BSR set to: 55
  5621                           ;mcc_generated_files/ecan.c: 175:         TXB1D3 = tempCanMsg->frame.data3;
  5622  001066  0100               	movlb	0	; () banked
  5623  001068  EE20 F009          	lfsr	2,9
  5624  00106C  5172               	movf	CAN_transmit@tempCanMsg& (0+255),w,b
  5625  00106E  26D9               	addwf	fsr2l,f,c
  5626  001070  5173               	movf	(CAN_transmit@tempCanMsg+1)& (0+255),w,b
  5627  001072  22DA               	addwfc	fsr2h,f,c
  5628  001074  50DF               	movf	indf2,w,c
  5629  001076  0137               	movlb	55	; () banked
  5630  001078  6FD9               	movwf	217,b	;volatile
  5631  00107A                     
  5632                           ; BSR set to: 55
  5633                           ;mcc_generated_files/ecan.c: 176:         TXB1D4 = tempCanMsg->frame.data4;
  5634  00107A  0100               	movlb	0	; () banked
  5635  00107C  EE20 F00A          	lfsr	2,10
  5636  001080  5172               	movf	CAN_transmit@tempCanMsg& (0+255),w,b
  5637  001082  26D9               	addwf	fsr2l,f,c
  5638  001084  5173               	movf	(CAN_transmit@tempCanMsg+1)& (0+255),w,b
  5639  001086  22DA               	addwfc	fsr2h,f,c
  5640  001088  50DF               	movf	indf2,w,c
  5641  00108A  0137               	movlb	55	; () banked
  5642  00108C  6FDA               	movwf	218,b	;volatile
  5643  00108E                     
  5644                           ; BSR set to: 55
  5645                           ;mcc_generated_files/ecan.c: 177:         TXB1D5 = tempCanMsg->frame.data5;
  5646  00108E  0100               	movlb	0	; () banked
  5647  001090  EE20 F00B          	lfsr	2,11
  5648  001094  5172               	movf	CAN_transmit@tempCanMsg& (0+255),w,b
  5649  001096  26D9               	addwf	fsr2l,f,c
  5650  001098  5173               	movf	(CAN_transmit@tempCanMsg+1)& (0+255),w,b
  5651  00109A  22DA               	addwfc	fsr2h,f,c
  5652  00109C  50DF               	movf	indf2,w,c
  5653  00109E  0137               	movlb	55	; () banked
  5654  0010A0  6FDB               	movwf	219,b	;volatile
  5655  0010A2                     
  5656                           ; BSR set to: 55
  5657                           ;mcc_generated_files/ecan.c: 178:         TXB1D6 = tempCanMsg->frame.data6;
  5658  0010A2  0100               	movlb	0	; () banked
  5659  0010A4  EE20 F00C          	lfsr	2,12
  5660  0010A8  5172               	movf	CAN_transmit@tempCanMsg& (0+255),w,b
  5661  0010AA  26D9               	addwf	fsr2l,f,c
  5662  0010AC  5173               	movf	(CAN_transmit@tempCanMsg+1)& (0+255),w,b
  5663  0010AE  22DA               	addwfc	fsr2h,f,c
  5664  0010B0  50DF               	movf	indf2,w,c
  5665  0010B2  0137               	movlb	55	; () banked
  5666  0010B4  6FDC               	movwf	220,b	;volatile
  5667  0010B6                     
  5668                           ; BSR set to: 55
  5669                           ;mcc_generated_files/ecan.c: 179:         TXB1D7 = tempCanMsg->frame.data7;
  5670  0010B6  0100               	movlb	0	; () banked
  5671  0010B8  EE20 F00D          	lfsr	2,13
  5672  0010BC  5172               	movf	CAN_transmit@tempCanMsg& (0+255),w,b
  5673  0010BE  26D9               	addwf	fsr2l,f,c
  5674  0010C0  5173               	movf	(CAN_transmit@tempCanMsg+1)& (0+255),w,b
  5675  0010C2  22DA               	addwfc	fsr2h,f,c
  5676  0010C4  50DF               	movf	indf2,w,c
  5677  0010C6  0137               	movlb	55	; () banked
  5678  0010C8  6FDD               	movwf	221,b	;volatile
  5679  0010CA                     
  5680                           ; BSR set to: 55
  5681                           ;mcc_generated_files/ecan.c: 181:         TXB1CONbits.TXREQ = 1;
  5682  0010CA  87D0               	bsf	208,3,b	;volatile
  5683  0010CC  EFB7  F007         	goto	l4363
  5684  0010D0                     l856:
  5685                           
  5686                           ; BSR set to: 55
  5687  0010D0  B7C0               	btfsc	192,3,b	;volatile
  5688  0010D2  EF6D  F008         	goto	u1951
  5689  0010D6  EF6F  F008         	goto	u1950
  5690  0010DA                     u1951:
  5691  0010DA  EF17  F009         	goto	l855
  5692  0010DE                     u1950:
  5693  0010DE                     
  5694                           ; BSR set to: 55
  5695                           ;mcc_generated_files/ecan.c: 185:     {;mcc_generated_files/ecan.c: 187:         convert
      +                          CANid2Reg(tempCanMsg->frame.id, tempCanMsg->frame.idType, &tempEIDH, &tempEIDL, &tempSID
      +                          H, &tempSIDL);
  5696  0010DE  0100               	movlb	0	; () banked
  5697  0010E0  EE20 F001          	lfsr	2,1
  5698  0010E4  5172               	movf	CAN_transmit@tempCanMsg& (0+255),w,b
  5699  0010E6  26D9               	addwf	fsr2l,f,c
  5700  0010E8  5173               	movf	(CAN_transmit@tempCanMsg+1)& (0+255),w,b
  5701  0010EA  22DA               	addwfc	fsr2h,f,c
  5702  0010EC  006F FF78  F060    	movff	postinc2,convertCANid2Reg@tempPassedInID
  5703  0010F2  006F FF78  F061    	movff	postinc2,convertCANid2Reg@tempPassedInID+1
  5704  0010F8  006F FF78  F062    	movff	postinc2,convertCANid2Reg@tempPassedInID+2
  5705  0010FE  006F FF78  F063    	movff	postinc2,convertCANid2Reg@tempPassedInID+3
  5706  001104  0060  F1CB  FFD9   	movff	CAN_transmit@tempCanMsg,fsr2l
  5707  00110A  0060  F1CF  FFDA   	movff	CAN_transmit@tempCanMsg+1,fsr2h
  5708  001110  50DF               	movf	indf2,w,c
  5709  001112  6F64               	movwf	convertCANid2Reg@canIdType& (0+255),b
  5710  001114  0E77               	movlw	low CAN_transmit@tempEIDH
  5711  001116  6F65               	movwf	convertCANid2Reg@passedInEIDH& (0+255),b
  5712  001118  0E00               	movlw	high CAN_transmit@tempEIDH
  5713  00111A  6F66               	movwf	(convertCANid2Reg@passedInEIDH+1)& (0+255),b
  5714  00111C  0E78               	movlw	low CAN_transmit@tempEIDL
  5715  00111E  6F67               	movwf	convertCANid2Reg@passedInEIDL& (0+255),b
  5716  001120  0E00               	movlw	high CAN_transmit@tempEIDL
  5717  001122  6F68               	movwf	(convertCANid2Reg@passedInEIDL+1)& (0+255),b
  5718  001124  0E79               	movlw	low CAN_transmit@tempSIDH
  5719  001126  6F69               	movwf	convertCANid2Reg@passedInSIDH& (0+255),b
  5720  001128  0E00               	movlw	high CAN_transmit@tempSIDH
  5721  00112A  6F6A               	movwf	(convertCANid2Reg@passedInSIDH+1)& (0+255),b
  5722  00112C  0E7A               	movlw	low CAN_transmit@tempSIDL
  5723  00112E  6F6B               	movwf	convertCANid2Reg@passedInSIDL& (0+255),b
  5724  001130  0E00               	movlw	high CAN_transmit@tempSIDL
  5725  001132  6F6C               	movwf	(convertCANid2Reg@passedInSIDL+1)& (0+255),b
  5726  001134  EC9B  F00C         	call	_convertCANid2Reg	;wreg free
  5727  001138                     
  5728                           ;mcc_generated_files/ecan.c: 189:         TXB2EIDH = tempEIDH;
  5729  001138  0060  F1DF  F7C3   	movff	CAN_transmit@tempEIDH,14275	;volatile
  5730  00113E                     
  5731                           ;mcc_generated_files/ecan.c: 190:         TXB2EIDL = tempEIDL;
  5732  00113E  0060  F1E3  F7C4   	movff	CAN_transmit@tempEIDL,14276	;volatile
  5733  001144                     
  5734                           ;mcc_generated_files/ecan.c: 191:         TXB2SIDH = tempSIDH;
  5735  001144  0060  F1E7  F7C1   	movff	CAN_transmit@tempSIDH,14273	;volatile
  5736  00114A                     
  5737                           ;mcc_generated_files/ecan.c: 192:         TXB2SIDL = tempSIDL;
  5738  00114A  0060  F1EB  F7C2   	movff	CAN_transmit@tempSIDL,14274	;volatile
  5739  001150                     
  5740                           ;mcc_generated_files/ecan.c: 193:         TXB2DLC = tempCanMsg->frame.dlc | ((tempCanMsg
      +                          ->frame.rtr)<<6);
  5741  001150  0100               	movlb	0	; () banked
  5742  001152  EE20 F005          	lfsr	2,5
  5743  001156  5172               	movf	CAN_transmit@tempCanMsg& (0+255),w,b
  5744  001158  26D9               	addwf	fsr2l,f,c
  5745  00115A  5173               	movf	(CAN_transmit@tempCanMsg+1)& (0+255),w,b
  5746  00115C  22DA               	addwfc	fsr2h,f,c
  5747  00115E  50DF               	movf	indf2,w,c
  5748  001160  6F74               	movwf	??_CAN_transmit& (0+255),b
  5749  001162  EE20 F00E          	lfsr	2,14
  5750  001166  5172               	movf	CAN_transmit@tempCanMsg& (0+255),w,b
  5751  001168  26D9               	addwf	fsr2l,f,c
  5752  00116A  5173               	movf	(CAN_transmit@tempCanMsg+1)& (0+255),w,b
  5753  00116C  22DA               	addwfc	fsr2h,f,c
  5754  00116E  50DF               	movf	indf2,w,c
  5755  001170  6F75               	movwf	(??_CAN_transmit+1)& (0+255),b
  5756  001172  0E06               	movlw	6
  5757  001174  6F76               	movwf	(??_CAN_transmit+2)& (0+255),b
  5758  001176                     u1965:
  5759  001176  90D8               	bcf	status,0,c
  5760  001178  3775               	rlcf	(??_CAN_transmit+1)& (0+255),f,b
  5761  00117A  2F76               	decfsz	(??_CAN_transmit+2)& (0+255),f,b
  5762  00117C  EFBB  F008         	goto	u1965
  5763  001180  5175               	movf	(??_CAN_transmit+1)& (0+255),w,b
  5764  001182  1174               	iorwf	??_CAN_transmit& (0+255),w,b
  5765  001184  0137               	movlb	55	; () banked
  5766  001186  6FC5               	movwf	197,b	;volatile
  5767  001188                     
  5768                           ; BSR set to: 55
  5769                           ;mcc_generated_files/ecan.c: 194:         TXB2D0 = tempCanMsg->frame.data0;
  5770  001188  0100               	movlb	0	; () banked
  5771  00118A  EE20 F006          	lfsr	2,6
  5772  00118E  5172               	movf	CAN_transmit@tempCanMsg& (0+255),w,b
  5773  001190  26D9               	addwf	fsr2l,f,c
  5774  001192  5173               	movf	(CAN_transmit@tempCanMsg+1)& (0+255),w,b
  5775  001194  22DA               	addwfc	fsr2h,f,c
  5776  001196  50DF               	movf	indf2,w,c
  5777  001198  0137               	movlb	55	; () banked
  5778  00119A  6FC6               	movwf	198,b	;volatile
  5779  00119C                     
  5780                           ; BSR set to: 55
  5781                           ;mcc_generated_files/ecan.c: 195:         TXB2D1 = tempCanMsg->frame.data1;
  5782  00119C  0100               	movlb	0	; () banked
  5783  00119E  EE20 F007          	lfsr	2,7
  5784  0011A2  5172               	movf	CAN_transmit@tempCanMsg& (0+255),w,b
  5785  0011A4  26D9               	addwf	fsr2l,f,c
  5786  0011A6  5173               	movf	(CAN_transmit@tempCanMsg+1)& (0+255),w,b
  5787  0011A8  22DA               	addwfc	fsr2h,f,c
  5788  0011AA  50DF               	movf	indf2,w,c
  5789  0011AC  0137               	movlb	55	; () banked
  5790  0011AE  6FC7               	movwf	199,b	;volatile
  5791  0011B0                     
  5792                           ; BSR set to: 55
  5793                           ;mcc_generated_files/ecan.c: 196:         TXB2D2 = tempCanMsg->frame.data2;
  5794  0011B0  0100               	movlb	0	; () banked
  5795  0011B2  EE20 F008          	lfsr	2,8
  5796  0011B6  5172               	movf	CAN_transmit@tempCanMsg& (0+255),w,b
  5797  0011B8  26D9               	addwf	fsr2l,f,c
  5798  0011BA  5173               	movf	(CAN_transmit@tempCanMsg+1)& (0+255),w,b
  5799  0011BC  22DA               	addwfc	fsr2h,f,c
  5800  0011BE  50DF               	movf	indf2,w,c
  5801  0011C0  0137               	movlb	55	; () banked
  5802  0011C2  6FC8               	movwf	200,b	;volatile
  5803  0011C4                     
  5804                           ; BSR set to: 55
  5805                           ;mcc_generated_files/ecan.c: 197:         TXB2D3 = tempCanMsg->frame.data3;
  5806  0011C4  0100               	movlb	0	; () banked
  5807  0011C6  EE20 F009          	lfsr	2,9
  5808  0011CA  5172               	movf	CAN_transmit@tempCanMsg& (0+255),w,b
  5809  0011CC  26D9               	addwf	fsr2l,f,c
  5810  0011CE  5173               	movf	(CAN_transmit@tempCanMsg+1)& (0+255),w,b
  5811  0011D0  22DA               	addwfc	fsr2h,f,c
  5812  0011D2  50DF               	movf	indf2,w,c
  5813  0011D4  0137               	movlb	55	; () banked
  5814  0011D6  6FC9               	movwf	201,b	;volatile
  5815  0011D8                     
  5816                           ; BSR set to: 55
  5817                           ;mcc_generated_files/ecan.c: 198:         TXB2D4 = tempCanMsg->frame.data4;
  5818  0011D8  0100               	movlb	0	; () banked
  5819  0011DA  EE20 F00A          	lfsr	2,10
  5820  0011DE  5172               	movf	CAN_transmit@tempCanMsg& (0+255),w,b
  5821  0011E0  26D9               	addwf	fsr2l,f,c
  5822  0011E2  5173               	movf	(CAN_transmit@tempCanMsg+1)& (0+255),w,b
  5823  0011E4  22DA               	addwfc	fsr2h,f,c
  5824  0011E6  50DF               	movf	indf2,w,c
  5825  0011E8  0137               	movlb	55	; () banked
  5826  0011EA  6FCA               	movwf	202,b	;volatile
  5827  0011EC                     
  5828                           ; BSR set to: 55
  5829                           ;mcc_generated_files/ecan.c: 199:         TXB2D5 = tempCanMsg->frame.data5;
  5830  0011EC  0100               	movlb	0	; () banked
  5831  0011EE  EE20 F00B          	lfsr	2,11
  5832  0011F2  5172               	movf	CAN_transmit@tempCanMsg& (0+255),w,b
  5833  0011F4  26D9               	addwf	fsr2l,f,c
  5834  0011F6  5173               	movf	(CAN_transmit@tempCanMsg+1)& (0+255),w,b
  5835  0011F8  22DA               	addwfc	fsr2h,f,c
  5836  0011FA  50DF               	movf	indf2,w,c
  5837  0011FC  0137               	movlb	55	; () banked
  5838  0011FE  6FCB               	movwf	203,b	;volatile
  5839  001200                     
  5840                           ; BSR set to: 55
  5841                           ;mcc_generated_files/ecan.c: 200:         TXB2D6 = tempCanMsg->frame.data6;
  5842  001200  0100               	movlb	0	; () banked
  5843  001202  EE20 F00C          	lfsr	2,12
  5844  001206  5172               	movf	CAN_transmit@tempCanMsg& (0+255),w,b
  5845  001208  26D9               	addwf	fsr2l,f,c
  5846  00120A  5173               	movf	(CAN_transmit@tempCanMsg+1)& (0+255),w,b
  5847  00120C  22DA               	addwfc	fsr2h,f,c
  5848  00120E  50DF               	movf	indf2,w,c
  5849  001210  0137               	movlb	55	; () banked
  5850  001212  6FCC               	movwf	204,b	;volatile
  5851  001214                     
  5852                           ; BSR set to: 55
  5853                           ;mcc_generated_files/ecan.c: 201:         TXB2D7 = tempCanMsg->frame.data7;
  5854  001214  0100               	movlb	0	; () banked
  5855  001216  EE20 F00D          	lfsr	2,13
  5856  00121A  5172               	movf	CAN_transmit@tempCanMsg& (0+255),w,b
  5857  00121C  26D9               	addwf	fsr2l,f,c
  5858  00121E  5173               	movf	(CAN_transmit@tempCanMsg+1)& (0+255),w,b
  5859  001220  22DA               	addwfc	fsr2h,f,c
  5860  001222  50DF               	movf	indf2,w,c
  5861  001224  0137               	movlb	55	; () banked
  5862  001226  6FCD               	movwf	205,b	;volatile
  5863  001228                     
  5864                           ; BSR set to: 55
  5865                           ;mcc_generated_files/ecan.c: 203:         TXB2CONbits.TXREQ = 1;
  5866  001228  87C0               	bsf	192,3,b	;volatile
  5867  00122A  EFB7  F007         	goto	l4363
  5868  00122E                     l855:
  5869  00122E                     l859:
  5870                           
  5871                           ; BSR set to: 55
  5872  00122E  0012               	return		;funcret
  5873  001230                     __end_of_CAN_transmit:
  5874                           	callstack 0
  5875                           
  5876 ;; *************** function ___wmul *****************
  5877 ;; Defined at:
  5878 ;;		line 15 in file "C:\Program Files\Microchip\xc8\v2.36\pic\sources\c99\common\Umul16.c"
  5879 ;; Parameters:    Size  Location     Type
  5880 ;;  multiplier      2    0[BANK0 ] unsigned int 
  5881 ;;  multiplicand    2    2[BANK0 ] unsigned int 
  5882 ;; Auto vars:     Size  Location     Type
  5883 ;;  product         2    4[BANK0 ] unsigned int 
  5884 ;; Return value:  Size  Location     Type
  5885 ;;                  2    0[BANK0 ] unsigned int 
  5886 ;; Registers used:
  5887 ;;		wreg, status,2, status,0, prodl, prodh
  5888 ;; Tracked objects:
  5889 ;;		On entry : 0/0
  5890 ;;		On exit  : 0/0
  5891 ;;		Unchanged: 0/0
  5892 ;; Data sizes:     COMRAM   BANK0   BANK1   BANK2   BANK3   BANK4   BANK5   BANK6   BANK7   BANK8   BANK9  BANK10  BANK1
      +1  BANK12  BANK13  BANK14  BANK15
  5893 ;;      Params:         0       4       0       0       0       0       0       0       0       0       0       0       
      +0       0       0       0       0
  5894 ;;      Locals:         0       2       0       0       0       0       0       0       0       0       0       0       
      +0       0       0       0       0
  5895 ;;      Temps:          0       0       0       0       0       0       0       0       0       0       0       0       
      +0       0       0       0       0
  5896 ;;      Totals:         0       6       0       0       0       0       0       0       0       0       0       0       
      +0       0       0       0       0
  5897 ;;Total ram usage:        6 bytes
  5898 ;; Hardware stack levels used: 1
  5899 ;; Hardware stack levels required when called: 6
  5900 ;; This function calls:
  5901 ;;		Nothing
  5902 ;; This function is called by:
  5903 ;;		_commControl_processEvent
  5904 ;;		_XF_init
  5905 ;; This function uses a non-reentrant model
  5906 ;;
  5907                           
  5908                           	psect	text19
  5909  003274                     __ptext19:
  5910                           	callstack 0
  5911  003274                     ___wmul:
  5912                           	callstack 23
  5913  003274  0100               	movlb	0	; () banked
  5914  003276  5160               	movf	___wmul@multiplier& (0+255),w,b
  5915  003278  0362               	mulwf	___wmul@multiplicand& (0+255),b
  5916  00327A  006F FFCC  F064    	movff	prodl,___wmul@product
  5917  003280  006F FFD0  F065    	movff	prodh,___wmul@product+1
  5918  003286  5160               	movf	___wmul@multiplier& (0+255),w,b
  5919  003288  0363               	mulwf	(___wmul@multiplicand+1)& (0+255),b
  5920  00328A  50F3               	movf	243,w,c
  5921  00328C  2765               	addwf	(___wmul@product+1)& (0+255),f,b
  5922  00328E  5161               	movf	(___wmul@multiplier+1)& (0+255),w,b
  5923  003290  0362               	mulwf	___wmul@multiplicand& (0+255),b
  5924  003292  50F3               	movf	243,w,c
  5925  003294  2765               	addwf	(___wmul@product+1)& (0+255),f,b
  5926  003296                     
  5927                           ; BSR set to: 0
  5928  003296  C064  F060         	movff	___wmul@product,?___wmul
  5929  00329A  C065  F061         	movff	___wmul@product+1,?___wmul+1
  5930  00329E                     
  5931                           ; BSR set to: 0
  5932  00329E  0012               	return		;funcret
  5933  0032A0                     __end_of___wmul:
  5934                           	callstack 0
  5935                           
  5936 ;; *************** function _Event_getData *****************
  5937 ;; Defined at:
  5938 ;;		line 18 in file "xf/event.c"
  5939 ;; Parameters:    Size  Location     Type
  5940 ;;  me              2    0[BANK0 ] PTR struct Event_
  5941 ;;		 -> XF_executeOnce@ev(15), 
  5942 ;; Auto vars:     Size  Location     Type
  5943 ;;		None
  5944 ;; Return value:  Size  Location     Type
  5945 ;;                  8    0[BANK0 ] long long 
  5946 ;; Registers used:
  5947 ;;		wreg, fsr2l, fsr2h, status,2, status,0
  5948 ;; Tracked objects:
  5949 ;;		On entry : 0/0
  5950 ;;		On exit  : 0/0
  5951 ;;		Unchanged: 0/0
  5952 ;; Data sizes:     COMRAM   BANK0   BANK1   BANK2   BANK3   BANK4   BANK5   BANK6   BANK7   BANK8   BANK9  BANK10  BANK1
      +1  BANK12  BANK13  BANK14  BANK15
  5953 ;;      Params:         0       8       0       0       0       0       0       0       0       0       0       0       
      +0       0       0       0       0
  5954 ;;      Locals:         0       0       0       0       0       0       0       0       0       0       0       0       
      +0       0       0       0       0
  5955 ;;      Temps:          0       8       0       0       0       0       0       0       0       0       0       0       
      +0       0       0       0       0
  5956 ;;      Totals:         0      16       0       0       0       0       0       0       0       0       0       0       
      +0       0       0       0       0
  5957 ;;Total ram usage:       16 bytes
  5958 ;; Hardware stack levels used: 1
  5959 ;; Hardware stack levels required when called: 6
  5960 ;; This function calls:
  5961 ;;		Nothing
  5962 ;; This function is called by:
  5963 ;;		_commControl_processEvent
  5964 ;; This function uses a non-reentrant model
  5965 ;;
  5966                           
  5967                           	psect	text20
  5968  002EC2                     __ptext20:
  5969                           	callstack 0
  5970  002EC2                     _Event_getData:
  5971                           	callstack 22
  5972  002EC2                     
  5973                           ;xf/event.c: 18: int64_t Event_getData(Event* me);xf/event.c: 19: {;xf/event.c: 20:     
      +                          return me->data;
  5974  002EC2  0100               	movlb	0	; () banked
  5975  002EC4  EE20 F007          	lfsr	2,7
  5976  002EC8  5160               	movf	Event_getData@me& (0+255),w,b
  5977  002ECA  26D9               	addwf	fsr2l,f,c
  5978  002ECC  5161               	movf	(Event_getData@me+1)& (0+255),w,b
  5979  002ECE  22DA               	addwfc	fsr2h,f,c
  5980  002ED0  006F FF78  F068    	movff	postinc2,??_Event_getData
  5981  002ED6  006F FF78  F069    	movff	postinc2,??_Event_getData+1
  5982  002EDC  006F FF78  F06A    	movff	postinc2,??_Event_getData+2
  5983  002EE2  006F FF78  F06B    	movff	postinc2,??_Event_getData+3
  5984  002EE8  006F FF78  F06C    	movff	postinc2,??_Event_getData+4
  5985  002EEE  006F FF78  F06D    	movff	postinc2,??_Event_getData+5
  5986  002EF4  006F FF78  F06E    	movff	postinc2,??_Event_getData+6
  5987  002EFA  006F FF78  F06F    	movff	postinc2,??_Event_getData+7
  5988  002F00  C068  F060         	movff	??_Event_getData,?_Event_getData
  5989  002F04  C069  F061         	movff	??_Event_getData+1,?_Event_getData+1
  5990  002F08  C06A  F062         	movff	??_Event_getData+2,?_Event_getData+2
  5991  002F0C  C06B  F063         	movff	??_Event_getData+3,?_Event_getData+3
  5992  002F10  C06C  F064         	movff	??_Event_getData+4,?_Event_getData+4
  5993  002F14  C06D  F065         	movff	??_Event_getData+5,?_Event_getData+5
  5994  002F18  C06E  F066         	movff	??_Event_getData+6,?_Event_getData+6
  5995  002F1C  C06F  F067         	movff	??_Event_getData+7,?_Event_getData+7
  5996  002F20                     
  5997                           ; BSR set to: 0
  5998  002F20  0012               	return		;funcret
  5999  002F22                     __end_of_Event_getData:
  6000                           	callstack 0
  6001                           
  6002 ;; *************** function _XF_popEvent *****************
  6003 ;; Defined at:
  6004 ;;		line 130 in file "xf/xf.c"
  6005 ;; Parameters:    Size  Location     Type
  6006 ;;  inISR           1    wreg     _Bool 
  6007 ;; Auto vars:     Size  Location     Type
  6008 ;;  inISR           1   23[BANK0 ] _Bool 
  6009 ;;  ev             15   24[BANK0 ] struct Event_
  6010 ;; Return value:  Size  Location     Type
  6011 ;;                  15    6[BANK0 ] struct Event_
  6012 ;; Registers used:
  6013 ;;		wreg, fsr0l, fsr0h, fsr1l, fsr1h, fsr2l, fsr2h, status,2, status,0, prodl, prodh, cstack
  6014 ;; Tracked objects:
  6015 ;;		On entry : 0/0
  6016 ;;		On exit  : 0/0
  6017 ;;		Unchanged: 0/0
  6018 ;; Data sizes:     COMRAM   BANK0   BANK1   BANK2   BANK3   BANK4   BANK5   BANK6   BANK7   BANK8   BANK9  BANK10  BANK1
      +1  BANK12  BANK13  BANK14  BANK15
  6019 ;;      Params:         0      15       0       0       0       0       0       0       0       0       0       0       
      +0       0       0       0       0
  6020 ;;      Locals:         0      16       0       0       0       0       0       0       0       0       0       0       
      +0       0       0       0       0
  6021 ;;      Temps:          0       2       0       0       0       0       0       0       0       0       0       0       
      +0       0       0       0       0
  6022 ;;      Totals:         0      33       0       0       0       0       0       0       0       0       0       0       
      +0       0       0       0       0
  6023 ;;Total ram usage:       33 bytes
  6024 ;; Hardware stack levels used: 1
  6025 ;; Hardware stack levels required when called: 7
  6026 ;; This function calls:
  6027 ;;		_ENTERCRITICAL
  6028 ;;		_LEAVECRITICAL
  6029 ;;		___awmod
  6030 ;; This function is called by:
  6031 ;;		_XF_executeOnce
  6032 ;; This function uses a non-reentrant model
  6033 ;;
  6034                           
  6035                           	psect	text21
  6036  002266                     __ptext21:
  6037                           	callstack 0
  6038  002266                     _XF_popEvent:
  6039                           	callstack 22
  6040                           
  6041                           ; BSR set to: 0
  6042                           ;incstack = 0
  6043                           ;XF_popEvent@inISR stored from wreg
  6044  002266  0100               	movlb	0	; () banked
  6045  002268  6F77               	movwf	XF_popEvent@inISR& (0+255),b
  6046  00226A                     
  6047                           ;xf/xf.c: 130: Event XF_popEvent(_Bool inISR);xf/xf.c: 131: {;xf/xf.c: 132:     Event ev
      +                          ;;xf/xf.c: 133:     ev.id = 0;
  6048  00226A  0E00               	movlw	0
  6049  00226C  0100               	movlb	0	; () banked
  6050  00226E  6F78               	movwf	XF_popEvent@ev& (0+255),b
  6051                           
  6052                           ;xf/xf.c: 134:     ev.target = ((void*)0);
  6053  002270  0E00               	movlw	0
  6054  002272  6F7B               	movwf	(XF_popEvent@ev+3)& (0+255),b
  6055  002274  0E00               	movlw	0
  6056  002276  6F7C               	movwf	(XF_popEvent@ev+4)& (0+255),b
  6057                           
  6058                           ;xf/xf.c: 135:     ev.processEvent = ((void*)0);
  6059  002278  0E00               	movlw	0
  6060  00227A  6F79               	movwf	(XF_popEvent@ev+1)& (0+255),b
  6061  00227C  0E00               	movlw	0
  6062  00227E  6F7A               	movwf	(XF_popEvent@ev+2)& (0+255),b
  6063  002280                     
  6064                           ; BSR set to: 0
  6065                           ;xf/xf.c: 137:     ENTERCRITICAL(inISR);
  6066  002280  5177               	movf	XF_popEvent@inISR& (0+255),w,b
  6067  002282  EC16  F01A         	call	_ENTERCRITICAL
  6068  002286                     
  6069                           ;xf/xf.c: 138:     if(theXF.in == theXF.out)
  6070  002286  EE20  F326         	lfsr	2,_theXF+317
  6071  00228A  EE10  F325         	lfsr	1,_theXF+316
  6072  00228E  50DE               	movf	postinc2,w,c
  6073  002290  18E6               	xorwf	postinc1,w,c
  6074  002292  A4D8               	btfss	status,2,c
  6075  002294  EF4E  F011         	goto	u2671
  6076  002298  EF50  F011         	goto	u2670
  6077  00229C                     u2671:
  6078  00229C  EF60  F011         	goto	l5203
  6079  0022A0                     u2670:
  6080  0022A0                     
  6081                           ;xf/xf.c: 139:     {;xf/xf.c: 140:       LEAVECRITICAL(inISR);
  6082  0022A0  0100               	movlb	0	; () banked
  6083  0022A2  5177               	movf	XF_popEvent@inISR& (0+255),w,b
  6084  0022A4  EC09  F01A         	call	_LEAVECRITICAL
  6085  0022A8                     l5199:
  6086                           
  6087                           ;xf/xf.c: 141:       return ev;
  6088  0022A8  EE20  F078         	lfsr	2,XF_popEvent@ev
  6089  0022AC  EE00  F066         	lfsr	0,?_XF_popEvent
  6090  0022B0  0E0E               	movlw	14
  6091  0022B2                     u2681:
  6092  0022B2  006F FF6F FFEB     	movff	plusw2,plusw0
  6093  0022B8  06E8               	decf	wreg,f,c
  6094  0022BA  E2FB               	bc	u2681
  6095  0022BC  EF8C  F011         	goto	l1154
  6096  0022C0                     l5203:
  6097                           
  6098                           ;xf/xf.c: 143:     ev = theXF.eventQueue[theXF.out];
  6099  0022C0  0060  FC98  F075   	movff	_theXF+317,??_XF_popEvent
  6100  0022C6  0100               	movlb	0	; () banked
  6101  0022C8  5175               	movf	??_XF_popEvent& (0+255),w,b
  6102  0022CA  0D0F               	mullw	15
  6103  0022CC  0E71               	movlw	low (_theXF+136)
  6104  0022CE  24F3               	addwf	243,w,c
  6105  0022D0  6ED9               	movwf	fsr2l,c
  6106  0022D2  0E02               	movlw	high (_theXF+136)
  6107  0022D4  20F4               	addwfc	prodh,w,c
  6108  0022D6  6EDA               	movwf	fsr2h,c
  6109  0022D8  EE10  F078         	lfsr	1,XF_popEvent@ev
  6110  0022DC  0E0E               	movlw	14
  6111  0022DE                     u2691:
  6112  0022DE  006F FF6F FFE3     	movff	plusw2,plusw1
  6113  0022E4  06E8               	decf	wreg,f,c
  6114  0022E6  E2FB               	bc	u2691
  6115  0022E8                     
  6116                           ; BSR set to: 0
  6117                           ;xf/xf.c: 144:     theXF.out = (theXF.out + 1)%(uint8_t)(sizeof(theXF.eventQueue) / size
      +                          of(Event));
  6118  0022E8  0060  FC98  F075   	movff	_theXF+317,??_XF_popEvent
  6119  0022EE  0E01               	movlw	1
  6120  0022F0  2575               	addwf	??_XF_popEvent& (0+255),w,b
  6121  0022F2  6F60               	movwf	___awmod@dividend& (0+255),b
  6122  0022F4  6B61               	clrf	(___awmod@dividend+1)& (0+255),b
  6123  0022F6  0E00               	movlw	0
  6124  0022F8  2361               	addwfc	(___awmod@dividend+1)& (0+255),f,b
  6125  0022FA  0E00               	movlw	0
  6126  0022FC  6F63               	movwf	(___awmod@divisor+1)& (0+255),b
  6127  0022FE  0E0C               	movlw	12
  6128  002300  6F62               	movwf	___awmod@divisor& (0+255),b
  6129  002302  EC8D  F011         	call	___awmod	;wreg free
  6130  002306  0100               	movlb	0	; () banked
  6131  002308  0060  F180  F326   	movff	?___awmod,_theXF+317
  6132  00230E                     
  6133                           ; BSR set to: 0
  6134                           ;xf/xf.c: 145:     LEAVECRITICAL(inISR);
  6135  00230E  5177               	movf	XF_popEvent@inISR& (0+255),w,b
  6136  002310  EC09  F01A         	call	_LEAVECRITICAL
  6137  002314  EF54  F011         	goto	l5199
  6138  002318                     l1154:
  6139  002318  0012               	return		;funcret
  6140  00231A                     __end_of_XF_popEvent:
  6141                           	callstack 0
  6142                           
  6143 ;; *************** function _Event_getId *****************
  6144 ;; Defined at:
  6145 ;;		line 48 in file "xf/event.c"
  6146 ;; Parameters:    Size  Location     Type
  6147 ;;  me              2    0[BANK0 ] PTR struct Event_
  6148 ;;		 -> XF_executeOnce@ev(15), 
  6149 ;; Auto vars:     Size  Location     Type
  6150 ;;		None
  6151 ;; Return value:  Size  Location     Type
  6152 ;;                  1    wreg      unsigned char 
  6153 ;; Registers used:
  6154 ;;		wreg, fsr2l, fsr2h
  6155 ;; Tracked objects:
  6156 ;;		On entry : 0/0
  6157 ;;		On exit  : 0/0
  6158 ;;		Unchanged: 0/0
  6159 ;; Data sizes:     COMRAM   BANK0   BANK1   BANK2   BANK3   BANK4   BANK5   BANK6   BANK7   BANK8   BANK9  BANK10  BANK1
      +1  BANK12  BANK13  BANK14  BANK15
  6160 ;;      Params:         0       2       0       0       0       0       0       0       0       0       0       0       
      +0       0       0       0       0
  6161 ;;      Locals:         0       0       0       0       0       0       0       0       0       0       0       0       
      +0       0       0       0       0
  6162 ;;      Temps:          0       0       0       0       0       0       0       0       0       0       0       0       
      +0       0       0       0       0
  6163 ;;      Totals:         0       2       0       0       0       0       0       0       0       0       0       0       
      +0       0       0       0       0
  6164 ;;Total ram usage:        2 bytes
  6165 ;; Hardware stack levels used: 1
  6166 ;; Hardware stack levels required when called: 6
  6167 ;; This function calls:
  6168 ;;		Nothing
  6169 ;; This function is called by:
  6170 ;;		_ButtonSM_processEvent
  6171 ;;		_commControl_processEvent
  6172 ;; This function uses a non-reentrant model
  6173 ;;
  6174                           
  6175                           	psect	text22
  6176  0034E6                     __ptext22:
  6177                           	callstack 0
  6178  0034E6                     _Event_getId:
  6179                           	callstack 22
  6180  0034E6                     
  6181                           ;xf/event.c: 48: evIDT Event_getId(Event* me);xf/event.c: 49: {;xf/event.c: 50:     retu
      +                          rn me->id;
  6182  0034E6  0060  F183  FFD9   	movff	Event_getId@me,fsr2l
  6183  0034EC  0060  F187  FFDA   	movff	Event_getId@me+1,fsr2h
  6184  0034F2  50DF               	movf	indf2,w,c
  6185  0034F4  0012               	return		;funcret
  6186  0034F6                     __end_of_Event_getId:
  6187                           	callstack 0
  6188                           
  6189 ;; *************** function _Button_getId *****************
  6190 ;; Defined at:
  6191 ;;		line 57 in file "board/button/button.c"
  6192 ;; Parameters:    Size  Location     Type
  6193 ;;  me              2    0[BANK0 ] PTR struct Button_
  6194 ;;		 -> theFactory(233), 
  6195 ;; Auto vars:     Size  Location     Type
  6196 ;;		None
  6197 ;; Return value:  Size  Location     Type
  6198 ;;                  1    wreg      unsigned char 
  6199 ;; Registers used:
  6200 ;;		wreg, fsr2l, fsr2h
  6201 ;; Tracked objects:
  6202 ;;		On entry : 0/0
  6203 ;;		On exit  : 0/0
  6204 ;;		Unchanged: 0/0
  6205 ;; Data sizes:     COMRAM   BANK0   BANK1   BANK2   BANK3   BANK4   BANK5   BANK6   BANK7   BANK8   BANK9  BANK10  BANK1
      +1  BANK12  BANK13  BANK14  BANK15
  6206 ;;      Params:         0       2       0       0       0       0       0       0       0       0       0       0       
      +0       0       0       0       0
  6207 ;;      Locals:         0       0       0       0       0       0       0       0       0       0       0       0       
      +0       0       0       0       0
  6208 ;;      Temps:          0       0       0       0       0       0       0       0       0       0       0       0       
      +0       0       0       0       0
  6209 ;;      Totals:         0       2       0       0       0       0       0       0       0       0       0       0       
      +0       0       0       0       0
  6210 ;;Total ram usage:        2 bytes
  6211 ;; Hardware stack levels used: 1
  6212 ;; Hardware stack levels required when called: 6
  6213 ;; This function calls:
  6214 ;;		Nothing
  6215 ;; This function is called by:
  6216 ;;		_ButtonSM_processEvent
  6217 ;; This function uses a non-reentrant model
  6218 ;;
  6219                           
  6220                           	psect	text23
  6221  0034F6                     __ptext23:
  6222                           	callstack 0
  6223  0034F6                     _Button_getId:
  6224                           	callstack 22
  6225  0034F6                     
  6226                           ;board/button/button.c: 57: uint8_t Button_getId(Button* me);board/button/button.c: 58: 
      +                          {;board/button/button.c: 59:     return me->id;
  6227  0034F6  0060  F183  FFD9   	movff	Button_getId@me,fsr2l
  6228  0034FC  0060  F187  FFDA   	movff	Button_getId@me+1,fsr2h
  6229  003502  50DF               	movf	indf2,w,c
  6230  003504  0012               	return		;funcret
  6231  003506                     __end_of_Button_getId:
  6232                           	callstack 0
  6233                           
  6234 ;; *************** function _BLControl_onButton *****************
  6235 ;; Defined at:
  6236 ;;		line 11 in file "app/blcontrol.c"
  6237 ;; Parameters:    Size  Location     Type
  6238 ;;  me              2    6[BANK0 ] PTR void 
  6239 ;;		 -> theFactory(233), NULL(0), 
  6240 ;;  buttonId        1    8[BANK0 ] unsigned char 
  6241 ;;  pressed         1    9[BANK0 ] _Bool 
  6242 ;; Auto vars:     Size  Location     Type
  6243 ;;  realMe          2    0        PTR struct BLControl_
  6244 ;;		 -> theFactory(233), NULL(0), 
  6245 ;; Return value:  Size  Location     Type
  6246 ;;                  1    wreg      void 
  6247 ;; Registers used:
  6248 ;;		wreg, fsr2l, fsr2h, status,2, status,0, cstack
  6249 ;; Tracked objects:
  6250 ;;		On entry : 0/0
  6251 ;;		On exit  : 0/0
  6252 ;;		Unchanged: 0/0
  6253 ;; Data sizes:     COMRAM   BANK0   BANK1   BANK2   BANK3   BANK4   BANK5   BANK6   BANK7   BANK8   BANK9  BANK10  BANK1
      +1  BANK12  BANK13  BANK14  BANK15
  6254 ;;      Params:         0       4       0       0       0       0       0       0       0       0       0       0       
      +0       0       0       0       0
  6255 ;;      Locals:         0       0       0       0       0       0       0       0       0       0       0       0       
      +0       0       0       0       0
  6256 ;;      Temps:          0       0       0       0       0       0       0       0       0       0       0       0       
      +0       0       0       0       0
  6257 ;;      Totals:         0       4       0       0       0       0       0       0       0       0       0       0       
      +0       0       0       0       0
  6258 ;;Total ram usage:        4 bytes
  6259 ;; Hardware stack levels used: 1
  6260 ;; Hardware stack levels required when called: 7
  6261 ;; This function calls:
  6262 ;;		_LED_off
  6263 ;;		_LED_on
  6264 ;;		_l
  6265 ;; This function is called by:
  6266 ;;		_Factory_build
  6267 ;;		_ButtonSM_processEvent
  6268 ;; This function uses a non-reentrant model
  6269 ;;
  6270                           
  6271                           	psect	text24
  6272  00302C                     __ptext24:
  6273                           	callstack 0
  6274  00302C                     _BLControl_onButton:
  6275                           	callstack 21
  6276  00302C                     
  6277                           ;app/blcontrol.c: 14:     if (buttonId == 1)
  6278  00302C  0100               	movlb	0	; () banked
  6279  00302E  0568               	decf	BLControl_onButton@buttonId& (0+255),w,b
  6280  003030  A4D8               	btfss	status,2,c
  6281  003032  EF1D  F018         	goto	u2081
  6282  003036  EF1F  F018         	goto	u2080
  6283  00303A                     u2081:
  6284  00303A  EF39  F018         	goto	l15
  6285  00303E                     u2080:
  6286  00303E                     
  6287                           ; BSR set to: 0
  6288                           ;app/blcontrol.c: 15:     {;app/blcontrol.c: 16:         if (pressed)
  6289  00303E  5169               	movf	BLControl_onButton@pressed& (0+255),w,b
  6290  003040  B4D8               	btfsc	status,2,c
  6291  003042  EF25  F018         	goto	u2091
  6292  003046  EF27  F018         	goto	u2090
  6293  00304A                     u2091:
  6294  00304A  EF31  F018         	goto	l4519
  6295  00304E                     u2090:
  6296  00304E                     
  6297                           ; BSR set to: 0
  6298                           ;app/blcontrol.c: 17:         {;app/blcontrol.c: 18:             LED_on(l());
  6299  00304E  EC96  F01A         	call	_l	;wreg free
  6300  003052  C060  F062         	movff	?_l,LED_on@me
  6301  003056  C061  F063         	movff	?_l+1,LED_on@me+1
  6302  00305A  EC34  F015         	call	_LED_on	;wreg free
  6303                           
  6304                           ;app/blcontrol.c: 19:         }
  6305  00305E  EF39  F018         	goto	l15
  6306  003062                     l4519:
  6307                           
  6308                           ; BSR set to: 0
  6309                           ;app/blcontrol.c: 21:         {;app/blcontrol.c: 22:             LED_off(l());
  6310  003062  EC96  F01A         	call	_l	;wreg free
  6311  003066  C060  F062         	movff	?_l,LED_off@me
  6312  00306A  C061  F063         	movff	?_l+1,LED_off@me+1
  6313  00306E  EC76  F015         	call	_LED_off	;wreg free
  6314  003072                     l15:
  6315  003072  0012               	return		;funcret
  6316  003074                     __end_of_BLControl_onButton:
  6317                           	callstack 0
  6318                           
  6319 ;; *************** function _LED_on *****************
  6320 ;; Defined at:
  6321 ;;		line 31 in file "board/led/led.c"
  6322 ;; Parameters:    Size  Location     Type
  6323 ;;  me              2    2[BANK0 ] PTR struct LED_
  6324 ;;		 -> theFactory.l_(1), theFactory(233), 
  6325 ;; Auto vars:     Size  Location     Type
  6326 ;;		None
  6327 ;; Return value:  Size  Location     Type
  6328 ;;                  1    wreg      void 
  6329 ;; Registers used:
  6330 ;;		wreg, fsr2l, fsr2h, status,2, status,0
  6331 ;; Tracked objects:
  6332 ;;		On entry : 0/0
  6333 ;;		On exit  : 0/0
  6334 ;;		Unchanged: 0/0
  6335 ;; Data sizes:     COMRAM   BANK0   BANK1   BANK2   BANK3   BANK4   BANK5   BANK6   BANK7   BANK8   BANK9  BANK10  BANK1
      +1  BANK12  BANK13  BANK14  BANK15
  6336 ;;      Params:         0       2       0       0       0       0       0       0       0       0       0       0       
      +0       0       0       0       0
  6337 ;;      Locals:         0       0       0       0       0       0       0       0       0       0       0       0       
      +0       0       0       0       0
  6338 ;;      Temps:          0       2       0       0       0       0       0       0       0       0       0       0       
      +0       0       0       0       0
  6339 ;;      Totals:         0       4       0       0       0       0       0       0       0       0       0       0       
      +0       0       0       0       0
  6340 ;;Total ram usage:        4 bytes
  6341 ;; Hardware stack levels used: 1
  6342 ;; Hardware stack levels required when called: 6
  6343 ;; This function calls:
  6344 ;;		Nothing
  6345 ;; This function is called by:
  6346 ;;		_BLControl_onButton
  6347 ;;		_LED_setState
  6348 ;; This function uses a non-reentrant model
  6349 ;;
  6350                           
  6351                           	psect	text25
  6352  002A68                     __ptext25:
  6353                           	callstack 0
  6354  002A68                     _LED_on:
  6355                           	callstack 21
  6356  002A68                     
  6357                           ;board/led/led.c: 31: void LED_on(LED* me);board/led/led.c: 32: {;board/led/led.c: 33:  
      +                             switch (me->id)
  6358  002A68  EF39  F015         	goto	l4201
  6359  002A6C                     l110:
  6360                           
  6361                           ; BSR set to: 0
  6362  002A6C  82BB               	bsf	187,1,c	;volatile
  6363  002A6E  EF75  F015         	goto	l122
  6364  002A72                     l4201:
  6365  002A72  0060  F18B  FFD9   	movff	LED_on@me,fsr2l
  6366  002A78  0060  F18F  FFDA   	movff	LED_on@me+1,fsr2h
  6367  002A7E  50DF               	movf	indf2,w,c
  6368  002A80  0100               	movlb	0	; () banked
  6369  002A82  6F64               	movwf	??_LED_on& (0+255),b
  6370  002A84  6B65               	clrf	(??_LED_on+1)& (0+255),b
  6371                           
  6372                           ; Switch on 2 bytes has been partitioned into a top level switch of size 1, and 1 sub-sw
      +                          itches
  6373                           ; Switch size 1, requested type "simple"
  6374                           ; Number of cases is 1, Range of values is 0 to 0
  6375                           ; switch strategies available:
  6376                           ; Name         Instructions Cycles
  6377                           ; simple_byte            4     3 (average)
  6378                           ;	Chosen strategy is simple_byte
  6379  002A86  5165               	movf	(??_LED_on+1)& (0+255),w,b
  6380  002A88  0A00               	xorlw	0	; case 0
  6381  002A8A  B4D8               	btfsc	status,2,c
  6382  002A8C  EF4A  F015         	goto	l6053
  6383  002A90  EF75  F015         	goto	l122
  6384  002A94                     l6053:
  6385                           
  6386                           ; BSR set to: 0
  6387                           ; Switch size 1, requested type "simple"
  6388                           ; Number of cases is 10, Range of values is 1 to 10
  6389                           ; switch strategies available:
  6390                           ; Name         Instructions Cycles
  6391                           ; simple_byte           31    16 (average)
  6392                           ;	Chosen strategy is simple_byte
  6393  002A94  5164               	movf	??_LED_on& (0+255),w,b
  6394  002A96  0A01               	xorlw	1	; case 1
  6395  002A98  B4D8               	btfsc	status,2,c
  6396  002A9A  EF36  F015         	goto	l110
  6397  002A9E  0A03               	xorlw	3	; case 2
  6398  002AA0  B4D8               	btfsc	status,2,c
  6399  002AA2  EF75  F015         	goto	l122
  6400  002AA6  0A01               	xorlw	1	; case 3
  6401  002AA8  B4D8               	btfsc	status,2,c
  6402  002AAA  EF75  F015         	goto	l122
  6403  002AAE  0A07               	xorlw	7	; case 4
  6404  002AB0  B4D8               	btfsc	status,2,c
  6405  002AB2  EF75  F015         	goto	l122
  6406  002AB6  0A01               	xorlw	1	; case 5
  6407  002AB8  B4D8               	btfsc	status,2,c
  6408  002ABA  EF75  F015         	goto	l122
  6409  002ABE  0A03               	xorlw	3	; case 6
  6410  002AC0  B4D8               	btfsc	status,2,c
  6411  002AC2  EF75  F015         	goto	l122
  6412  002AC6  0A01               	xorlw	1	; case 7
  6413  002AC8  B4D8               	btfsc	status,2,c
  6414  002ACA  EF75  F015         	goto	l122
  6415  002ACE  0A0F               	xorlw	15	; case 8
  6416  002AD0  B4D8               	btfsc	status,2,c
  6417  002AD2  EF75  F015         	goto	l122
  6418  002AD6  0A01               	xorlw	1	; case 9
  6419  002AD8  B4D8               	btfsc	status,2,c
  6420  002ADA  EF75  F015         	goto	l122
  6421  002ADE  0A03               	xorlw	3	; case 10
  6422  002AE0  B4D8               	btfsc	status,2,c
  6423  002AE2  EF75  F015         	goto	l122
  6424  002AE6  EF75  F015         	goto	l122
  6425  002AEA                     l122:
  6426                           
  6427                           ; BSR set to: 0
  6428  002AEA  0012               	return		;funcret
  6429  002AEC                     __end_of_LED_on:
  6430                           	callstack 0
  6431                           
  6432 ;; *************** function _SYSTEM_Initialize *****************
  6433 ;; Defined at:
  6434 ;;		line 50 in file "mcc_generated_files/mcc.c"
  6435 ;; Parameters:    Size  Location     Type
  6436 ;;		None
  6437 ;; Auto vars:     Size  Location     Type
  6438 ;;		None
  6439 ;; Return value:  Size  Location     Type
  6440 ;;                  1    wreg      void 
  6441 ;; Registers used:
  6442 ;;		wreg, fsr2l, fsr2h, status,2, status,0, cstack
  6443 ;; Tracked objects:
  6444 ;;		On entry : 0/0
  6445 ;;		On exit  : 0/0
  6446 ;;		Unchanged: 0/0
  6447 ;; Data sizes:     COMRAM   BANK0   BANK1   BANK2   BANK3   BANK4   BANK5   BANK6   BANK7   BANK8   BANK9  BANK10  BANK1
      +1  BANK12  BANK13  BANK14  BANK15
  6448 ;;      Params:         0       0       0       0       0       0       0       0       0       0       0       0       
      +0       0       0       0       0
  6449 ;;      Locals:         0       0       0       0       0       0       0       0       0       0       0       0       
      +0       0       0       0       0
  6450 ;;      Temps:          0       0       0       0       0       0       0       0       0       0       0       0       
      +0       0       0       0       0
  6451 ;;      Totals:         0       0       0       0       0       0       0       0       0       0       0       0       
      +0       0       0       0       0
  6452 ;;Total ram usage:        0 bytes
  6453 ;; Hardware stack levels used: 1
  6454 ;; Hardware stack levels required when called: 8
  6455 ;; This function calls:
  6456 ;;		_ECAN_Initialize
  6457 ;;		_INTERRUPT_Initialize
  6458 ;;		_OSCILLATOR_Initialize
  6459 ;;		_PIN_MANAGER_Initialize
  6460 ;;		_PMD_Initialize
  6461 ;;		_TMR0_Initialize
  6462 ;;		_UART1_Initialize
  6463 ;; This function is called by:
  6464 ;;		_main
  6465 ;; This function uses a non-reentrant model
  6466 ;;
  6467                           
  6468                           	psect	text26
  6469  003384                     __ptext26:
  6470                           	callstack 0
  6471  003384                     _SYSTEM_Initialize:
  6472                           	callstack 22
  6473  003384                     
  6474                           ;mcc_generated_files/mcc.c: 52:     INTERRUPT_Initialize();
  6475  003384  ECC8  F01A         	call	_INTERRUPT_Initialize	;wreg free
  6476  003388                     
  6477                           ;mcc_generated_files/mcc.c: 53:     PMD_Initialize();
  6478  003388  ECA0  F019         	call	_PMD_Initialize	;wreg free
  6479  00338C                     
  6480                           ;mcc_generated_files/mcc.c: 54:     PIN_MANAGER_Initialize();
  6481  00338C  EC91  F017         	call	_PIN_MANAGER_Initialize	;wreg free
  6482  003390                     
  6483                           ;mcc_generated_files/mcc.c: 55:     OSCILLATOR_Initialize();
  6484  003390  EC3D  F01A         	call	_OSCILLATOR_Initialize	;wreg free
  6485  003394                     
  6486                           ;mcc_generated_files/mcc.c: 56:     TMR0_Initialize();
  6487  003394  EC8D  F019         	call	_TMR0_Initialize	;wreg free
  6488  003398                     
  6489                           ;mcc_generated_files/mcc.c: 57:     UART1_Initialize();
  6490  003398  EC30  F016         	call	_UART1_Initialize	;wreg free
  6491  00339C                     
  6492                           ;mcc_generated_files/mcc.c: 58:     ECAN_Initialize();
  6493  00339C  EC93  F00A         	call	_ECAN_Initialize	;wreg free
  6494  0033A0  0012               	return		;funcret
  6495  0033A2                     __end_of_SYSTEM_Initialize:
  6496                           	callstack 0
  6497                           
  6498 ;; *************** function _UART1_Initialize *****************
  6499 ;; Defined at:
  6500 ;;		line 66 in file "mcc_generated_files/uart1.c"
  6501 ;; Parameters:    Size  Location     Type
  6502 ;;		None
  6503 ;; Auto vars:     Size  Location     Type
  6504 ;;		None
  6505 ;; Return value:  Size  Location     Type
  6506 ;;                  1    wreg      void 
  6507 ;; Registers used:
  6508 ;;		wreg, status,2, status,0, cstack
  6509 ;; Tracked objects:
  6510 ;;		On entry : 0/0
  6511 ;;		On exit  : 0/0
  6512 ;;		Unchanged: 0/0
  6513 ;; Data sizes:     COMRAM   BANK0   BANK1   BANK2   BANK3   BANK4   BANK5   BANK6   BANK7   BANK8   BANK9  BANK10  BANK1
      +1  BANK12  BANK13  BANK14  BANK15
  6514 ;;      Params:         0       0       0       0       0       0       0       0       0       0       0       0       
      +0       0       0       0       0
  6515 ;;      Locals:         0       0       0       0       0       0       0       0       0       0       0       0       
      +0       0       0       0       0
  6516 ;;      Temps:          0       0       0       0       0       0       0       0       0       0       0       0       
      +0       0       0       0       0
  6517 ;;      Totals:         0       0       0       0       0       0       0       0       0       0       0       0       
      +0       0       0       0       0
  6518 ;;Total ram usage:        0 bytes
  6519 ;; Hardware stack levels used: 1
  6520 ;; Hardware stack levels required when called: 7
  6521 ;; This function calls:
  6522 ;;		_UART1_SetErrorHandler
  6523 ;;		_UART1_SetFramingErrorHandler
  6524 ;;		_UART1_SetOverrunErrorHandler
  6525 ;; This function is called by:
  6526 ;;		_SYSTEM_Initialize
  6527 ;; This function uses a non-reentrant model
  6528 ;;
  6529                           
  6530                           	psect	text27
  6531  002C60                     __ptext27:
  6532                           	callstack 0
  6533  002C60                     _UART1_Initialize:
  6534                           	callstack 22
  6535  002C60                     
  6536                           ;mcc_generated_files/uart1.c: 73:     U1P1L = 0x00;
  6537  002C60  0E00               	movlw	0
  6538  002C62  013D               	movlb	61	; () banked
  6539  002C64  6FEC               	movwf	236,b	;volatile
  6540                           
  6541                           ;mcc_generated_files/uart1.c: 76:     U1P1H = 0x00;
  6542  002C66  0E00               	movlw	0
  6543  002C68  6FED               	movwf	237,b	;volatile
  6544                           
  6545                           ;mcc_generated_files/uart1.c: 79:     U1P2L = 0x00;
  6546  002C6A  0E00               	movlw	0
  6547  002C6C  6FEE               	movwf	238,b	;volatile
  6548                           
  6549                           ;mcc_generated_files/uart1.c: 82:     U1P2H = 0x00;
  6550  002C6E  0E00               	movlw	0
  6551  002C70  6FEF               	movwf	239,b	;volatile
  6552                           
  6553                           ;mcc_generated_files/uart1.c: 85:     U1P3L = 0x00;
  6554  002C72  0E00               	movlw	0
  6555  002C74  6FF0               	movwf	240,b	;volatile
  6556                           
  6557                           ;mcc_generated_files/uart1.c: 88:     U1P3H = 0x00;
  6558  002C76  0E00               	movlw	0
  6559  002C78  6FF1               	movwf	241,b	;volatile
  6560                           
  6561                           ;mcc_generated_files/uart1.c: 91:     U1CON0 = 0xB0;
  6562  002C7A  0EB0               	movlw	176
  6563  002C7C  6FF2               	movwf	242,b	;volatile
  6564                           
  6565                           ;mcc_generated_files/uart1.c: 94:     U1CON1 = 0x80;
  6566  002C7E  0E80               	movlw	128
  6567  002C80  6FF3               	movwf	243,b	;volatile
  6568                           
  6569                           ;mcc_generated_files/uart1.c: 97:     U1CON2 = 0x00;
  6570  002C82  0E00               	movlw	0
  6571  002C84  6FF4               	movwf	244,b	;volatile
  6572                           
  6573                           ;mcc_generated_files/uart1.c: 100:     U1BRGL = 0x8A;
  6574  002C86  0E8A               	movlw	138
  6575  002C88  6FF5               	movwf	245,b	;volatile
  6576                           
  6577                           ;mcc_generated_files/uart1.c: 103:     U1BRGH = 0x00;
  6578  002C8A  0E00               	movlw	0
  6579  002C8C  6FF6               	movwf	246,b	;volatile
  6580                           
  6581                           ;mcc_generated_files/uart1.c: 106:     U1FIFO = 0x00;
  6582  002C8E  0E00               	movlw	0
  6583  002C90  6FF7               	movwf	247,b	;volatile
  6584                           
  6585                           ;mcc_generated_files/uart1.c: 109:     U1UIR = 0x00;
  6586  002C92  0E00               	movlw	0
  6587  002C94  6FF8               	movwf	248,b	;volatile
  6588                           
  6589                           ;mcc_generated_files/uart1.c: 112:     U1ERRIR = 0x00;
  6590  002C96  0E00               	movlw	0
  6591  002C98  6FF9               	movwf	249,b	;volatile
  6592                           
  6593                           ;mcc_generated_files/uart1.c: 115:     U1ERRIE = 0x00;
  6594  002C9A  0E00               	movlw	0
  6595  002C9C  6FFA               	movwf	250,b	;volatile
  6596  002C9E                     
  6597                           ; BSR set to: 61
  6598                           ;mcc_generated_files/uart1.c: 118:     UART1_SetFramingErrorHandler(UART1_DefaultFraming
      +                          ErrorHandler);
  6599  002C9E  0E00               	movlw	0
  6600  002CA0  0100               	movlb	0	; () banked
  6601  002CA2  6F60               	movwf	UART1_SetFramingErrorHandler@interruptHandler& (0+255),b
  6602  002CA4  0E00               	movlw	0
  6603  002CA6  6F61               	movwf	(UART1_SetFramingErrorHandler@interruptHandler+1)& (0+255),b
  6604  002CA8  ECB9  F01A         	call	_UART1_SetFramingErrorHandler	;wreg free
  6605  002CAC                     
  6606                           ;mcc_generated_files/uart1.c: 119:     UART1_SetOverrunErrorHandler(UART1_DefaultOverrun
      +                          ErrorHandler);
  6607  002CAC  0E00               	movlw	0
  6608  002CAE  0100               	movlb	0	; () banked
  6609  002CB0  6F60               	movwf	UART1_SetOverrunErrorHandler@interruptHandler& (0+255),b
  6610  002CB2  0E00               	movlw	0
  6611  002CB4  6F61               	movwf	(UART1_SetOverrunErrorHandler@interruptHandler+1)& (0+255),b
  6612  002CB6  ECB4  F01A         	call	_UART1_SetOverrunErrorHandler	;wreg free
  6613  002CBA                     
  6614                           ;mcc_generated_files/uart1.c: 120:     UART1_SetErrorHandler(UART1_DefaultErrorHandler);
  6615  002CBA  0E00               	movlw	0
  6616  002CBC  0100               	movlb	0	; () banked
  6617  002CBE  6F60               	movwf	UART1_SetErrorHandler@interruptHandler& (0+255),b
  6618  002CC0  0E00               	movlw	0
  6619  002CC2  6F61               	movwf	(UART1_SetErrorHandler@interruptHandler+1)& (0+255),b
  6620  002CC4  ECBE  F01A         	call	_UART1_SetErrorHandler	;wreg free
  6621  002CC8                     
  6622                           ;mcc_generated_files/uart1.c: 122:     uart1RxLastError.status = 0;
  6623  002CC8  0E00               	movlw	0
  6624  002CCA  0100               	movlb	0	; () banked
  6625  002CCC  6FD7               	movwf	_uart1RxLastError& (0+255),b	;volatile
  6626  002CCE                     
  6627                           ; BSR set to: 0
  6628  002CCE  0012               	return		;funcret
  6629  002CD0                     __end_of_UART1_Initialize:
  6630                           	callstack 0
  6631                           
  6632 ;; *************** function _UART1_SetOverrunErrorHandler *****************
  6633 ;; Defined at:
  6634 ;;		line 194 in file "mcc_generated_files/uart1.c"
  6635 ;; Parameters:    Size  Location     Type
  6636 ;;  interruptHan    2    0[BANK0 ] PTR FTN()void 
  6637 ;;		 -> UART1_DefaultOverrunErrorHandler(1), 
  6638 ;; Auto vars:     Size  Location     Type
  6639 ;;		None
  6640 ;; Return value:  Size  Location     Type
  6641 ;;                  1    wreg      void 
  6642 ;; Registers used:
  6643 ;;		wreg, status,2, status,0
  6644 ;; Tracked objects:
  6645 ;;		On entry : 0/0
  6646 ;;		On exit  : 0/0
  6647 ;;		Unchanged: 0/0
  6648 ;; Data sizes:     COMRAM   BANK0   BANK1   BANK2   BANK3   BANK4   BANK5   BANK6   BANK7   BANK8   BANK9  BANK10  BANK1
      +1  BANK12  BANK13  BANK14  BANK15
  6649 ;;      Params:         0       2       0       0       0       0       0       0       0       0       0       0       
      +0       0       0       0       0
  6650 ;;      Locals:         0       0       0       0       0       0       0       0       0       0       0       0       
      +0       0       0       0       0
  6651 ;;      Temps:          0       0       0       0       0       0       0       0       0       0       0       0       
      +0       0       0       0       0
  6652 ;;      Totals:         0       2       0       0       0       0       0       0       0       0       0       0       
      +0       0       0       0       0
  6653 ;;Total ram usage:        2 bytes
  6654 ;; Hardware stack levels used: 1
  6655 ;; Hardware stack levels required when called: 6
  6656 ;; This function calls:
  6657 ;;		Nothing
  6658 ;; This function is called by:
  6659 ;;		_UART1_Initialize
  6660 ;; This function uses a non-reentrant model
  6661 ;;
  6662                           
  6663                           	psect	text28
  6664  003568                     __ptext28:
  6665                           	callstack 0
  6666  003568                     _UART1_SetOverrunErrorHandler:
  6667                           	callstack 22
  6668  003568                     
  6669                           ;mcc_generated_files/uart1.c: 195:     UART1_OverrunErrorHandler = interruptHandler;
  6670  003568  C060  F0D3         	movff	UART1_SetOverrunErrorHandler@interruptHandler,_UART1_OverrunErrorHandler
  6671  00356C  C061  F0D4         	movff	UART1_SetOverrunErrorHandler@interruptHandler+1,_UART1_OverrunErrorHandler+1
  6672  003570  0012               	return		;funcret
  6673  003572                     __end_of_UART1_SetOverrunErrorHandler:
  6674                           	callstack 0
  6675                           
  6676 ;; *************** function _UART1_SetFramingErrorHandler *****************
  6677 ;; Defined at:
  6678 ;;		line 190 in file "mcc_generated_files/uart1.c"
  6679 ;; Parameters:    Size  Location     Type
  6680 ;;  interruptHan    2    0[BANK0 ] PTR FTN()void 
  6681 ;;		 -> UART1_DefaultFramingErrorHandler(1), 
  6682 ;; Auto vars:     Size  Location     Type
  6683 ;;		None
  6684 ;; Return value:  Size  Location     Type
  6685 ;;                  1    wreg      void 
  6686 ;; Registers used:
  6687 ;;		wreg, status,2, status,0
  6688 ;; Tracked objects:
  6689 ;;		On entry : 0/0
  6690 ;;		On exit  : 0/0
  6691 ;;		Unchanged: 0/0
  6692 ;; Data sizes:     COMRAM   BANK0   BANK1   BANK2   BANK3   BANK4   BANK5   BANK6   BANK7   BANK8   BANK9  BANK10  BANK1
      +1  BANK12  BANK13  BANK14  BANK15
  6693 ;;      Params:         0       2       0       0       0       0       0       0       0       0       0       0       
      +0       0       0       0       0
  6694 ;;      Locals:         0       0       0       0       0       0       0       0       0       0       0       0       
      +0       0       0       0       0
  6695 ;;      Temps:          0       0       0       0       0       0       0       0       0       0       0       0       
      +0       0       0       0       0
  6696 ;;      Totals:         0       2       0       0       0       0       0       0       0       0       0       0       
      +0       0       0       0       0
  6697 ;;Total ram usage:        2 bytes
  6698 ;; Hardware stack levels used: 1
  6699 ;; Hardware stack levels required when called: 6
  6700 ;; This function calls:
  6701 ;;		Nothing
  6702 ;; This function is called by:
  6703 ;;		_UART1_Initialize
  6704 ;; This function uses a non-reentrant model
  6705 ;;
  6706                           
  6707                           	psect	text29
  6708  003572                     __ptext29:
  6709                           	callstack 0
  6710  003572                     _UART1_SetFramingErrorHandler:
  6711                           	callstack 22
  6712  003572                     
  6713                           ;mcc_generated_files/uart1.c: 191:     UART1_FramingErrorHandler = interruptHandler;
  6714  003572  C060  F0D5         	movff	UART1_SetFramingErrorHandler@interruptHandler,_UART1_FramingErrorHandler
  6715  003576  C061  F0D6         	movff	UART1_SetFramingErrorHandler@interruptHandler+1,_UART1_FramingErrorHandler+1
  6716  00357A  0012               	return		;funcret
  6717  00357C                     __end_of_UART1_SetFramingErrorHandler:
  6718                           	callstack 0
  6719                           
  6720 ;; *************** function _UART1_SetErrorHandler *****************
  6721 ;; Defined at:
  6722 ;;		line 198 in file "mcc_generated_files/uart1.c"
  6723 ;; Parameters:    Size  Location     Type
  6724 ;;  interruptHan    2    0[BANK0 ] PTR FTN()void 
  6725 ;;		 -> UART1_DefaultErrorHandler(1), 
  6726 ;; Auto vars:     Size  Location     Type
  6727 ;;		None
  6728 ;; Return value:  Size  Location     Type
  6729 ;;                  1    wreg      void 
  6730 ;; Registers used:
  6731 ;;		wreg, status,2, status,0
  6732 ;; Tracked objects:
  6733 ;;		On entry : 0/0
  6734 ;;		On exit  : 0/0
  6735 ;;		Unchanged: 0/0
  6736 ;; Data sizes:     COMRAM   BANK0   BANK1   BANK2   BANK3   BANK4   BANK5   BANK6   BANK7   BANK8   BANK9  BANK10  BANK1
      +1  BANK12  BANK13  BANK14  BANK15
  6737 ;;      Params:         0       2       0       0       0       0       0       0       0       0       0       0       
      +0       0       0       0       0
  6738 ;;      Locals:         0       0       0       0       0       0       0       0       0       0       0       0       
      +0       0       0       0       0
  6739 ;;      Temps:          0       0       0       0       0       0       0       0       0       0       0       0       
      +0       0       0       0       0
  6740 ;;      Totals:         0       2       0       0       0       0       0       0       0       0       0       0       
      +0       0       0       0       0
  6741 ;;Total ram usage:        2 bytes
  6742 ;; Hardware stack levels used: 1
  6743 ;; Hardware stack levels required when called: 6
  6744 ;; This function calls:
  6745 ;;		Nothing
  6746 ;; This function is called by:
  6747 ;;		_UART1_Initialize
  6748 ;; This function uses a non-reentrant model
  6749 ;;
  6750                           
  6751                           	psect	text30
  6752  00357C                     __ptext30:
  6753                           	callstack 0
  6754  00357C                     _UART1_SetErrorHandler:
  6755                           	callstack 22
  6756  00357C                     
  6757                           ;mcc_generated_files/uart1.c: 199:     UART1_ErrorHandler = interruptHandler;
  6758  00357C  C060  F0D1         	movff	UART1_SetErrorHandler@interruptHandler,_UART1_ErrorHandler
  6759  003580  C061  F0D2         	movff	UART1_SetErrorHandler@interruptHandler+1,_UART1_ErrorHandler+1
  6760  003584  0012               	return		;funcret
  6761  003586                     __end_of_UART1_SetErrorHandler:
  6762                           	callstack 0
  6763                           
  6764 ;; *************** function _TMR0_Initialize *****************
  6765 ;; Defined at:
  6766 ;;		line 61 in file "mcc_generated_files/tmr0.c"
  6767 ;; Parameters:    Size  Location     Type
  6768 ;;		None
  6769 ;; Auto vars:     Size  Location     Type
  6770 ;;		None
  6771 ;; Return value:  Size  Location     Type
  6772 ;;                  1    wreg      void 
  6773 ;; Registers used:
  6774 ;;		wreg, status,2, status,0, cstack
  6775 ;; Tracked objects:
  6776 ;;		On entry : 0/0
  6777 ;;		On exit  : 0/0
  6778 ;;		Unchanged: 0/0
  6779 ;; Data sizes:     COMRAM   BANK0   BANK1   BANK2   BANK3   BANK4   BANK5   BANK6   BANK7   BANK8   BANK9  BANK10  BANK1
      +1  BANK12  BANK13  BANK14  BANK15
  6780 ;;      Params:         0       0       0       0       0       0       0       0       0       0       0       0       
      +0       0       0       0       0
  6781 ;;      Locals:         0       0       0       0       0       0       0       0       0       0       0       0       
      +0       0       0       0       0
  6782 ;;      Temps:          0       0       0       0       0       0       0       0       0       0       0       0       
      +0       0       0       0       0
  6783 ;;      Totals:         0       0       0       0       0       0       0       0       0       0       0       0       
      +0       0       0       0       0
  6784 ;;Total ram usage:        0 bytes
  6785 ;; Hardware stack levels used: 1
  6786 ;; Hardware stack levels required when called: 7
  6787 ;; This function calls:
  6788 ;;		_TMR0_SetInterruptHandler
  6789 ;; This function is called by:
  6790 ;;		_SYSTEM_Initialize
  6791 ;; This function uses a non-reentrant model
  6792 ;;
  6793                           
  6794                           	psect	text31
  6795  00331A                     __ptext31:
  6796                           	callstack 0
  6797  00331A                     _TMR0_Initialize:
  6798                           	callstack 22
  6799  00331A                     
  6800                           ;mcc_generated_files/tmr0.c: 66:     T0CON1 = 0x46;
  6801  00331A  0E46               	movlw	70
  6802  00331C  6EB9               	movwf	185,c	;volatile
  6803                           
  6804                           ;mcc_generated_files/tmr0.c: 69:     TMR0H = 0xF9;
  6805  00331E  0EF9               	movlw	249
  6806  003320  6EB7               	movwf	183,c	;volatile
  6807                           
  6808                           ;mcc_generated_files/tmr0.c: 72:     TMR0L = 0x00;
  6809  003322  0E00               	movlw	0
  6810  003324  6EB6               	movwf	182,c	;volatile
  6811  003326                     
  6812                           ;mcc_generated_files/tmr0.c: 75:     PIR3bits.TMR0IF = 0;
  6813  003326  0139               	movlb	57	; () banked
  6814  003328  9FA3               	bcf	163,7,b	;volatile
  6815  00332A                     
  6816                           ; BSR set to: 57
  6817                           ;mcc_generated_files/tmr0.c: 78:     PIE3bits.TMR0IE = 1;
  6818  00332A  8F93               	bsf	147,7,b	;volatile
  6819  00332C                     
  6820                           ; BSR set to: 57
  6821                           ;mcc_generated_files/tmr0.c: 81:     TMR0_SetInterruptHandler(TMR0_DefaultInterruptHandl
      +                          er);
  6822  00332C  0E9A               	movlw	low _TMR0_DefaultInterruptHandler
  6823  00332E  0100               	movlb	0	; () banked
  6824  003330  6F60               	movwf	TMR0_SetInterruptHandler@InterruptHandler& (0+255),b
  6825  003332  0E35               	movlw	high _TMR0_DefaultInterruptHandler
  6826  003334  6F61               	movwf	(TMR0_SetInterruptHandler@InterruptHandler+1)& (0+255),b
  6827  003336  ECC3  F01A         	call	_TMR0_SetInterruptHandler	;wreg free
  6828  00333A                     
  6829                           ;mcc_generated_files/tmr0.c: 84:     T0CON0 = 0x89;
  6830  00333A  0E89               	movlw	137
  6831  00333C  6EB8               	movwf	184,c	;volatile
  6832  00333E  0012               	return		;funcret
  6833  003340                     __end_of_TMR0_Initialize:
  6834                           	callstack 0
  6835                           
  6836 ;; *************** function _TMR0_SetInterruptHandler *****************
  6837 ;; Defined at:
  6838 ;;		line 134 in file "mcc_generated_files/tmr0.c"
  6839 ;; Parameters:    Size  Location     Type
  6840 ;;  InterruptHan    2    0[BANK0 ] PTR FTN()void 
  6841 ;;		 -> XF_decrementAndQueueTimers(1), TMR0_DefaultInterruptHandler(1), 
  6842 ;; Auto vars:     Size  Location     Type
  6843 ;;		None
  6844 ;; Return value:  Size  Location     Type
  6845 ;;                  1    wreg      void 
  6846 ;; Registers used:
  6847 ;;		wreg, status,2, status,0
  6848 ;; Tracked objects:
  6849 ;;		On entry : 0/0
  6850 ;;		On exit  : 0/0
  6851 ;;		Unchanged: 0/0
  6852 ;; Data sizes:     COMRAM   BANK0   BANK1   BANK2   BANK3   BANK4   BANK5   BANK6   BANK7   BANK8   BANK9  BANK10  BANK1
      +1  BANK12  BANK13  BANK14  BANK15
  6853 ;;      Params:         0       2       0       0       0       0       0       0       0       0       0       0       
      +0       0       0       0       0
  6854 ;;      Locals:         0       0       0       0       0       0       0       0       0       0       0       0       
      +0       0       0       0       0
  6855 ;;      Temps:          0       0       0       0       0       0       0       0       0       0       0       0       
      +0       0       0       0       0
  6856 ;;      Totals:         0       2       0       0       0       0       0       0       0       0       0       0       
      +0       0       0       0       0
  6857 ;;Total ram usage:        2 bytes
  6858 ;; Hardware stack levels used: 1
  6859 ;; Hardware stack levels required when called: 6
  6860 ;; This function calls:
  6861 ;;		Nothing
  6862 ;; This function is called by:
  6863 ;;		_TMR0_Initialize
  6864 ;;		_main
  6865 ;; This function uses a non-reentrant model
  6866 ;;
  6867                           
  6868                           	psect	text32
  6869  003586                     __ptext32:
  6870                           	callstack 0
  6871  003586                     _TMR0_SetInterruptHandler:
  6872                           	callstack 24
  6873  003586                     
  6874                           ;mcc_generated_files/tmr0.c: 135:     TMR0_InterruptHandler = InterruptHandler;
  6875  003586  C060  F031         	movff	TMR0_SetInterruptHandler@InterruptHandler,_TMR0_InterruptHandler
  6876  00358A  C061  F032         	movff	TMR0_SetInterruptHandler@InterruptHandler+1,_TMR0_InterruptHandler+1
  6877  00358E  0012               	return		;funcret
  6878  003590                     __end_of_TMR0_SetInterruptHandler:
  6879                           	callstack 0
  6880                           
  6881 ;; *************** function _PMD_Initialize *****************
  6882 ;; Defined at:
  6883 ;;		line 75 in file "mcc_generated_files/mcc.c"
  6884 ;; Parameters:    Size  Location     Type
  6885 ;;		None
  6886 ;; Auto vars:     Size  Location     Type
  6887 ;;		None
  6888 ;; Return value:  Size  Location     Type
  6889 ;;                  1    wreg      void 
  6890 ;; Registers used:
  6891 ;;		wreg, status,2
  6892 ;; Tracked objects:
  6893 ;;		On entry : 0/0
  6894 ;;		On exit  : 0/0
  6895 ;;		Unchanged: 0/0
  6896 ;; Data sizes:     COMRAM   BANK0   BANK1   BANK2   BANK3   BANK4   BANK5   BANK6   BANK7   BANK8   BANK9  BANK10  BANK1
      +1  BANK12  BANK13  BANK14  BANK15
  6897 ;;      Params:         0       0       0       0       0       0       0       0       0       0       0       0       
      +0       0       0       0       0
  6898 ;;      Locals:         0       0       0       0       0       0       0       0       0       0       0       0       
      +0       0       0       0       0
  6899 ;;      Temps:          0       0       0       0       0       0       0       0       0       0       0       0       
      +0       0       0       0       0
  6900 ;;      Totals:         0       0       0       0       0       0       0       0       0       0       0       0       
      +0       0       0       0       0
  6901 ;;Total ram usage:        0 bytes
  6902 ;; Hardware stack levels used: 1
  6903 ;; Hardware stack levels required when called: 6
  6904 ;; This function calls:
  6905 ;;		Nothing
  6906 ;; This function is called by:
  6907 ;;		_SYSTEM_Initialize
  6908 ;; This function uses a non-reentrant model
  6909 ;;
  6910                           
  6911                           	psect	text33
  6912  003340                     __ptext33:
  6913                           	callstack 0
  6914  003340                     _PMD_Initialize:
  6915                           	callstack 23
  6916  003340                     
  6917                           ;mcc_generated_files/mcc.c: 78:     PMD0 = 0x00;
  6918  003340  0E00               	movlw	0
  6919  003342  0139               	movlb	57	; () banked
  6920  003344  6FC0               	movwf	192,b	;volatile
  6921                           
  6922                           ;mcc_generated_files/mcc.c: 80:     PMD1 = 0x00;
  6923  003346  0E00               	movlw	0
  6924  003348  6FC1               	movwf	193,b	;volatile
  6925                           
  6926                           ;mcc_generated_files/mcc.c: 82:     PMD2 = 0x00;
  6927  00334A  0E00               	movlw	0
  6928  00334C  6FC2               	movwf	194,b	;volatile
  6929                           
  6930                           ;mcc_generated_files/mcc.c: 84:     PMD3 = 0x00;
  6931  00334E  0E00               	movlw	0
  6932  003350  6FC3               	movwf	195,b	;volatile
  6933                           
  6934                           ;mcc_generated_files/mcc.c: 86:     PMD4 = 0x00;
  6935  003352  0E00               	movlw	0
  6936  003354  6FC4               	movwf	196,b	;volatile
  6937                           
  6938                           ;mcc_generated_files/mcc.c: 88:     PMD5 = 0x00;
  6939  003356  0E00               	movlw	0
  6940  003358  6FC5               	movwf	197,b	;volatile
  6941                           
  6942                           ;mcc_generated_files/mcc.c: 90:     PMD6 = 0x00;
  6943  00335A  0E00               	movlw	0
  6944  00335C  6FC6               	movwf	198,b	;volatile
  6945                           
  6946                           ;mcc_generated_files/mcc.c: 92:     PMD7 = 0x00;
  6947  00335E  0E00               	movlw	0
  6948  003360  6FC7               	movwf	199,b	;volatile
  6949  003362                     
  6950                           ; BSR set to: 57
  6951  003362  0012               	return		;funcret
  6952  003364                     __end_of_PMD_Initialize:
  6953                           	callstack 0
  6954                           
  6955 ;; *************** function _PIN_MANAGER_Initialize *****************
  6956 ;; Defined at:
  6957 ;;		line 55 in file "mcc_generated_files/pin_manager.c"
  6958 ;; Parameters:    Size  Location     Type
  6959 ;;		None
  6960 ;; Auto vars:     Size  Location     Type
  6961 ;;		None
  6962 ;; Return value:  Size  Location     Type
  6963 ;;                  1    wreg      void 
  6964 ;; Registers used:
  6965 ;;		wreg, status,2
  6966 ;; Tracked objects:
  6967 ;;		On entry : 0/0
  6968 ;;		On exit  : 0/0
  6969 ;;		Unchanged: 0/0
  6970 ;; Data sizes:     COMRAM   BANK0   BANK1   BANK2   BANK3   BANK4   BANK5   BANK6   BANK7   BANK8   BANK9  BANK10  BANK1
      +1  BANK12  BANK13  BANK14  BANK15
  6971 ;;      Params:         0       0       0       0       0       0       0       0       0       0       0       0       
      +0       0       0       0       0
  6972 ;;      Locals:         0       0       0       0       0       0       0       0       0       0       0       0       
      +0       0       0       0       0
  6973 ;;      Temps:          0       0       0       0       0       0       0       0       0       0       0       0       
      +0       0       0       0       0
  6974 ;;      Totals:         0       0       0       0       0       0       0       0       0       0       0       0       
      +0       0       0       0       0
  6975 ;;Total ram usage:        0 bytes
  6976 ;; Hardware stack levels used: 1
  6977 ;; Hardware stack levels required when called: 6
  6978 ;; This function calls:
  6979 ;;		Nothing
  6980 ;; This function is called by:
  6981 ;;		_SYSTEM_Initialize
  6982 ;; This function uses a non-reentrant model
  6983 ;;
  6984                           
  6985                           	psect	text34
  6986  002F22                     __ptext34:
  6987                           	callstack 0
  6988  002F22                     _PIN_MANAGER_Initialize:
  6989                           	callstack 23
  6990  002F22                     
  6991                           ;mcc_generated_files/pin_manager.c: 60:     LATA = 0x00;
  6992  002F22  0E00               	movlw	0
  6993  002F24  6EBA               	movwf	186,c	;volatile
  6994                           
  6995                           ;mcc_generated_files/pin_manager.c: 61:     LATB = 0x00;
  6996  002F26  0E00               	movlw	0
  6997  002F28  6EBB               	movwf	187,c	;volatile
  6998                           
  6999                           ;mcc_generated_files/pin_manager.c: 62:     LATC = 0x00;
  7000  002F2A  0E00               	movlw	0
  7001  002F2C  6EBC               	movwf	188,c	;volatile
  7002  002F2E                     
  7003                           ;mcc_generated_files/pin_manager.c: 67:     TRISA = 0xFF;
  7004  002F2E  68C2               	setf	194,c	;volatile
  7005                           
  7006                           ;mcc_generated_files/pin_manager.c: 68:     TRISB = 0xF8;
  7007  002F30  0EF8               	movlw	248
  7008  002F32  6EC3               	movwf	195,c	;volatile
  7009                           
  7010                           ;mcc_generated_files/pin_manager.c: 69:     TRISC = 0xDF;
  7011  002F34  0EDF               	movlw	223
  7012  002F36  6EC4               	movwf	196,c	;volatile
  7013                           
  7014                           ;mcc_generated_files/pin_manager.c: 74:     ANSELC = 0xA7;
  7015  002F38  0EA7               	movlw	167
  7016  002F3A  013A               	movlb	58	; () banked
  7017  002F3C  6F60               	movwf	96,b	;volatile
  7018                           
  7019                           ;mcc_generated_files/pin_manager.c: 75:     ANSELB = 0xF4;
  7020  002F3E  0EF4               	movlw	244
  7021  002F40  6F50               	movwf	80,b	;volatile
  7022  002F42                     
  7023                           ; BSR set to: 58
  7024                           ;mcc_generated_files/pin_manager.c: 76:     ANSELA = 0xFF;
  7025  002F42  6940               	setf	64,b	;volatile
  7026                           
  7027                           ;mcc_generated_files/pin_manager.c: 81:     WPUE = 0x00;
  7028  002F44  0E00               	movlw	0
  7029  002F46  6F81               	movwf	129,b	;volatile
  7030                           
  7031                           ;mcc_generated_files/pin_manager.c: 82:     WPUB = 0x00;
  7032  002F48  0E00               	movlw	0
  7033  002F4A  6F51               	movwf	81,b	;volatile
  7034                           
  7035                           ;mcc_generated_files/pin_manager.c: 83:     WPUA = 0x80;
  7036  002F4C  0E80               	movlw	128
  7037  002F4E  6F41               	movwf	65,b	;volatile
  7038                           
  7039                           ;mcc_generated_files/pin_manager.c: 84:     WPUC = 0x00;
  7040  002F50  0E00               	movlw	0
  7041  002F52  6F61               	movwf	97,b	;volatile
  7042                           
  7043                           ;mcc_generated_files/pin_manager.c: 89:     ODCONA = 0x00;
  7044  002F54  0E00               	movlw	0
  7045  002F56  6F42               	movwf	66,b	;volatile
  7046                           
  7047                           ;mcc_generated_files/pin_manager.c: 90:     ODCONB = 0x00;
  7048  002F58  0E00               	movlw	0
  7049  002F5A  6F52               	movwf	82,b	;volatile
  7050                           
  7051                           ;mcc_generated_files/pin_manager.c: 91:     ODCONC = 0x00;
  7052  002F5C  0E00               	movlw	0
  7053  002F5E  6F62               	movwf	98,b	;volatile
  7054  002F60                     
  7055                           ; BSR set to: 58
  7056                           ;mcc_generated_files/pin_manager.c: 96:     SLRCONA = 0xFF;
  7057  002F60  6943               	setf	67,b	;volatile
  7058  002F62                     
  7059                           ; BSR set to: 58
  7060                           ;mcc_generated_files/pin_manager.c: 97:     SLRCONB = 0xFF;
  7061  002F62  6953               	setf	83,b	;volatile
  7062  002F64                     
  7063                           ; BSR set to: 58
  7064                           ;mcc_generated_files/pin_manager.c: 98:     SLRCONC = 0xFF;
  7065  002F64  6963               	setf	99,b	;volatile
  7066  002F66                     
  7067                           ; BSR set to: 58
  7068                           ;mcc_generated_files/pin_manager.c: 103:     INLVLA = 0xFF;
  7069  002F66  6944               	setf	68,b	;volatile
  7070  002F68                     
  7071                           ; BSR set to: 58
  7072                           ;mcc_generated_files/pin_manager.c: 104:     INLVLB = 0xFF;
  7073  002F68  6954               	setf	84,b	;volatile
  7074  002F6A                     
  7075                           ; BSR set to: 58
  7076                           ;mcc_generated_files/pin_manager.c: 105:     INLVLC = 0xFF;
  7077  002F6A  6964               	setf	100,b	;volatile
  7078                           
  7079                           ;mcc_generated_files/pin_manager.c: 106:     INLVLE = 0x08;
  7080  002F6C  0E08               	movlw	8
  7081  002F6E  6F84               	movwf	132,b	;volatile
  7082                           
  7083                           ;mcc_generated_files/pin_manager.c: 115:     RB2PPS = 0x33;
  7084  002F70  0E33               	movlw	51
  7085  002F72  6F0A               	movwf	10,b	;volatile
  7086                           
  7087                           ;mcc_generated_files/pin_manager.c: 116:     CANRXPPS = 0x0B;
  7088  002F74  0E0B               	movlw	11
  7089  002F76  6FED               	movwf	237,b	;volatile
  7090                           
  7091                           ;mcc_generated_files/pin_manager.c: 117:     RC5PPS = 0x13;
  7092  002F78  0E13               	movlw	19
  7093  002F7A  6F15               	movwf	21,b	;volatile
  7094                           
  7095                           ;mcc_generated_files/pin_manager.c: 118:     U1RXPPS = 0x16;
  7096  002F7C  0E16               	movlw	22
  7097  002F7E  6FE7               	movwf	231,b	;volatile
  7098  002F80                     
  7099                           ; BSR set to: 58
  7100  002F80  0012               	return		;funcret
  7101  002F82                     __end_of_PIN_MANAGER_Initialize:
  7102                           	callstack 0
  7103                           
  7104 ;; *************** function _OSCILLATOR_Initialize *****************
  7105 ;; Defined at:
  7106 ;;		line 61 in file "mcc_generated_files/mcc.c"
  7107 ;; Parameters:    Size  Location     Type
  7108 ;;		None
  7109 ;; Auto vars:     Size  Location     Type
  7110 ;;		None
  7111 ;; Return value:  Size  Location     Type
  7112 ;;                  1    wreg      void 
  7113 ;; Registers used:
  7114 ;;		wreg, status,2
  7115 ;; Tracked objects:
  7116 ;;		On entry : 0/0
  7117 ;;		On exit  : 0/0
  7118 ;;		Unchanged: 0/0
  7119 ;; Data sizes:     COMRAM   BANK0   BANK1   BANK2   BANK3   BANK4   BANK5   BANK6   BANK7   BANK8   BANK9  BANK10  BANK1
      +1  BANK12  BANK13  BANK14  BANK15
  7120 ;;      Params:         0       0       0       0       0       0       0       0       0       0       0       0       
      +0       0       0       0       0
  7121 ;;      Locals:         0       0       0       0       0       0       0       0       0       0       0       0       
      +0       0       0       0       0
  7122 ;;      Temps:          0       0       0       0       0       0       0       0       0       0       0       0       
      +0       0       0       0       0
  7123 ;;      Totals:         0       0       0       0       0       0       0       0       0       0       0       0       
      +0       0       0       0       0
  7124 ;;Total ram usage:        0 bytes
  7125 ;; Hardware stack levels used: 1
  7126 ;; Hardware stack levels required when called: 6
  7127 ;; This function calls:
  7128 ;;		Nothing
  7129 ;; This function is called by:
  7130 ;;		_SYSTEM_Initialize
  7131 ;; This function uses a non-reentrant model
  7132 ;;
  7133                           
  7134                           	psect	text35
  7135  00347A                     __ptext35:
  7136                           	callstack 0
  7137  00347A                     _OSCILLATOR_Initialize:
  7138                           	callstack 23
  7139  00347A                     
  7140                           ;mcc_generated_files/mcc.c: 64:     OSCCON1 = 0x60;
  7141  00347A  0E60               	movlw	96
  7142  00347C  0139               	movlb	57	; () banked
  7143  00347E  6FD9               	movwf	217,b	;volatile
  7144                           
  7145                           ;mcc_generated_files/mcc.c: 66:     OSCCON3 = 0x00;
  7146  003480  0E00               	movlw	0
  7147  003482  6FDB               	movwf	219,b	;volatile
  7148                           
  7149                           ;mcc_generated_files/mcc.c: 68:     OSCEN = 0x00;
  7150  003484  0E00               	movlw	0
  7151  003486  6FDD               	movwf	221,b	;volatile
  7152                           
  7153                           ;mcc_generated_files/mcc.c: 70:     OSCFRQ = 0x08;
  7154  003488  0E08               	movlw	8
  7155  00348A  6FDF               	movwf	223,b	;volatile
  7156                           
  7157                           ;mcc_generated_files/mcc.c: 72:     OSCTUNE = 0x00;
  7158  00348C  0E00               	movlw	0
  7159  00348E  6FDE               	movwf	222,b	;volatile
  7160  003490                     
  7161                           ; BSR set to: 57
  7162  003490  0012               	return		;funcret
  7163  003492                     __end_of_OSCILLATOR_Initialize:
  7164                           	callstack 0
  7165                           
  7166 ;; *************** function _INTERRUPT_Initialize *****************
  7167 ;; Defined at:
  7168 ;;		line 52 in file "mcc_generated_files/interrupt_manager.c"
  7169 ;; Parameters:    Size  Location     Type
  7170 ;;		None
  7171 ;; Auto vars:     Size  Location     Type
  7172 ;;		None
  7173 ;; Return value:  Size  Location     Type
  7174 ;;                  1    wreg      void 
  7175 ;; Registers used:
  7176 ;;		None
  7177 ;; Tracked objects:
  7178 ;;		On entry : 0/0
  7179 ;;		On exit  : 0/0
  7180 ;;		Unchanged: 0/0
  7181 ;; Data sizes:     COMRAM   BANK0   BANK1   BANK2   BANK3   BANK4   BANK5   BANK6   BANK7   BANK8   BANK9  BANK10  BANK1
      +1  BANK12  BANK13  BANK14  BANK15
  7182 ;;      Params:         0       0       0       0       0       0       0       0       0       0       0       0       
      +0       0       0       0       0
  7183 ;;      Locals:         0       0       0       0       0       0       0       0       0       0       0       0       
      +0       0       0       0       0
  7184 ;;      Temps:          0       0       0       0       0       0       0       0       0       0       0       0       
      +0       0       0       0       0
  7185 ;;      Totals:         0       0       0       0       0       0       0       0       0       0       0       0       
      +0       0       0       0       0
  7186 ;;Total ram usage:        0 bytes
  7187 ;; Hardware stack levels used: 1
  7188 ;; Hardware stack levels required when called: 6
  7189 ;; This function calls:
  7190 ;;		Nothing
  7191 ;; This function is called by:
  7192 ;;		_SYSTEM_Initialize
  7193 ;; This function uses a non-reentrant model
  7194 ;;
  7195                           
  7196                           	psect	text36
  7197  003590                     __ptext36:
  7198                           	callstack 0
  7199  003590                     _INTERRUPT_Initialize:
  7200                           	callstack 23
  7201  003590                     
  7202                           ;mcc_generated_files/interrupt_manager.c: 55:     INTCON0bits.IPEN = 0;
  7203  003590  9AD2               	bcf	210,5,c	;volatile
  7204  003592  0012               	return		;funcret
  7205  003594                     __end_of_INTERRUPT_Initialize:
  7206                           	callstack 0
  7207                           
  7208 ;; *************** function _ECAN_Initialize *****************
  7209 ;; Defined at:
  7210 ;;		line 62 in file "mcc_generated_files/ecan.c"
  7211 ;; Parameters:    Size  Location     Type
  7212 ;;		None
  7213 ;; Auto vars:     Size  Location     Type
  7214 ;;		None
  7215 ;; Return value:  Size  Location     Type
  7216 ;;                  1    wreg      void 
  7217 ;; Registers used:
  7218 ;;		wreg, fsr2l, fsr2h, status,2, status,0, cstack
  7219 ;; Tracked objects:
  7220 ;;		On entry : 0/0
  7221 ;;		On exit  : 0/0
  7222 ;;		Unchanged: 0/0
  7223 ;; Data sizes:     COMRAM   BANK0   BANK1   BANK2   BANK3   BANK4   BANK5   BANK6   BANK7   BANK8   BANK9  BANK10  BANK1
      +1  BANK12  BANK13  BANK14  BANK15
  7224 ;;      Params:         0       0       0       0       0       0       0       0       0       0       0       0       
      +0       0       0       0       0
  7225 ;;      Locals:         0       0       0       0       0       0       0       0       0       0       0       0       
      +0       0       0       0       0
  7226 ;;      Temps:          0       1       0       0       0       0       0       0       0       0       0       0       
      +0       0       0       0       0
  7227 ;;      Totals:         0       1       0       0       0       0       0       0       0       0       0       0       
      +0       0       0       0       0
  7228 ;;Total ram usage:        1 bytes
  7229 ;; Hardware stack levels used: 1
  7230 ;; Hardware stack levels required when called: 7
  7231 ;; This function calls:
  7232 ;;		_convertCANid2Reg
  7233 ;; This function is called by:
  7234 ;;		_SYSTEM_Initialize
  7235 ;; This function uses a non-reentrant model
  7236 ;;
  7237                           
  7238                           	psect	text37
  7239  001526                     __ptext37:
  7240                           	callstack 0
  7241  001526                     _ECAN_Initialize:
  7242                           	callstack 22
  7243  001526                     
  7244                           ;mcc_generated_files/ecan.c: 64:     CANCON = 0x80;
  7245  001526  0E80               	movlw	128
  7246  001528  6E8F               	movwf	143,c	;volatile
  7247  00152A                     l5145:
  7248  00152A  508E               	movf	142,w,c	;volatile
  7249  00152C  0BE0               	andlw	224
  7250  00152E  0A80               	xorlw	128
  7251  001530  A4D8               	btfss	status,2,c
  7252  001532  EF9D  F00A         	goto	u2581
  7253  001536  EF9F  F00A         	goto	u2580
  7254  00153A                     u2581:
  7255  00153A  EF95  F00A         	goto	l5145
  7256  00153E                     u2580:
  7257  00153E                     
  7258                           ;mcc_generated_files/ecan.c: 70:     ECANCON = 0x00;
  7259  00153E  0E00               	movlw	0
  7260  001540  6E91               	movwf	145,c	;volatile
  7261                           
  7262                           ;mcc_generated_files/ecan.c: 75:     CIOCON = 0x00;
  7263  001542  0E00               	movlw	0
  7264  001544  0137               	movlb	55	; () banked
  7265  001546  6F00               	movwf	0,b	;volatile
  7266  001548                     
  7267                           ; BSR set to: 55
  7268                           ;mcc_generated_files/ecan.c: 85:     convertCANid2Reg(0x0F0, 1, &RXM0EIDH, &RXM0EIDL, &R
      +                          XM0SIDH, &RXM0SIDL);
  7269  001548  0EF0               	movlw	240
  7270  00154A  0100               	movlb	0	; () banked
  7271  00154C  6F60               	movwf	convertCANid2Reg@tempPassedInID& (0+255),b
  7272  00154E  0E00               	movlw	0
  7273  001550  6F61               	movwf	(convertCANid2Reg@tempPassedInID+1)& (0+255),b
  7274  001552  0E00               	movlw	0
  7275  001554  6F62               	movwf	(convertCANid2Reg@tempPassedInID+2)& (0+255),b
  7276  001556  0E00               	movlw	0
  7277  001558  6F63               	movwf	(convertCANid2Reg@tempPassedInID+3)& (0+255),b
  7278  00155A  0E01               	movlw	1
  7279  00155C  6F64               	movwf	convertCANid2Reg@canIdType& (0+255),b
  7280  00155E  0EBA               	movlw	186
  7281  001560  6F65               	movwf	convertCANid2Reg@passedInEIDH& (0+255),b
  7282  001562  0E37               	movlw	55
  7283  001564  6F66               	movwf	(convertCANid2Reg@passedInEIDH+1)& (0+255),b
  7284  001566  0EBB               	movlw	187
  7285  001568  6F67               	movwf	convertCANid2Reg@passedInEIDL& (0+255),b
  7286  00156A  0E37               	movlw	55
  7287  00156C  6F68               	movwf	(convertCANid2Reg@passedInEIDL+1)& (0+255),b
  7288  00156E  0EB8               	movlw	184
  7289  001570  6F69               	movwf	convertCANid2Reg@passedInSIDH& (0+255),b
  7290  001572  0E37               	movlw	55
  7291  001574  6F6A               	movwf	(convertCANid2Reg@passedInSIDH+1)& (0+255),b
  7292  001576  0EB9               	movlw	185
  7293  001578  6F6B               	movwf	convertCANid2Reg@passedInSIDL& (0+255),b
  7294  00157A  0E37               	movlw	55
  7295  00157C  6F6C               	movwf	(convertCANid2Reg@passedInSIDL+1)& (0+255),b
  7296  00157E  EC9B  F00C         	call	_convertCANid2Reg	;wreg free
  7297  001582                     
  7298                           ;mcc_generated_files/ecan.c: 87:     convertCANid2Reg(0x000, 1, &RXF0EIDH, &RXF0EIDL, &R
      +                          XF0SIDH, &RXF0SIDL);
  7299  001582  0E00               	movlw	0
  7300  001584  0100               	movlb	0	; () banked
  7301  001586  6F60               	movwf	convertCANid2Reg@tempPassedInID& (0+255),b
  7302  001588  0E00               	movlw	0
  7303  00158A  6F61               	movwf	(convertCANid2Reg@tempPassedInID+1)& (0+255),b
  7304  00158C  0E00               	movlw	0
  7305  00158E  6F62               	movwf	(convertCANid2Reg@tempPassedInID+2)& (0+255),b
  7306  001590  0E00               	movlw	0
  7307  001592  6F63               	movwf	(convertCANid2Reg@tempPassedInID+3)& (0+255),b
  7308  001594  0E01               	movlw	1
  7309  001596  6F64               	movwf	convertCANid2Reg@canIdType& (0+255),b
  7310  001598  0EA2               	movlw	162
  7311  00159A  6F65               	movwf	convertCANid2Reg@passedInEIDH& (0+255),b
  7312  00159C  0E37               	movlw	55
  7313  00159E  6F66               	movwf	(convertCANid2Reg@passedInEIDH+1)& (0+255),b
  7314  0015A0  0EA3               	movlw	163
  7315  0015A2  6F67               	movwf	convertCANid2Reg@passedInEIDL& (0+255),b
  7316  0015A4  0E37               	movlw	55
  7317  0015A6  6F68               	movwf	(convertCANid2Reg@passedInEIDL+1)& (0+255),b
  7318  0015A8  0EA0               	movlw	160
  7319  0015AA  6F69               	movwf	convertCANid2Reg@passedInSIDH& (0+255),b
  7320  0015AC  0E37               	movlw	55
  7321  0015AE  6F6A               	movwf	(convertCANid2Reg@passedInSIDH+1)& (0+255),b
  7322  0015B0  0EA1               	movlw	161
  7323  0015B2  6F6B               	movwf	convertCANid2Reg@passedInSIDL& (0+255),b
  7324  0015B4  0E37               	movlw	55
  7325  0015B6  6F6C               	movwf	(convertCANid2Reg@passedInSIDL+1)& (0+255),b
  7326  0015B8  EC9B  F00C         	call	_convertCANid2Reg	;wreg free
  7327  0015BC                     
  7328                           ;mcc_generated_files/ecan.c: 88:     convertCANid2Reg(0x5 << 4, 1, &RXF1EIDH, &RXF1EIDL,
      +                           &RXF1SIDH, &RXF1SIDL);
  7329  0015BC  0E50               	movlw	80
  7330  0015BE  0100               	movlb	0	; () banked
  7331  0015C0  6F60               	movwf	convertCANid2Reg@tempPassedInID& (0+255),b
  7332  0015C2  0E00               	movlw	0
  7333  0015C4  6F61               	movwf	(convertCANid2Reg@tempPassedInID+1)& (0+255),b
  7334  0015C6  0E00               	movlw	0
  7335  0015C8  6F62               	movwf	(convertCANid2Reg@tempPassedInID+2)& (0+255),b
  7336  0015CA  0E00               	movlw	0
  7337  0015CC  6F63               	movwf	(convertCANid2Reg@tempPassedInID+3)& (0+255),b
  7338  0015CE  0E01               	movlw	1
  7339  0015D0  6F64               	movwf	convertCANid2Reg@canIdType& (0+255),b
  7340  0015D2  0EA6               	movlw	166
  7341  0015D4  6F65               	movwf	convertCANid2Reg@passedInEIDH& (0+255),b
  7342  0015D6  0E37               	movlw	55
  7343  0015D8  6F66               	movwf	(convertCANid2Reg@passedInEIDH+1)& (0+255),b
  7344  0015DA  0EA7               	movlw	167
  7345  0015DC  6F67               	movwf	convertCANid2Reg@passedInEIDL& (0+255),b
  7346  0015DE  0E37               	movlw	55
  7347  0015E0  6F68               	movwf	(convertCANid2Reg@passedInEIDL+1)& (0+255),b
  7348  0015E2  0EA4               	movlw	164
  7349  0015E4  6F69               	movwf	convertCANid2Reg@passedInSIDH& (0+255),b
  7350  0015E6  0E37               	movlw	55
  7351  0015E8  6F6A               	movwf	(convertCANid2Reg@passedInSIDH+1)& (0+255),b
  7352  0015EA  0EA5               	movlw	165
  7353  0015EC  6F6B               	movwf	convertCANid2Reg@passedInSIDL& (0+255),b
  7354  0015EE  0E37               	movlw	55
  7355  0015F0  6F6C               	movwf	(convertCANid2Reg@passedInSIDL+1)& (0+255),b
  7356  0015F2  EC9B  F00C         	call	_convertCANid2Reg	;wreg free
  7357  0015F6                     
  7358                           ;mcc_generated_files/ecan.c: 91:     convertCANid2Reg(0x0F0, 1, &RXM1EIDH, &RXM1EIDL, &R
      +                          XM1SIDH, &RXM1SIDL);
  7359  0015F6  0EF0               	movlw	240
  7360  0015F8  0100               	movlb	0	; () banked
  7361  0015FA  6F60               	movwf	convertCANid2Reg@tempPassedInID& (0+255),b
  7362  0015FC  0E00               	movlw	0
  7363  0015FE  6F61               	movwf	(convertCANid2Reg@tempPassedInID+1)& (0+255),b
  7364  001600  0E00               	movlw	0
  7365  001602  6F62               	movwf	(convertCANid2Reg@tempPassedInID+2)& (0+255),b
  7366  001604  0E00               	movlw	0
  7367  001606  6F63               	movwf	(convertCANid2Reg@tempPassedInID+3)& (0+255),b
  7368  001608  0E01               	movlw	1
  7369  00160A  6F64               	movwf	convertCANid2Reg@canIdType& (0+255),b
  7370  00160C  0EBE               	movlw	190
  7371  00160E  6F65               	movwf	convertCANid2Reg@passedInEIDH& (0+255),b
  7372  001610  0E37               	movlw	55
  7373  001612  6F66               	movwf	(convertCANid2Reg@passedInEIDH+1)& (0+255),b
  7374  001614  0EBF               	movlw	191
  7375  001616  6F67               	movwf	convertCANid2Reg@passedInEIDL& (0+255),b
  7376  001618  0E37               	movlw	55
  7377  00161A  6F68               	movwf	(convertCANid2Reg@passedInEIDL+1)& (0+255),b
  7378  00161C  0EBC               	movlw	188
  7379  00161E  6F69               	movwf	convertCANid2Reg@passedInSIDH& (0+255),b
  7380  001620  0E37               	movlw	55
  7381  001622  6F6A               	movwf	(convertCANid2Reg@passedInSIDH+1)& (0+255),b
  7382  001624  0EBD               	movlw	189
  7383  001626  6F6B               	movwf	convertCANid2Reg@passedInSIDL& (0+255),b
  7384  001628  0E37               	movlw	55
  7385  00162A  6F6C               	movwf	(convertCANid2Reg@passedInSIDL+1)& (0+255),b
  7386  00162C  EC9B  F00C         	call	_convertCANid2Reg	;wreg free
  7387  001630                     
  7388                           ;mcc_generated_files/ecan.c: 93:     convertCANid2Reg(0x5 << 4, 1, &RXF2EIDH, &RXF2EIDL,
      +                           &RXF2SIDH, &RXF2SIDL);
  7389  001630  0E50               	movlw	80
  7390  001632  0100               	movlb	0	; () banked
  7391  001634  6F60               	movwf	convertCANid2Reg@tempPassedInID& (0+255),b
  7392  001636  0E00               	movlw	0
  7393  001638  6F61               	movwf	(convertCANid2Reg@tempPassedInID+1)& (0+255),b
  7394  00163A  0E00               	movlw	0
  7395  00163C  6F62               	movwf	(convertCANid2Reg@tempPassedInID+2)& (0+255),b
  7396  00163E  0E00               	movlw	0
  7397  001640  6F63               	movwf	(convertCANid2Reg@tempPassedInID+3)& (0+255),b
  7398  001642  0E01               	movlw	1
  7399  001644  6F64               	movwf	convertCANid2Reg@canIdType& (0+255),b
  7400  001646  0EAA               	movlw	170
  7401  001648  6F65               	movwf	convertCANid2Reg@passedInEIDH& (0+255),b
  7402  00164A  0E37               	movlw	55
  7403  00164C  6F66               	movwf	(convertCANid2Reg@passedInEIDH+1)& (0+255),b
  7404  00164E  0EAB               	movlw	171
  7405  001650  6F67               	movwf	convertCANid2Reg@passedInEIDL& (0+255),b
  7406  001652  0E37               	movlw	55
  7407  001654  6F68               	movwf	(convertCANid2Reg@passedInEIDL+1)& (0+255),b
  7408  001656  0EA8               	movlw	168
  7409  001658  6F69               	movwf	convertCANid2Reg@passedInSIDH& (0+255),b
  7410  00165A  0E37               	movlw	55
  7411  00165C  6F6A               	movwf	(convertCANid2Reg@passedInSIDH+1)& (0+255),b
  7412  00165E  0EA9               	movlw	169
  7413  001660  6F6B               	movwf	convertCANid2Reg@passedInSIDL& (0+255),b
  7414  001662  0E37               	movlw	55
  7415  001664  6F6C               	movwf	(convertCANid2Reg@passedInSIDL+1)& (0+255),b
  7416  001666  EC9B  F00C         	call	_convertCANid2Reg	;wreg free
  7417  00166A                     
  7418                           ;mcc_generated_files/ecan.c: 94:     convertCANid2Reg(0x5 << 4, 1, &RXF3EIDH, &RXF3EIDL,
      +                           &RXF3SIDH, &RXF3SIDL);
  7419  00166A  0E50               	movlw	80
  7420  00166C  0100               	movlb	0	; () banked
  7421  00166E  6F60               	movwf	convertCANid2Reg@tempPassedInID& (0+255),b
  7422  001670  0E00               	movlw	0
  7423  001672  6F61               	movwf	(convertCANid2Reg@tempPassedInID+1)& (0+255),b
  7424  001674  0E00               	movlw	0
  7425  001676  6F62               	movwf	(convertCANid2Reg@tempPassedInID+2)& (0+255),b
  7426  001678  0E00               	movlw	0
  7427  00167A  6F63               	movwf	(convertCANid2Reg@tempPassedInID+3)& (0+255),b
  7428  00167C  0E01               	movlw	1
  7429  00167E  6F64               	movwf	convertCANid2Reg@canIdType& (0+255),b
  7430  001680  0EAE               	movlw	174
  7431  001682  6F65               	movwf	convertCANid2Reg@passedInEIDH& (0+255),b
  7432  001684  0E37               	movlw	55
  7433  001686  6F66               	movwf	(convertCANid2Reg@passedInEIDH+1)& (0+255),b
  7434  001688  0EAF               	movlw	175
  7435  00168A  6F67               	movwf	convertCANid2Reg@passedInEIDL& (0+255),b
  7436  00168C  0E37               	movlw	55
  7437  00168E  6F68               	movwf	(convertCANid2Reg@passedInEIDL+1)& (0+255),b
  7438  001690  0EAC               	movlw	172
  7439  001692  6F69               	movwf	convertCANid2Reg@passedInSIDH& (0+255),b
  7440  001694  0E37               	movlw	55
  7441  001696  6F6A               	movwf	(convertCANid2Reg@passedInSIDH+1)& (0+255),b
  7442  001698  0EAD               	movlw	173
  7443  00169A  6F6B               	movwf	convertCANid2Reg@passedInSIDL& (0+255),b
  7444  00169C  0E37               	movlw	55
  7445  00169E  6F6C               	movwf	(convertCANid2Reg@passedInSIDL+1)& (0+255),b
  7446  0016A0  EC9B  F00C         	call	_convertCANid2Reg	;wreg free
  7447  0016A4                     
  7448                           ;mcc_generated_files/ecan.c: 95:     convertCANid2Reg(0x5 << 4, 1, &RXF4EIDH, &RXF4EIDL,
      +                           &RXF4SIDH, &RXF4SIDL);
  7449  0016A4  0E50               	movlw	80
  7450  0016A6  0100               	movlb	0	; () banked
  7451  0016A8  6F60               	movwf	convertCANid2Reg@tempPassedInID& (0+255),b
  7452  0016AA  0E00               	movlw	0
  7453  0016AC  6F61               	movwf	(convertCANid2Reg@tempPassedInID+1)& (0+255),b
  7454  0016AE  0E00               	movlw	0
  7455  0016B0  6F62               	movwf	(convertCANid2Reg@tempPassedInID+2)& (0+255),b
  7456  0016B2  0E00               	movlw	0
  7457  0016B4  6F63               	movwf	(convertCANid2Reg@tempPassedInID+3)& (0+255),b
  7458  0016B6  0E01               	movlw	1
  7459  0016B8  6F64               	movwf	convertCANid2Reg@canIdType& (0+255),b
  7460  0016BA  0EB2               	movlw	178
  7461  0016BC  6F65               	movwf	convertCANid2Reg@passedInEIDH& (0+255),b
  7462  0016BE  0E37               	movlw	55
  7463  0016C0  6F66               	movwf	(convertCANid2Reg@passedInEIDH+1)& (0+255),b
  7464  0016C2  0EB3               	movlw	179
  7465  0016C4  6F67               	movwf	convertCANid2Reg@passedInEIDL& (0+255),b
  7466  0016C6  0E37               	movlw	55
  7467  0016C8  6F68               	movwf	(convertCANid2Reg@passedInEIDL+1)& (0+255),b
  7468  0016CA  0EB0               	movlw	176
  7469  0016CC  6F69               	movwf	convertCANid2Reg@passedInSIDH& (0+255),b
  7470  0016CE  0E37               	movlw	55
  7471  0016D0  6F6A               	movwf	(convertCANid2Reg@passedInSIDH+1)& (0+255),b
  7472  0016D2  0EB1               	movlw	177
  7473  0016D4  6F6B               	movwf	convertCANid2Reg@passedInSIDL& (0+255),b
  7474  0016D6  0E37               	movlw	55
  7475  0016D8  6F6C               	movwf	(convertCANid2Reg@passedInSIDL+1)& (0+255),b
  7476  0016DA  EC9B  F00C         	call	_convertCANid2Reg	;wreg free
  7477  0016DE                     
  7478                           ;mcc_generated_files/ecan.c: 96:     convertCANid2Reg(0x5 << 4, 1, &RXF5EIDH, &RXF5EIDL,
      +                           &RXF5SIDH, &RXF5SIDL);
  7479  0016DE  0E50               	movlw	80
  7480  0016E0  0100               	movlb	0	; () banked
  7481  0016E2  6F60               	movwf	convertCANid2Reg@tempPassedInID& (0+255),b
  7482  0016E4  0E00               	movlw	0
  7483  0016E6  6F61               	movwf	(convertCANid2Reg@tempPassedInID+1)& (0+255),b
  7484  0016E8  0E00               	movlw	0
  7485  0016EA  6F62               	movwf	(convertCANid2Reg@tempPassedInID+2)& (0+255),b
  7486  0016EC  0E00               	movlw	0
  7487  0016EE  6F63               	movwf	(convertCANid2Reg@tempPassedInID+3)& (0+255),b
  7488  0016F0  0E01               	movlw	1
  7489  0016F2  6F64               	movwf	convertCANid2Reg@canIdType& (0+255),b
  7490  0016F4  0EB6               	movlw	182
  7491  0016F6  6F65               	movwf	convertCANid2Reg@passedInEIDH& (0+255),b
  7492  0016F8  0E37               	movlw	55
  7493  0016FA  6F66               	movwf	(convertCANid2Reg@passedInEIDH+1)& (0+255),b
  7494  0016FC  0EB7               	movlw	183
  7495  0016FE  6F67               	movwf	convertCANid2Reg@passedInEIDL& (0+255),b
  7496  001700  0E37               	movlw	55
  7497  001702  6F68               	movwf	(convertCANid2Reg@passedInEIDL+1)& (0+255),b
  7498  001704  0EB4               	movlw	180
  7499  001706  6F69               	movwf	convertCANid2Reg@passedInSIDH& (0+255),b
  7500  001708  0E37               	movlw	55
  7501  00170A  6F6A               	movwf	(convertCANid2Reg@passedInSIDH+1)& (0+255),b
  7502  00170C  0EB5               	movlw	181
  7503  00170E  6F6B               	movwf	convertCANid2Reg@passedInSIDL& (0+255),b
  7504  001710  0E37               	movlw	55
  7505  001712  6F6C               	movwf	(convertCANid2Reg@passedInSIDL+1)& (0+255),b
  7506  001714  EC9B  F00C         	call	_convertCANid2Reg	;wreg free
  7507                           
  7508                           ;mcc_generated_files/ecan.c: 112:     BRGCON1 = 0x0F;
  7509  001718  0E0F               	movlw	15
  7510  00171A  0137               	movlb	55	; () banked
  7511  00171C  6F03               	movwf	3,b	;volatile
  7512                           
  7513                           ;mcc_generated_files/ecan.c: 113:     BRGCON2 = 0x98;
  7514  00171E  0E98               	movlw	152
  7515  001720  6F04               	movwf	4,b	;volatile
  7516                           
  7517                           ;mcc_generated_files/ecan.c: 114:     BRGCON3 = 0x81;
  7518  001722  0E81               	movlw	129
  7519  001724  6F05               	movwf	5,b	;volatile
  7520                           
  7521                           ;mcc_generated_files/ecan.c: 116:     CANCON = 0x00;
  7522  001726  0E00               	movlw	0
  7523  001728  6E8F               	movwf	143,c	;volatile
  7524  00172A                     l5165:
  7525  00172A  006F FE38  F072    	movff	16270,??_ECAN_Initialize	;volatile
  7526  001730  0EE0               	movlw	224
  7527  001732  0100               	movlb	0	; () banked
  7528  001734  1772               	andwf	??_ECAN_Initialize& (0+255),f,b
  7529  001736  A4D8               	btfss	status,2,c
  7530  001738  EFA0  F00B         	goto	u2591
  7531  00173C  EFA2  F00B         	goto	u2590
  7532  001740                     u2591:
  7533  001740  EF95  F00B         	goto	l5165
  7534  001744                     u2590:
  7535  001744                     
  7536                           ; BSR set to: 0
  7537  001744  0012               	return		;funcret
  7538  001746                     __end_of_ECAN_Initialize:
  7539                           	callstack 0
  7540                           
  7541 ;; *************** function _convertCANid2Reg *****************
  7542 ;; Defined at:
  7543 ;;		line 371 in file "mcc_generated_files/ecan.c"
  7544 ;; Parameters:    Size  Location     Type
  7545 ;;  tempPassedIn    4    0[BANK0 ] unsigned long 
  7546 ;;  canIdType       1    4[BANK0 ] unsigned char 
  7547 ;;  passedInEIDH    2    5[BANK0 ] PTR volatile unsigned ch
  7548 ;;		 -> CAN_transmit@tempEIDH(1), RXF5EIDH(1), RXF4EIDH(1), RXF3EIDH(1), 
  7549 ;;		 -> RXF2EIDH(1), RXM1EIDH(1), RXF1EIDH(1), RXF0EIDH(1), 
  7550 ;;		 -> RXM0EIDH(1), 
  7551 ;;  passedInEIDL    2    7[BANK0 ] PTR volatile unsigned ch
  7552 ;;		 -> CAN_transmit@tempEIDL(1), RXF5EIDL(1), RXF4EIDL(1), RXF3EIDL(1), 
  7553 ;;		 -> RXF2EIDL(1), RXM1EIDL(1), RXF1EIDL(1), RXF0EIDL(1), 
  7554 ;;		 -> RXM0EIDL(1), 
  7555 ;;  passedInSIDH    2    9[BANK0 ] PTR volatile unsigned ch
  7556 ;;		 -> CAN_transmit@tempSIDH(1), RXF5SIDH(1), RXF4SIDH(1), RXF3SIDH(1), 
  7557 ;;		 -> RXF2SIDH(1), RXM1SIDH(1), RXF1SIDH(1), RXF0SIDH(1), 
  7558 ;;		 -> RXM0SIDH(1), 
  7559 ;;  passedInSIDL    2   11[BANK0 ] PTR volatile unsigned ch
  7560 ;;		 -> CAN_transmit@tempSIDL(1), RXF5SIDL(1), RXF4SIDL(1), RXF3SIDL(1), 
  7561 ;;		 -> RXF2SIDL(1), RXM1SIDL(1), RXF1SIDL(1), RXF0SIDL(1), 
  7562 ;;		 -> RXM0SIDL(1), 
  7563 ;; Auto vars:     Size  Location     Type
  7564 ;;  wipSIDL         1   17[BANK0 ] unsigned char 
  7565 ;; Return value:  Size  Location     Type
  7566 ;;                  1    wreg      void 
  7567 ;; Registers used:
  7568 ;;		wreg, fsr2l, fsr2h, status,2, status,0
  7569 ;; Tracked objects:
  7570 ;;		On entry : 0/0
  7571 ;;		On exit  : 0/0
  7572 ;;		Unchanged: 0/0
  7573 ;; Data sizes:     COMRAM   BANK0   BANK1   BANK2   BANK3   BANK4   BANK5   BANK6   BANK7   BANK8   BANK9  BANK10  BANK1
      +1  BANK12  BANK13  BANK14  BANK15
  7574 ;;      Params:         0      13       0       0       0       0       0       0       0       0       0       0       
      +0       0       0       0       0
  7575 ;;      Locals:         0       1       0       0       0       0       0       0       0       0       0       0       
      +0       0       0       0       0
  7576 ;;      Temps:          0       4       0       0       0       0       0       0       0       0       0       0       
      +0       0       0       0       0
  7577 ;;      Totals:         0      18       0       0       0       0       0       0       0       0       0       0       
      +0       0       0       0       0
  7578 ;;Total ram usage:       18 bytes
  7579 ;; Hardware stack levels used: 1
  7580 ;; Hardware stack levels required when called: 6
  7581 ;; This function calls:
  7582 ;;		Nothing
  7583 ;; This function is called by:
  7584 ;;		_ECAN_Initialize
  7585 ;;		_CAN_transmit
  7586 ;; This function uses a non-reentrant model
  7587 ;;
  7588                           
  7589                           	psect	text38
  7590  001936                     __ptext38:
  7591                           	callstack 0
  7592  001936                     _convertCANid2Reg:
  7593                           	callstack 20
  7594  001936                     
  7595                           ;mcc_generated_files/ecan.c: 375:     if (canIdType == 2) {
  7596  001936  0E02               	movlw	2
  7597  001938  0100               	movlb	0	; () banked
  7598  00193A  1964               	xorwf	convertCANid2Reg@canIdType& (0+255),w,b
  7599  00193C  A4D8               	btfss	status,2,c
  7600  00193E  EFA3  F00C         	goto	u1731
  7601  001942  EFA5  F00C         	goto	u1730
  7602  001946                     u1731:
  7603  001946  EF33  F00D         	goto	l4091
  7604  00194A                     u1730:
  7605  00194A                     
  7606                           ; BSR set to: 0
  7607                           ;mcc_generated_files/ecan.c: 378:         *passedInEIDL = 0xFF & tempPassedInID;
  7608  00194A  0060  F19F  FFD9   	movff	convertCANid2Reg@passedInEIDL,fsr2l
  7609  001950  0060  F1A3  FFDA   	movff	convertCANid2Reg@passedInEIDL+1,fsr2h
  7610  001956  0060  F183  FFDF   	movff	convertCANid2Reg@tempPassedInID,indf2
  7611  00195C                     
  7612                           ; BSR set to: 0
  7613                           ;mcc_generated_files/ecan.c: 379:         tempPassedInID = tempPassedInID >> 8;
  7614  00195C  C060  F06D         	movff	convertCANid2Reg@tempPassedInID,??_convertCANid2Reg
  7615  001960  C061  F06E         	movff	convertCANid2Reg@tempPassedInID+1,??_convertCANid2Reg+1
  7616  001964  C062  F06F         	movff	convertCANid2Reg@tempPassedInID+2,??_convertCANid2Reg+2
  7617  001968  C063  F070         	movff	convertCANid2Reg@tempPassedInID+3,??_convertCANid2Reg+3
  7618  00196C  C06E  F06D         	movff	??_convertCANid2Reg+1,??_convertCANid2Reg
  7619  001970  C06F  F06E         	movff	??_convertCANid2Reg+2,??_convertCANid2Reg+1
  7620  001974  C070  F06F         	movff	??_convertCANid2Reg+3,??_convertCANid2Reg+2
  7621  001978  6B70               	clrf	(??_convertCANid2Reg+3)& (0+255),b
  7622  00197A  C06D  F060         	movff	??_convertCANid2Reg,convertCANid2Reg@tempPassedInID
  7623  00197E  C06E  F061         	movff	??_convertCANid2Reg+1,convertCANid2Reg@tempPassedInID+1
  7624  001982  C06F  F062         	movff	??_convertCANid2Reg+2,convertCANid2Reg@tempPassedInID+2
  7625  001986  C070  F063         	movff	??_convertCANid2Reg+3,convertCANid2Reg@tempPassedInID+3
  7626  00198A                     
  7627                           ; BSR set to: 0
  7628                           ;mcc_generated_files/ecan.c: 382:         *passedInEIDH = 0xFF & tempPassedInID;
  7629  00198A  0060  F197  FFD9   	movff	convertCANid2Reg@passedInEIDH,fsr2l
  7630  001990  0060  F19B  FFDA   	movff	convertCANid2Reg@passedInEIDH+1,fsr2h
  7631  001996  0060  F183  FFDF   	movff	convertCANid2Reg@tempPassedInID,indf2
  7632                           
  7633                           ;mcc_generated_files/ecan.c: 383:         tempPassedInID = tempPassedInID >> 8;
  7634  00199C  C060  F06D         	movff	convertCANid2Reg@tempPassedInID,??_convertCANid2Reg
  7635  0019A0  C061  F06E         	movff	convertCANid2Reg@tempPassedInID+1,??_convertCANid2Reg+1
  7636  0019A4  C062  F06F         	movff	convertCANid2Reg@tempPassedInID+2,??_convertCANid2Reg+2
  7637  0019A8  C063  F070         	movff	convertCANid2Reg@tempPassedInID+3,??_convertCANid2Reg+3
  7638  0019AC  C06E  F06D         	movff	??_convertCANid2Reg+1,??_convertCANid2Reg
  7639  0019B0  C06F  F06E         	movff	??_convertCANid2Reg+2,??_convertCANid2Reg+1
  7640  0019B4  C070  F06F         	movff	??_convertCANid2Reg+3,??_convertCANid2Reg+2
  7641  0019B8  6B70               	clrf	(??_convertCANid2Reg+3)& (0+255),b
  7642  0019BA  C06D  F060         	movff	??_convertCANid2Reg,convertCANid2Reg@tempPassedInID
  7643  0019BE  C06E  F061         	movff	??_convertCANid2Reg+1,convertCANid2Reg@tempPassedInID+1
  7644  0019C2  C06F  F062         	movff	??_convertCANid2Reg+2,convertCANid2Reg@tempPassedInID+2
  7645  0019C6  C070  F063         	movff	??_convertCANid2Reg+3,convertCANid2Reg@tempPassedInID+3
  7646  0019CA                     
  7647                           ; BSR set to: 0
  7648                           ;mcc_generated_files/ecan.c: 387:         wipSIDL = 0x03 & tempPassedInID;
  7649  0019CA  5160               	movf	convertCANid2Reg@tempPassedInID& (0+255),w,b
  7650  0019CC  0B03               	andlw	3
  7651  0019CE  6F71               	movwf	convertCANid2Reg@wipSIDL& (0+255),b
  7652  0019D0                     
  7653                           ; BSR set to: 0
  7654                           ;mcc_generated_files/ecan.c: 388:         tempPassedInID = tempPassedInID << 3;
  7655  0019D0  C060  F06D         	movff	convertCANid2Reg@tempPassedInID,??_convertCANid2Reg
  7656  0019D4  C061  F06E         	movff	convertCANid2Reg@tempPassedInID+1,??_convertCANid2Reg+1
  7657  0019D8  C062  F06F         	movff	convertCANid2Reg@tempPassedInID+2,??_convertCANid2Reg+2
  7658  0019DC  C063  F070         	movff	convertCANid2Reg@tempPassedInID+3,??_convertCANid2Reg+3
  7659  0019E0  0E03               	movlw	3
  7660  0019E2                     u1745:
  7661  0019E2  90D8               	bcf	status,0,c
  7662  0019E4  376D               	rlcf	??_convertCANid2Reg& (0+255),f,b
  7663  0019E6  376E               	rlcf	(??_convertCANid2Reg+1)& (0+255),f,b
  7664  0019E8  376F               	rlcf	(??_convertCANid2Reg+2)& (0+255),f,b
  7665  0019EA  3770               	rlcf	(??_convertCANid2Reg+3)& (0+255),f,b
  7666  0019EC  2EE8               	decfsz	wreg,f,c
  7667  0019EE  EFF1  F00C         	goto	u1745
  7668  0019F2  C06D  F060         	movff	??_convertCANid2Reg,convertCANid2Reg@tempPassedInID
  7669  0019F6  C06E  F061         	movff	??_convertCANid2Reg+1,convertCANid2Reg@tempPassedInID+1
  7670  0019FA  C06F  F062         	movff	??_convertCANid2Reg+2,convertCANid2Reg@tempPassedInID+2
  7671  0019FE  C070  F063         	movff	??_convertCANid2Reg+3,convertCANid2Reg@tempPassedInID+3
  7672  001A02                     
  7673                           ; BSR set to: 0
  7674                           ;mcc_generated_files/ecan.c: 389:         wipSIDL = (0xE0 & tempPassedInID) + wipSIDL;
  7675  001A02  5160               	movf	convertCANid2Reg@tempPassedInID& (0+255),w,b
  7676  001A04  0BE0               	andlw	224
  7677  001A06  2571               	addwf	convertCANid2Reg@wipSIDL& (0+255),w,b
  7678  001A08  6F71               	movwf	convertCANid2Reg@wipSIDL& (0+255),b
  7679  001A0A                     
  7680                           ; BSR set to: 0
  7681                           ;mcc_generated_files/ecan.c: 390:         wipSIDL = (uint8_t)(wipSIDL + 0x08);
  7682  001A0A  5171               	movf	convertCANid2Reg@wipSIDL& (0+255),w,b
  7683  001A0C  0F08               	addlw	8
  7684  001A0E  6F71               	movwf	convertCANid2Reg@wipSIDL& (0+255),b
  7685  001A10                     
  7686                           ; BSR set to: 0
  7687                           ;mcc_generated_files/ecan.c: 391:         *passedInSIDL = (uint8_t)(0xEB & wipSIDL);
  7688  001A10  5171               	movf	convertCANid2Reg@wipSIDL& (0+255),w,b
  7689  001A12  0BEB               	andlw	235
  7690  001A14  0060  F1AF  FFD9   	movff	convertCANid2Reg@passedInSIDL,fsr2l
  7691  001A1A  0060  F1B3  FFDA   	movff	convertCANid2Reg@passedInSIDL+1,fsr2h
  7692  001A20  6EDF               	movwf	indf2,c
  7693  001A22                     l4087:
  7694                           
  7695                           ; BSR set to: 0
  7696                           ;mcc_generated_files/ecan.c: 394:         tempPassedInID = tempPassedInID >> 8;
  7697  001A22  C060  F06D         	movff	convertCANid2Reg@tempPassedInID,??_convertCANid2Reg
  7698  001A26  C061  F06E         	movff	convertCANid2Reg@tempPassedInID+1,??_convertCANid2Reg+1
  7699  001A2A  C062  F06F         	movff	convertCANid2Reg@tempPassedInID+2,??_convertCANid2Reg+2
  7700  001A2E  C063  F070         	movff	convertCANid2Reg@tempPassedInID+3,??_convertCANid2Reg+3
  7701  001A32  C06E  F06D         	movff	??_convertCANid2Reg+1,??_convertCANid2Reg
  7702  001A36  C06F  F06E         	movff	??_convertCANid2Reg+2,??_convertCANid2Reg+1
  7703  001A3A  C070  F06F         	movff	??_convertCANid2Reg+3,??_convertCANid2Reg+2
  7704  001A3E  6B70               	clrf	(??_convertCANid2Reg+3)& (0+255),b
  7705  001A40  C06D  F060         	movff	??_convertCANid2Reg,convertCANid2Reg@tempPassedInID
  7706  001A44  C06E  F061         	movff	??_convertCANid2Reg+1,convertCANid2Reg@tempPassedInID+1
  7707  001A48  C06F  F062         	movff	??_convertCANid2Reg+2,convertCANid2Reg@tempPassedInID+2
  7708  001A4C  C070  F063         	movff	??_convertCANid2Reg+3,convertCANid2Reg@tempPassedInID+3
  7709  001A50                     
  7710                           ; BSR set to: 0
  7711                           ;mcc_generated_files/ecan.c: 395:         *passedInSIDH = 0xFF & tempPassedInID;
  7712  001A50  0060  F1A7  FFD9   	movff	convertCANid2Reg@passedInSIDH,fsr2l
  7713  001A56  0060  F1AB  FFDA   	movff	convertCANid2Reg@passedInSIDH+1,fsr2h
  7714  001A5C  0060  F183  FFDF   	movff	convertCANid2Reg@tempPassedInID,indf2
  7715                           
  7716                           ;mcc_generated_files/ecan.c: 396:     }
  7717  001A62  EF67  F00D         	goto	l897
  7718  001A66                     l4091:
  7719                           
  7720                           ; BSR set to: 0
  7721                           ;mcc_generated_files/ecan.c: 398:     {;mcc_generated_files/ecan.c: 399:         *passed
      +                          InEIDH = 0;
  7722  001A66  0060  F197  FFD9   	movff	convertCANid2Reg@passedInEIDH,fsr2l
  7723  001A6C  0060  F19B  FFDA   	movff	convertCANid2Reg@passedInEIDH+1,fsr2h
  7724  001A72  0E00               	movlw	0
  7725  001A74  6EDF               	movwf	indf2,c
  7726                           
  7727                           ;mcc_generated_files/ecan.c: 400:         *passedInEIDL = 0;
  7728  001A76  0060  F19F  FFD9   	movff	convertCANid2Reg@passedInEIDL,fsr2l
  7729  001A7C  0060  F1A3  FFDA   	movff	convertCANid2Reg@passedInEIDL+1,fsr2h
  7730  001A82  0E00               	movlw	0
  7731  001A84  6EDF               	movwf	indf2,c
  7732  001A86                     
  7733                           ; BSR set to: 0
  7734                           ;mcc_generated_files/ecan.c: 401:         tempPassedInID = tempPassedInID << 5;
  7735  001A86  C060  F06D         	movff	convertCANid2Reg@tempPassedInID,??_convertCANid2Reg
  7736  001A8A  C061  F06E         	movff	convertCANid2Reg@tempPassedInID+1,??_convertCANid2Reg+1
  7737  001A8E  C062  F06F         	movff	convertCANid2Reg@tempPassedInID+2,??_convertCANid2Reg+2
  7738  001A92  C063  F070         	movff	convertCANid2Reg@tempPassedInID+3,??_convertCANid2Reg+3
  7739  001A96  0E05               	movlw	5
  7740  001A98                     u1755:
  7741  001A98  90D8               	bcf	status,0,c
  7742  001A9A  376D               	rlcf	??_convertCANid2Reg& (0+255),f,b
  7743  001A9C  376E               	rlcf	(??_convertCANid2Reg+1)& (0+255),f,b
  7744  001A9E  376F               	rlcf	(??_convertCANid2Reg+2)& (0+255),f,b
  7745  001AA0  3770               	rlcf	(??_convertCANid2Reg+3)& (0+255),f,b
  7746  001AA2  2EE8               	decfsz	wreg,f,c
  7747  001AA4  EF4C  F00D         	goto	u1755
  7748  001AA8  C06D  F060         	movff	??_convertCANid2Reg,convertCANid2Reg@tempPassedInID
  7749  001AAC  C06E  F061         	movff	??_convertCANid2Reg+1,convertCANid2Reg@tempPassedInID+1
  7750  001AB0  C06F  F062         	movff	??_convertCANid2Reg+2,convertCANid2Reg@tempPassedInID+2
  7751  001AB4  C070  F063         	movff	??_convertCANid2Reg+3,convertCANid2Reg@tempPassedInID+3
  7752  001AB8                     
  7753                           ; BSR set to: 0
  7754                           ;mcc_generated_files/ecan.c: 402:         *passedInSIDL = 0xFF & tempPassedInID;
  7755  001AB8  0060  F1AF  FFD9   	movff	convertCANid2Reg@passedInSIDL,fsr2l
  7756  001ABE  0060  F1B3  FFDA   	movff	convertCANid2Reg@passedInSIDL+1,fsr2h
  7757  001AC4  0060  F183  FFDF   	movff	convertCANid2Reg@tempPassedInID,indf2
  7758  001ACA  EF11  F00D         	goto	l4087
  7759  001ACE                     l897:
  7760                           
  7761                           ; BSR set to: 0
  7762  001ACE  0012               	return		;funcret
  7763  001AD0                     __end_of_convertCANid2Reg:
  7764                           	callstack 0
  7765                           
  7766 ;; *************** function _Factory_start *****************
  7767 ;; Defined at:
  7768 ;;		line 70 in file "factory/factory.c"
  7769 ;; Parameters:    Size  Location     Type
  7770 ;;		None
  7771 ;; Auto vars:     Size  Location     Type
  7772 ;;		None
  7773 ;; Return value:  Size  Location     Type
  7774 ;;                  1    wreg      void 
  7775 ;; Registers used:
  7776 ;;		wreg, fsr0l, fsr0h, fsr1l, fsr1h, fsr2l, fsr2h, status,2, status,0, prodl, prodh, cstack
  7777 ;; Tracked objects:
  7778 ;;		On entry : 0/0
  7779 ;;		On exit  : 0/0
  7780 ;;		Unchanged: 0/0
  7781 ;; Data sizes:     COMRAM   BANK0   BANK1   BANK2   BANK3   BANK4   BANK5   BANK6   BANK7   BANK8   BANK9  BANK10  BANK1
      +1  BANK12  BANK13  BANK14  BANK15
  7782 ;;      Params:         0       0       0       0       0       0       0       0       0       0       0       0       
      +0       0       0       0       0
  7783 ;;      Locals:         0       0       0       0       0       0       0       0       0       0       0       0       
      +0       0       0       0       0
  7784 ;;      Temps:          0       0       0       0       0       0       0       0       0       0       0       0       
      +0       0       0       0       0
  7785 ;;      Totals:         0       0       0       0       0       0       0       0       0       0       0       0       
      +0       0       0       0       0
  7786 ;;Total ram usage:        0 bytes
  7787 ;; Hardware stack levels used: 1
  7788 ;; Hardware stack levels required when called: 11
  7789 ;; This function calls:
  7790 ;;		_ButtonSM_startBehaviour
  7791 ;;		_POST
  7792 ;;		_bsm
  7793 ;;		_cc
  7794 ;;		_commControl_startBehaviour
  7795 ;; This function is called by:
  7796 ;;		_main
  7797 ;; This function uses a non-reentrant model
  7798 ;;
  7799                           
  7800                           	psect	text39
  7801  002D34                     __ptext39:
  7802                           	callstack 0
  7803  002D34                     _Factory_start:
  7804                           	callstack 19
  7805  002D34                     
  7806                           ;factory/factory.c: 72:     ButtonSM_startBehaviour(bsm());
  7807  002D34  ECA8  F01A         	call	_bsm	;wreg free
  7808  002D38  C060  F0A9         	movff	?_bsm,ButtonSM_startBehaviour@me
  7809  002D3C  C061  F0AA         	movff	?_bsm+1,ButtonSM_startBehaviour@me+1
  7810  002D40  EC1E  F014         	call	_ButtonSM_startBehaviour	;wreg free
  7811                           
  7812                           ;factory/factory.c: 73:     commControl_startBehaviour(cc());
  7813  002D44  EC9C  F01A         	call	_cc	;wreg free
  7814  002D48  C060  F0A9         	movff	?_cc,commControl_startBehaviour@me
  7815  002D4C  C061  F0AA         	movff	?_cc+1,commControl_startBehaviour@me+1
  7816  002D50  ECAE  F014         	call	_commControl_startBehaviour	;wreg free
  7817                           
  7818                           ;factory/factory.c: 74:     POST(&theFactory, &factory_toggleLed, 11, 1000, 0);
  7819  002D54  0E00               	movlw	low _theFactory
  7820  002D56  0100               	movlb	0	; () banked
  7821  002D58  6F8A               	movwf	POST@target& (0+255),b
  7822  002D5A  0E01               	movlw	high _theFactory
  7823  002D5C  6F8B               	movwf	(POST@target+1)& (0+255),b
  7824  002D5E  0ED0               	movlw	low _factory_toggleLed
  7825  002D60  6F8C               	movwf	POST@processEvent& (0+255),b
  7826  002D62  0E2C               	movlw	high _factory_toggleLed
  7827  002D64  6F8D               	movwf	(POST@processEvent+1)& (0+255),b
  7828  002D66  0E0B               	movlw	11
  7829  002D68  6F8E               	movwf	POST@id& (0+255),b
  7830  002D6A  0E03               	movlw	3
  7831  002D6C  6F90               	movwf	(POST@delay+1)& (0+255),b
  7832  002D6E  0EE8               	movlw	232
  7833  002D70  6F8F               	movwf	POST@delay& (0+255),b
  7834  002D72  0E00               	movlw	0
  7835  002D74  6F91               	movwf	POST@data& (0+255),b
  7836  002D76  0E00               	movlw	0
  7837  002D78  6F92               	movwf	(POST@data+1)& (0+255),b
  7838  002D7A  0E00               	movlw	0
  7839  002D7C  6F93               	movwf	(POST@data+2)& (0+255),b
  7840  002D7E  0E00               	movlw	0
  7841  002D80  6F94               	movwf	(POST@data+3)& (0+255),b
  7842  002D82  0E00               	movlw	0
  7843  002D84  6F95               	movwf	(POST@data+4)& (0+255),b
  7844  002D86  0E00               	movlw	0
  7845  002D88  6F96               	movwf	(POST@data+5)& (0+255),b
  7846  002D8A  0E00               	movlw	0
  7847  002D8C  6F97               	movwf	(POST@data+6)& (0+255),b
  7848  002D8E  0E00               	movlw	0
  7849  002D90  6F98               	movwf	(POST@data+7)& (0+255),b
  7850  002D92  ECD5  F010         	call	_POST	;wreg free
  7851  002D96  0012               	return		;funcret
  7852  002D98                     __end_of_Factory_start:
  7853                           	callstack 0
  7854                           
  7855 ;; *************** function _commControl_startBehaviour *****************
  7856 ;; Defined at:
  7857 ;;		line 32 in file "driveControl/commControl.c"
  7858 ;; Parameters:    Size  Location     Type
  7859 ;;  me              2   73[BANK0 ] PTR struct CommControl_
  7860 ;;		 -> theFactory.cc_(17), theFactory(233), 
  7861 ;; Auto vars:     Size  Location     Type
  7862 ;;		None
  7863 ;; Return value:  Size  Location     Type
  7864 ;;                  1    wreg      void 
  7865 ;; Registers used:
  7866 ;;		wreg, fsr0l, fsr0h, fsr1l, fsr1h, fsr2l, fsr2h, status,2, status,0, prodl, prodh, cstack
  7867 ;; Tracked objects:
  7868 ;;		On entry : 0/0
  7869 ;;		On exit  : 0/0
  7870 ;;		Unchanged: 0/0
  7871 ;; Data sizes:     COMRAM   BANK0   BANK1   BANK2   BANK3   BANK4   BANK5   BANK6   BANK7   BANK8   BANK9  BANK10  BANK1
      +1  BANK12  BANK13  BANK14  BANK15
  7872 ;;      Params:         0       2       0       0       0       0       0       0       0       0       0       0       
      +0       0       0       0       0
  7873 ;;      Locals:         0       0       0       0       0       0       0       0       0       0       0       0       
      +0       0       0       0       0
  7874 ;;      Temps:          0       0       0       0       0       0       0       0       0       0       0       0       
      +0       0       0       0       0
  7875 ;;      Totals:         0       2       0       0       0       0       0       0       0       0       0       0       
      +0       0       0       0       0
  7876 ;;Total ram usage:        2 bytes
  7877 ;; Hardware stack levels used: 1
  7878 ;; Hardware stack levels required when called: 10
  7879 ;; This function calls:
  7880 ;;		_POST
  7881 ;; This function is called by:
  7882 ;;		_Factory_start
  7883 ;; This function uses a non-reentrant model
  7884 ;;
  7885                           
  7886                           	psect	text40
  7887  00295C                     __ptext40:
  7888                           	callstack 0
  7889  00295C                     _commControl_startBehaviour:
  7890                           	callstack 19
  7891  00295C                     
  7892                           ;driveControl/commControl.c: 33:     POST(me, &commControl_processEvent, evAInit, 0, 0);
  7893  00295C  C0A9  F08A         	movff	commControl_startBehaviour@me,POST@target
  7894  002960  C0AA  F08B         	movff	commControl_startBehaviour@me+1,POST@target+1
  7895  002964  0E1E               	movlw	low _commControl_processEvent
  7896  002966  0100               	movlb	0	; () banked
  7897  002968  6F8C               	movwf	POST@processEvent& (0+255),b
  7898  00296A  0E00               	movlw	high _commControl_processEvent
  7899  00296C  6F8D               	movwf	(POST@processEvent+1)& (0+255),b
  7900  00296E  0E2F               	movlw	47
  7901  002970  6F8E               	movwf	POST@id& (0+255),b
  7902  002972  0E00               	movlw	0
  7903  002974  6F90               	movwf	(POST@delay+1)& (0+255),b
  7904  002976  0E00               	movlw	0
  7905  002978  6F8F               	movwf	POST@delay& (0+255),b
  7906  00297A  0E00               	movlw	0
  7907  00297C  6F91               	movwf	POST@data& (0+255),b
  7908  00297E  0E00               	movlw	0
  7909  002980  6F92               	movwf	(POST@data+1)& (0+255),b
  7910  002982  0E00               	movlw	0
  7911  002984  6F93               	movwf	(POST@data+2)& (0+255),b
  7912  002986  0E00               	movlw	0
  7913  002988  6F94               	movwf	(POST@data+3)& (0+255),b
  7914  00298A  0E00               	movlw	0
  7915  00298C  6F95               	movwf	(POST@data+4)& (0+255),b
  7916  00298E  0E00               	movlw	0
  7917  002990  6F96               	movwf	(POST@data+5)& (0+255),b
  7918  002992  0E00               	movlw	0
  7919  002994  6F97               	movwf	(POST@data+6)& (0+255),b
  7920  002996  0E00               	movlw	0
  7921  002998  6F98               	movwf	(POST@data+7)& (0+255),b
  7922  00299A  ECD5  F010         	call	_POST	;wreg free
  7923                           
  7924                           ;driveControl/commControl.c: 34:     POST(me, &commControl_processEvent, evCInit, 0, 0);
  7925  00299E  C0A9  F08A         	movff	commControl_startBehaviour@me,POST@target
  7926  0029A2  C0AA  F08B         	movff	commControl_startBehaviour@me+1,POST@target+1
  7927  0029A6  0E1E               	movlw	low _commControl_processEvent
  7928  0029A8  0100               	movlb	0	; () banked
  7929  0029AA  6F8C               	movwf	POST@processEvent& (0+255),b
  7930  0029AC  0E00               	movlw	high _commControl_processEvent
  7931  0029AE  6F8D               	movwf	(POST@processEvent+1)& (0+255),b
  7932  0029B0  0E28               	movlw	40
  7933  0029B2  6F8E               	movwf	POST@id& (0+255),b
  7934  0029B4  0E00               	movlw	0
  7935  0029B6  6F90               	movwf	(POST@delay+1)& (0+255),b
  7936  0029B8  0E00               	movlw	0
  7937  0029BA  6F8F               	movwf	POST@delay& (0+255),b
  7938  0029BC  0E00               	movlw	0
  7939  0029BE  6F91               	movwf	POST@data& (0+255),b
  7940  0029C0  0E00               	movlw	0
  7941  0029C2  6F92               	movwf	(POST@data+1)& (0+255),b
  7942  0029C4  0E00               	movlw	0
  7943  0029C6  6F93               	movwf	(POST@data+2)& (0+255),b
  7944  0029C8  0E00               	movlw	0
  7945  0029CA  6F94               	movwf	(POST@data+3)& (0+255),b
  7946  0029CC  0E00               	movlw	0
  7947  0029CE  6F95               	movwf	(POST@data+4)& (0+255),b
  7948  0029D0  0E00               	movlw	0
  7949  0029D2  6F96               	movwf	(POST@data+5)& (0+255),b
  7950  0029D4  0E00               	movlw	0
  7951  0029D6  6F97               	movwf	(POST@data+6)& (0+255),b
  7952  0029D8  0E00               	movlw	0
  7953  0029DA  6F98               	movwf	(POST@data+7)& (0+255),b
  7954  0029DC  ECD5  F010         	call	_POST	;wreg free
  7955  0029E0  0012               	return		;funcret
  7956  0029E2                     __end_of_commControl_startBehaviour:
  7957                           	callstack 0
  7958                           
  7959 ;; *************** function _ButtonSM_startBehaviour *****************
  7960 ;; Defined at:
  7961 ;;		line 109 in file "board/button/buttonsm.c"
  7962 ;; Parameters:    Size  Location     Type
  7963 ;;  me              2   73[BANK0 ] PTR struct ButtonSM_
  7964 ;;		 -> theFactory.bsm_(10), theFactory(233), 
  7965 ;; Auto vars:     Size  Location     Type
  7966 ;;		None
  7967 ;; Return value:  Size  Location     Type
  7968 ;;                  1    wreg      void 
  7969 ;; Registers used:
  7970 ;;		wreg, fsr0l, fsr0h, fsr1l, fsr1h, fsr2l, fsr2h, status,2, status,0, prodl, prodh, cstack
  7971 ;; Tracked objects:
  7972 ;;		On entry : 0/0
  7973 ;;		On exit  : 0/0
  7974 ;;		Unchanged: 0/0
  7975 ;; Data sizes:     COMRAM   BANK0   BANK1   BANK2   BANK3   BANK4   BANK5   BANK6   BANK7   BANK8   BANK9  BANK10  BANK1
      +1  BANK12  BANK13  BANK14  BANK15
  7976 ;;      Params:         0       2       0       0       0       0       0       0       0       0       0       0       
      +0       0       0       0       0
  7977 ;;      Locals:         0       1       0       0       0       0       0       0       0       0       0       0       
      +0       0       0       0       0
  7978 ;;      Temps:          0       0       0       0       0       0       0       0       0       0       0       0       
      +0       0       0       0       0
  7979 ;;      Totals:         0       3       0       0       0       0       0       0       0       0       0       0       
      +0       0       0       0       0
  7980 ;;Total ram usage:        3 bytes
  7981 ;; Hardware stack levels used: 1
  7982 ;; Hardware stack levels required when called: 10
  7983 ;; This function calls:
  7984 ;;		_Button_read
  7985 ;;		_POST
  7986 ;; This function is called by:
  7987 ;;		_Factory_start
  7988 ;; This function uses a non-reentrant model
  7989 ;;
  7990                           
  7991                           	psect	text41
  7992  00283C                     __ptext41:
  7993                           	callstack 0
  7994  00283C                     _ButtonSM_startBehaviour:
  7995                           	callstack 19
  7996  00283C                     
  7997                           ;board/button/buttonsm.c: 109: void ButtonSM_startBehaviour(ButtonSM* me);board/button/b
      +                          uttonsm.c: 110: {;board/button/buttonsm.c: 111:     POST(me, &ButtonSM_processEvent, evB
      +                          SMInit,0,0);
  7998  00283C  C0A9  F08A         	movff	ButtonSM_startBehaviour@me,POST@target
  7999  002840  C0AA  F08B         	movff	ButtonSM_startBehaviour@me+1,POST@target+1
  8000  002844  0E6A               	movlw	low _ButtonSM_processEvent
  8001  002846  0100               	movlb	0	; () banked
  8002  002848  6F8C               	movwf	POST@processEvent& (0+255),b
  8003  00284A  0E09               	movlw	high _ButtonSM_processEvent
  8004  00284C  6F8D               	movwf	(POST@processEvent+1)& (0+255),b
  8005  00284E  0E0A               	movlw	10
  8006  002850  6F8E               	movwf	POST@id& (0+255),b
  8007  002852  0E00               	movlw	0
  8008  002854  6F90               	movwf	(POST@delay+1)& (0+255),b
  8009  002856  0E00               	movlw	0
  8010  002858  6F8F               	movwf	POST@delay& (0+255),b
  8011  00285A  0E00               	movlw	0
  8012  00285C  6F91               	movwf	POST@data& (0+255),b
  8013  00285E  0E00               	movlw	0
  8014  002860  6F92               	movwf	(POST@data+1)& (0+255),b
  8015  002862  0E00               	movlw	0
  8016  002864  6F93               	movwf	(POST@data+2)& (0+255),b
  8017  002866  0E00               	movlw	0
  8018  002868  6F94               	movwf	(POST@data+3)& (0+255),b
  8019  00286A  0E00               	movlw	0
  8020  00286C  6F95               	movwf	(POST@data+4)& (0+255),b
  8021  00286E  0E00               	movlw	0
  8022  002870  6F96               	movwf	(POST@data+5)& (0+255),b
  8023  002872  0E00               	movlw	0
  8024  002874  6F97               	movwf	(POST@data+6)& (0+255),b
  8025  002876  0E00               	movlw	0
  8026  002878  6F98               	movwf	(POST@data+7)& (0+255),b
  8027  00287A  ECD5  F010         	call	_POST	;wreg free
  8028  00287E                     
  8029                           ;board/button/buttonsm.c: 112:     me->actualState = Button_read(me->button)==1?ST_BSMPR
      +                          ESSED:ST_BSMRELEASED;
  8030  00287E  0100               	movlb	0	; () banked
  8031  002880  EE20 F001          	lfsr	2,1
  8032  002884  51A9               	movf	ButtonSM_startBehaviour@me& (0+255),w,b
  8033  002886  26D9               	addwf	fsr2l,f,c
  8034  002888  51AA               	movf	(ButtonSM_startBehaviour@me+1)& (0+255),w,b
  8035  00288A  22DA               	addwfc	fsr2h,f,c
  8036  00288C  006F FF78  F060    	movff	postinc2,Button_read@me
  8037  002892  006F FF74  F061    	movff	postdec2,Button_read@me+1
  8038  002898  EC74  F010         	call	_Button_read	;wreg free
  8039  00289C  06E8               	decf	wreg,f,c
  8040  00289E  B4D8               	btfsc	status,2,c
  8041  0028A0  EF54  F014         	goto	u2331
  8042  0028A4  EF56  F014         	goto	u2330
  8043  0028A8                     u2331:
  8044  0028A8  EF5B  F014         	goto	l4807
  8045  0028AC                     u2330:
  8046  0028AC  0E04               	movlw	4
  8047  0028AE  0100               	movlb	0	; () banked
  8048  0028B0  6FAB               	movwf	_ButtonSM_startBehaviour$212& (0+255),b
  8049  0028B2  EF5E  F014         	goto	l4809
  8050  0028B6                     l4807:
  8051  0028B6  0E03               	movlw	3
  8052  0028B8  0100               	movlb	0	; () banked
  8053  0028BA  6FAB               	movwf	_ButtonSM_startBehaviour$212& (0+255),b
  8054  0028BC                     l4809:
  8055                           
  8056                           ; BSR set to: 0
  8057  0028BC  EE20 F003          	lfsr	2,3
  8058  0028C0  51A9               	movf	ButtonSM_startBehaviour@me& (0+255),w,b
  8059  0028C2  26D9               	addwf	fsr2l,f,c
  8060  0028C4  51AA               	movf	(ButtonSM_startBehaviour@me+1)& (0+255),w,b
  8061  0028C6  22DA               	addwfc	fsr2h,f,c
  8062  0028C8  0060  F2AF  FFDF   	movff	_ButtonSM_startBehaviour$212,indf2
  8063  0028CE                     
  8064                           ; BSR set to: 0
  8065  0028CE  0012               	return		;funcret
  8066  0028D0                     __end_of_ButtonSM_startBehaviour:
  8067                           	callstack 0
  8068                           
  8069 ;; *************** function _POST *****************
  8070 ;; Defined at:
  8071 ;;		line 257 in file "xf/xf.c"
  8072 ;; Parameters:    Size  Location     Type
  8073 ;;  target          2   42[BANK0 ] PTR void 
  8074 ;;		 -> theFactory.cc_(17), theFactory.bsm_(10), theFactory(233), NULL(0), 
  8075 ;;  processEvent    2   44[BANK0 ] PTR FTN(PTR struct Event
  8076 ;;		 -> factory_toggleLed(1), commControl_processEvent(1), ButtonSM_processEvent(1), 
  8077 ;;  id              1   46[BANK0 ] unsigned char 
  8078 ;;  delay           2   47[BANK0 ] unsigned short 
  8079 ;;  data            8   49[BANK0 ] long long 
  8080 ;; Auto vars:     Size  Location     Type
  8081 ;;  ev             15   58[BANK0 ] struct Event_
  8082 ;;  tmid            1   57[BANK0 ] unsigned char 
  8083 ;; Return value:  Size  Location     Type
  8084 ;;                  1    wreg      unsigned char 
  8085 ;; Registers used:
  8086 ;;		wreg, fsr0l, fsr0h, fsr1l, fsr1h, fsr2l, fsr2h, status,2, status,0, prodl, prodh, cstack
  8087 ;; Tracked objects:
  8088 ;;		On entry : 0/0
  8089 ;;		On exit  : 0/0
  8090 ;;		Unchanged: 0/0
  8091 ;; Data sizes:     COMRAM   BANK0   BANK1   BANK2   BANK3   BANK4   BANK5   BANK6   BANK7   BANK8   BANK9  BANK10  BANK1
      +1  BANK12  BANK13  BANK14  BANK15
  8092 ;;      Params:         0      15       0       0       0       0       0       0       0       0       0       0       
      +0       0       0       0       0
  8093 ;;      Locals:         0      16       0       0       0       0       0       0       0       0       0       0       
      +0       0       0       0       0
  8094 ;;      Temps:          0       0       0       0       0       0       0       0       0       0       0       0       
      +0       0       0       0       0
  8095 ;;      Totals:         0      31       0       0       0       0       0       0       0       0       0       0       
      +0       0       0       0       0
  8096 ;;Total ram usage:       31 bytes
  8097 ;; Hardware stack levels used: 1
  8098 ;; Hardware stack levels required when called: 9
  8099 ;; This function calls:
  8100 ;;		_Event_init
  8101 ;;		_Event_setData
  8102 ;;		_Event_setDelay
  8103 ;;		_Event_setId
  8104 ;;		_Event_setPE
  8105 ;;		_Event_setTarget
  8106 ;;		_XF_pushEvent
  8107 ;; This function is called by:
  8108 ;;		_ButtonSM_processEvent
  8109 ;;		_ButtonSM_startBehaviour
  8110 ;;		_commControl_startBehaviour
  8111 ;;		_commControl_processEvent
  8112 ;;		_readCANFrame
  8113 ;;		_factory_toggleLed
  8114 ;;		_Factory_start
  8115 ;; This function uses a non-reentrant model
  8116 ;;
  8117                           
  8118                           	psect	text42
  8119  0021AA                     __ptext42:
  8120                           	callstack 0
  8121  0021AA                     _POST:
  8122                           	callstack 19
  8123  0021AA                     
  8124                           ;xf/xf.c: 257: uint8_t POST(void* target, processEventT processEvent, uint8_t id, uint16
      +                          _t delay , int64_t data);xf/xf.c: 258: {;xf/xf.c: 259:     uint8_t tmid = 8;
  8125  0021AA  0E08               	movlw	8
  8126  0021AC  0100               	movlb	0	; () banked
  8127  0021AE  6F99               	movwf	POST@tmid& (0+255),b
  8128  0021B0                     
  8129                           ; BSR set to: 0
  8130                           ;xf/xf.c: 262:     Event ev;;xf/xf.c: 263:     Event_init(&ev);
  8131  0021B0  0E9A               	movlw	low POST@ev
  8132  0021B2  6F66               	movwf	Event_init@me& (0+255),b
  8133  0021B4  0E00               	movlw	high POST@ev
  8134  0021B6  6F67               	movwf	(Event_init@me+1)& (0+255),b
  8135  0021B8  ECCC  F016         	call	_Event_init	;wreg free
  8136  0021BC                     
  8137                           ;xf/xf.c: 264:     Event_setTarget(&ev,target);
  8138  0021BC  0E9A               	movlw	low POST@ev
  8139  0021BE  0100               	movlb	0	; () banked
  8140  0021C0  6F60               	movwf	Event_setTarget@me& (0+255),b
  8141  0021C2  0E00               	movlw	high POST@ev
  8142  0021C4  6F61               	movwf	(Event_setTarget@me+1)& (0+255),b
  8143  0021C6  C08A  F062         	movff	POST@target,Event_setTarget@target
  8144  0021CA  C08B  F063         	movff	POST@target+1,Event_setTarget@target+1
  8145  0021CE  ECED  F019         	call	_Event_setTarget	;wreg free
  8146  0021D2                     
  8147                           ;xf/xf.c: 265:     Event_setPE(&ev,processEvent);
  8148  0021D2  0E9A               	movlw	low POST@ev
  8149  0021D4  0100               	movlb	0	; () banked
  8150  0021D6  6F60               	movwf	Event_setPE@me& (0+255),b
  8151  0021D8  0E00               	movlw	high POST@ev
  8152  0021DA  6F61               	movwf	(Event_setPE@me+1)& (0+255),b
  8153  0021DC  C08C  F062         	movff	POST@processEvent,Event_setPE@processEvent
  8154  0021E0  C08D  F063         	movff	POST@processEvent+1,Event_setPE@processEvent+1
  8155  0021E4  ECFB  F019         	call	_Event_setPE	;wreg free
  8156  0021E8                     
  8157                           ;xf/xf.c: 266:     Event_setId(&ev,id);
  8158  0021E8  0E9A               	movlw	low POST@ev
  8159  0021EA  0100               	movlb	0	; () banked
  8160  0021EC  6F60               	movwf	Event_setId@me& (0+255),b
  8161  0021EE  0E00               	movlw	high POST@ev
  8162  0021F0  6F61               	movwf	(Event_setId@me+1)& (0+255),b
  8163  0021F2  C08E  F062         	movff	POST@id,Event_setId@eventID
  8164  0021F6  EC5F  F01A         	call	_Event_setId	;wreg free
  8165  0021FA                     
  8166                           ;xf/xf.c: 267:     Event_setDelay(&ev,delay);
  8167  0021FA  0E9A               	movlw	low POST@ev
  8168  0021FC  0100               	movlb	0	; () banked
  8169  0021FE  6F60               	movwf	Event_setDelay@me& (0+255),b
  8170  002200  0E00               	movlw	high POST@ev
  8171  002202  6F61               	movwf	(Event_setDelay@me+1)& (0+255),b
  8172  002204  C08F  F062         	movff	POST@delay,Event_setDelay@delay
  8173  002208  C090  F063         	movff	POST@delay+1,Event_setDelay@delay+1
  8174  00220C  ECD1  F019         	call	_Event_setDelay	;wreg free
  8175  002210                     
  8176                           ;xf/xf.c: 268:     Event_setData(&ev,data);
  8177  002210  0E9A               	movlw	low POST@ev
  8178  002212  0100               	movlb	0	; () banked
  8179  002214  6F60               	movwf	Event_setData@me& (0+255),b
  8180  002216  0E00               	movlw	high POST@ev
  8181  002218  6F61               	movwf	(Event_setData@me+1)& (0+255),b
  8182  00221A  C091  F062         	movff	POST@data,Event_setData@data
  8183  00221E  C092  F063         	movff	POST@data+1,Event_setData@data+1
  8184  002222  C093  F064         	movff	POST@data+2,Event_setData@data+2
  8185  002226  C094  F065         	movff	POST@data+3,Event_setData@data+3
  8186  00222A  C095  F066         	movff	POST@data+4,Event_setData@data+4
  8187  00222E  C096  F067         	movff	POST@data+5,Event_setData@data+5
  8188  002232  C097  F068         	movff	POST@data+6,Event_setData@data+6
  8189  002236  C098  F069         	movff	POST@data+7,Event_setData@data+7
  8190  00223A  EC5C  F018         	call	_Event_setData	;wreg free
  8191  00223E                     
  8192                           ;xf/xf.c: 269:     XF_pushEvent(ev,0,&tmid);
  8193  00223E  EE20  F09A         	lfsr	2,POST@ev
  8194  002242  EE00  F074         	lfsr	0,XF_pushEvent@ev
  8195  002246  0E0E               	movlw	14
  8196  002248                     u1851:
  8197  002248  006F FF6F FFEB     	movff	plusw2,plusw0
  8198  00224E  06E8               	decf	wreg,f,c
  8199  002250  E2FB               	bc	u1851
  8200  002252  0E00               	movlw	0
  8201  002254  0100               	movlb	0	; () banked
  8202  002256  6F83               	movwf	XF_pushEvent@inISR& (0+255),b
  8203  002258  0E99               	movlw	low POST@tmid
  8204  00225A  6F84               	movwf	XF_pushEvent@tmid& (0+255),b
  8205  00225C  0E00               	movlw	high POST@tmid
  8206  00225E  6F85               	movwf	(XF_pushEvent@tmid+1)& (0+255),b
  8207  002260  ECA1  F00E         	call	_XF_pushEvent	;wreg free
  8208  002264  0012               	return		;funcret
  8209  002266                     __end_of_POST:
  8210                           	callstack 0
  8211                           
  8212 ;; *************** function _XF_pushEvent *****************
  8213 ;; Defined at:
  8214 ;;		line 97 in file "xf/xf.c"
  8215 ;; Parameters:    Size  Location     Type
  8216 ;;  ev             15   20[BANK0 ] struct Event_
  8217 ;;  inISR           1   35[BANK0 ] _Bool 
  8218 ;;  tmid            2   36[BANK0 ] PTR unsigned char 
  8219 ;;		 -> POST@tmid(1), XF_decrementAndQueueTimers@dummy(1), 
  8220 ;; Auto vars:     Size  Location     Type
  8221 ;;  tm              2   39[BANK0 ] unsigned short 
  8222 ;;  temp            1   41[BANK0 ] unsigned char 
  8223 ;; Return value:  Size  Location     Type
  8224 ;;                  1    wreg      _Bool 
  8225 ;; Registers used:
  8226 ;;		wreg, fsr0l, fsr0h, fsr1l, fsr1h, fsr2l, fsr2h, status,2, status,0, prodl, prodh, cstack
  8227 ;; Tracked objects:
  8228 ;;		On entry : 0/0
  8229 ;;		On exit  : 0/0
  8230 ;;		Unchanged: 0/0
  8231 ;; Data sizes:     COMRAM   BANK0   BANK1   BANK2   BANK3   BANK4   BANK5   BANK6   BANK7   BANK8   BANK9  BANK10  BANK1
      +1  BANK12  BANK13  BANK14  BANK15
  8232 ;;      Params:         0      18       0       0       0       0       0       0       0       0       0       0       
      +0       0       0       0       0
  8233 ;;      Locals:         0       3       0       0       0       0       0       0       0       0       0       0       
      +0       0       0       0       0
  8234 ;;      Temps:          0       1       0       0       0       0       0       0       0       0       0       0       
      +0       0       0       0       0
  8235 ;;      Totals:         0      22       0       0       0       0       0       0       0       0       0       0       
      +0       0       0       0       0
  8236 ;;Total ram usage:       22 bytes
  8237 ;; Hardware stack levels used: 1
  8238 ;; Hardware stack levels required when called: 8
  8239 ;; This function calls:
  8240 ;;		_ENTERCRITICAL
  8241 ;;		_Event_getDelay
  8242 ;;		_Event_setDelay
  8243 ;;		_LEAVECRITICAL
  8244 ;;		_XF_scheduleTimer
  8245 ;;		___awmod
  8246 ;; This function is called by:
  8247 ;;		_POST
  8248 ;; This function uses a non-reentrant model
  8249 ;;
  8250                           
  8251                           	psect	text43
  8252  001D42                     __ptext43:
  8253                           	callstack 0
  8254  001D42                     _XF_pushEvent:
  8255                           	callstack 19
  8256  001D42                     
  8257                           ;xf/xf.c: 97: _Bool XF_pushEvent(Event ev, _Bool inISR, uint8_t* tmid);xf/xf.c: 98: {;xf
      +                          /xf.c: 99:     uint8_t temp;;xf/xf.c: 100:     uint16_t tm;;xf/xf.c: 101:     tm = Event
      +                          _getDelay(&ev);
  8258  001D42  0E74               	movlw	low XF_pushEvent@ev
  8259  001D44  0100               	movlb	0	; () banked
  8260  001D46  6F60               	movwf	Event_getDelay@me& (0+255),b
  8261  001D48  0E00               	movlw	high XF_pushEvent@ev
  8262  001D4A  6F61               	movwf	(Event_getDelay@me+1)& (0+255),b
  8263  001D4C  ECDF  F019         	call	_Event_getDelay	;wreg free
  8264  001D50  C060  F087         	movff	?_Event_getDelay,XF_pushEvent@tm
  8265  001D54  C061  F088         	movff	?_Event_getDelay+1,XF_pushEvent@tm+1
  8266  001D58                     
  8267                           ;xf/xf.c: 102:     if ( tm > 0)
  8268  001D58  0100               	movlb	0	; () banked
  8269  001D5A  5187               	movf	XF_pushEvent@tm& (0+255),w,b
  8270  001D5C  1188               	iorwf	(XF_pushEvent@tm+1)& (0+255),w,b
  8271  001D5E  B4D8               	btfsc	status,2,c
  8272  001D60  EFB4  F00E         	goto	u1791
  8273  001D64  EFB6  F00E         	goto	u1790
  8274  001D68                     u1791:
  8275  001D68  EFDB  F00E         	goto	l4163
  8276  001D6C                     u1790:
  8277  001D6C                     
  8278                           ; BSR set to: 0
  8279                           ;xf/xf.c: 103:     {;xf/xf.c: 104:         Event_setDelay(&ev,0);
  8280  001D6C  0E74               	movlw	low XF_pushEvent@ev
  8281  001D6E  6F60               	movwf	Event_setDelay@me& (0+255),b
  8282  001D70  0E00               	movlw	high XF_pushEvent@ev
  8283  001D72  6F61               	movwf	(Event_setDelay@me+1)& (0+255),b
  8284  001D74  0E00               	movlw	0
  8285  001D76  6F63               	movwf	(Event_setDelay@delay+1)& (0+255),b
  8286  001D78  0E00               	movlw	0
  8287  001D7A  6F62               	movwf	Event_setDelay@delay& (0+255),b
  8288  001D7C  ECD1  F019         	call	_Event_setDelay	;wreg free
  8289  001D80                     
  8290                           ;xf/xf.c: 105:         *tmid = XF_scheduleTimer(tm, ev, inISR);
  8291  001D80  C087  F061         	movff	XF_pushEvent@tm,XF_scheduleTimer@tm
  8292  001D84  C088  F062         	movff	XF_pushEvent@tm+1,XF_scheduleTimer@tm+1
  8293  001D88  EE20  F074         	lfsr	2,XF_pushEvent@ev
  8294  001D8C  EE00  F063         	lfsr	0,XF_scheduleTimer@ev
  8295  001D90  0E0E               	movlw	14
  8296  001D92                     u1801:
  8297  001D92  006F FF6F FFEB     	movff	plusw2,plusw0
  8298  001D98  06E8               	decf	wreg,f,c
  8299  001D9A  E2FB               	bc	u1801
  8300  001D9C  C083  F072         	movff	XF_pushEvent@inISR,XF_scheduleTimer@inISR
  8301  001DA0  EC68  F014         	call	_XF_scheduleTimer	;wreg free
  8302  001DA4  0060  F213  FFD9   	movff	XF_pushEvent@tmid,fsr2l
  8303  001DAA  0060  F217  FFDA   	movff	XF_pushEvent@tmid+1,fsr2h
  8304  001DB0  6EDF               	movwf	indf2,c
  8305                           
  8306                           ;xf/xf.c: 106:     }
  8307  001DB2  EF1D  F00F         	goto	l4181
  8308  001DB6                     l4163:
  8309                           
  8310                           ; BSR set to: 0
  8311                           ;xf/xf.c: 108:     {;xf/xf.c: 109:         ENTERCRITICAL(inISR);
  8312  001DB6  5183               	movf	XF_pushEvent@inISR& (0+255),w,b
  8313  001DB8  EC16  F01A         	call	_ENTERCRITICAL
  8314  001DBC                     
  8315                           ;xf/xf.c: 111:         temp = (theXF.in+1) % (uint8_t)(sizeof(theXF.eventQueue) / sizeof
      +                          (Event));
  8316  001DBC  0060  FC94  F086   	movff	_theXF+316,??_XF_pushEvent
  8317  001DC2  0E01               	movlw	1
  8318  001DC4  0100               	movlb	0	; () banked
  8319  001DC6  2586               	addwf	??_XF_pushEvent& (0+255),w,b
  8320  001DC8  6F60               	movwf	___awmod@dividend& (0+255),b
  8321  001DCA  6B61               	clrf	(___awmod@dividend+1)& (0+255),b
  8322  001DCC  0E00               	movlw	0
  8323  001DCE  2361               	addwfc	(___awmod@dividend+1)& (0+255),f,b
  8324  001DD0  0E00               	movlw	0
  8325  001DD2  6F63               	movwf	(___awmod@divisor+1)& (0+255),b
  8326  001DD4  0E0C               	movlw	12
  8327  001DD6  6F62               	movwf	___awmod@divisor& (0+255),b
  8328  001DD8  EC8D  F011         	call	___awmod	;wreg free
  8329  001DDC  0100               	movlb	0	; () banked
  8330  001DDE  5160               	movf	?___awmod& (0+255),w,b
  8331  001DE0  6F89               	movwf	XF_pushEvent@temp& (0+255),b
  8332  001DE2                     
  8333                           ; BSR set to: 0
  8334                           ;xf/xf.c: 112:         if(temp == theXF.out)
  8335  001DE2  EE20  F326         	lfsr	2,_theXF+317
  8336  001DE6  5189               	movf	XF_pushEvent@temp& (0+255),w,b
  8337  001DE8  18DE               	xorwf	postinc2,w,c
  8338  001DEA  A4D8               	btfss	status,2,c
  8339  001DEC  EFFA  F00E         	goto	u1811
  8340  001DF0  EFFC  F00E         	goto	u1810
  8341  001DF4                     u1811:
  8342  001DF4  EF02  F00F         	goto	l4175
  8343  001DF8                     u1810:
  8344  001DF8                     
  8345                           ; BSR set to: 0
  8346                           ;xf/xf.c: 113:         {;xf/xf.c: 114:           LEAVECRITICAL(inISR);
  8347  001DF8  5183               	movf	XF_pushEvent@inISR& (0+255),w,b
  8348  001DFA  EC09  F01A         	call	_LEAVECRITICAL
  8349  001DFE                     
  8350                           ;xf/xf.c: 115:           return 0;
  8351  001DFE  0E00               	movlw	0
  8352  001E00  EF1E  F00F         	goto	l1150
  8353  001E04                     l4175:
  8354                           
  8355                           ; BSR set to: 0
  8356                           ;xf/xf.c: 117:         theXF.eventQueue[theXF.in] = ev;
  8357  001E04  EE20  F074         	lfsr	2,XF_pushEvent@ev
  8358  001E08  0060  FC94  F086   	movff	_theXF+316,??_XF_pushEvent
  8359  001E0E  5186               	movf	??_XF_pushEvent& (0+255),w,b
  8360  001E10  0D0F               	mullw	15
  8361  001E12  0E71               	movlw	low (_theXF+136)
  8362  001E14  24F3               	addwf	243,w,c
  8363  001E16  6EE1               	movwf	fsr1l,c
  8364  001E18  0E02               	movlw	high (_theXF+136)
  8365  001E1A  20F4               	addwfc	prodh,w,c
  8366  001E1C  6EE2               	movwf	fsr1h,c
  8367  001E1E  0E0E               	movlw	14
  8368  001E20                     u1821:
  8369  001E20  006F FF6F FFE3     	movff	plusw2,plusw1
  8370  001E26  06E8               	decf	wreg,f,c
  8371  001E28  E2FB               	bc	u1821
  8372  001E2A                     
  8373                           ; BSR set to: 0
  8374                           ;xf/xf.c: 118:         theXF.in = temp;
  8375  001E2A  EE20  F325         	lfsr	2,_theXF+316
  8376  001E2E  0060  F227  FFDF   	movff	XF_pushEvent@temp,indf2
  8377  001E34                     
  8378                           ; BSR set to: 0
  8379                           ;xf/xf.c: 119:         LEAVECRITICAL(inISR);
  8380  001E34  5183               	movf	XF_pushEvent@inISR& (0+255),w,b
  8381  001E36  EC09  F01A         	call	_LEAVECRITICAL
  8382  001E3A                     l4181:
  8383                           
  8384                           ;xf/xf.c: 121:     return 1;
  8385  001E3A  0E01               	movlw	1
  8386  001E3C                     l1150:
  8387  001E3C  0012               	return		;funcret
  8388  001E3E                     __end_of_XF_pushEvent:
  8389                           	callstack 0
  8390                           
  8391 ;; *************** function ___awmod *****************
  8392 ;; Defined at:
  8393 ;;		line 7 in file "C:\Program Files\Microchip\xc8\v2.36\pic\sources\c99\common\awmod.c"
  8394 ;; Parameters:    Size  Location     Type
  8395 ;;  dividend        2    0[BANK0 ] int 
  8396 ;;  divisor         2    2[BANK0 ] int 
  8397 ;; Auto vars:     Size  Location     Type
  8398 ;;  sign            1    5[BANK0 ] unsigned char 
  8399 ;;  counter         1    4[BANK0 ] unsigned char 
  8400 ;; Return value:  Size  Location     Type
  8401 ;;                  2    0[BANK0 ] int 
  8402 ;; Registers used:
  8403 ;;		wreg, status,2, status,0
  8404 ;; Tracked objects:
  8405 ;;		On entry : 0/0
  8406 ;;		On exit  : 0/0
  8407 ;;		Unchanged: 0/0
  8408 ;; Data sizes:     COMRAM   BANK0   BANK1   BANK2   BANK3   BANK4   BANK5   BANK6   BANK7   BANK8   BANK9  BANK10  BANK1
      +1  BANK12  BANK13  BANK14  BANK15
  8409 ;;      Params:         0       4       0       0       0       0       0       0       0       0       0       0       
      +0       0       0       0       0
  8410 ;;      Locals:         0       2       0       0       0       0       0       0       0       0       0       0       
      +0       0       0       0       0
  8411 ;;      Temps:          0       0       0       0       0       0       0       0       0       0       0       0       
      +0       0       0       0       0
  8412 ;;      Totals:         0       6       0       0       0       0       0       0       0       0       0       0       
      +0       0       0       0       0
  8413 ;;Total ram usage:        6 bytes
  8414 ;; Hardware stack levels used: 1
  8415 ;; Hardware stack levels required when called: 6
  8416 ;; This function calls:
  8417 ;;		Nothing
  8418 ;; This function is called by:
  8419 ;;		_XF_pushEvent
  8420 ;;		_XF_popEvent
  8421 ;; This function uses a non-reentrant model
  8422 ;;
  8423                           
  8424                           	psect	text44
  8425  00231A                     __ptext44:
  8426                           	callstack 0
  8427  00231A                     ___awmod:
  8428                           	callstack 20
  8429  00231A  0E00               	movlw	0
  8430  00231C  0100               	movlb	0	; () banked
  8431  00231E  6F65               	movwf	___awmod@sign& (0+255),b
  8432  002320                     
  8433                           ; BSR set to: 0
  8434  002320  BF61               	btfsc	(___awmod@dividend+1)& (0+255),7,b
  8435  002322  EF97  F011         	goto	u1650
  8436  002326  EF95  F011         	goto	u1651
  8437  00232A                     u1651:
  8438  00232A  EF9D  F011         	goto	l4019
  8439  00232E                     u1650:
  8440  00232E                     
  8441                           ; BSR set to: 0
  8442  00232E  6D60               	negf	___awmod@dividend& (0+255),b
  8443  002330  1F61               	comf	(___awmod@dividend+1)& (0+255),f,b
  8444  002332  B0D8               	btfsc	status,0,c
  8445  002334  2B61               	incf	(___awmod@dividend+1)& (0+255),f,b
  8446  002336                     
  8447                           ; BSR set to: 0
  8448  002336  0E01               	movlw	1
  8449  002338  6F65               	movwf	___awmod@sign& (0+255),b
  8450  00233A                     l4019:
  8451                           
  8452                           ; BSR set to: 0
  8453  00233A  BF63               	btfsc	(___awmod@divisor+1)& (0+255),7,b
  8454  00233C  EFA4  F011         	goto	u1660
  8455  002340  EFA2  F011         	goto	u1661
  8456  002344                     u1661:
  8457  002344  EFA8  F011         	goto	l4023
  8458  002348                     u1660:
  8459  002348                     
  8460                           ; BSR set to: 0
  8461  002348  6D62               	negf	___awmod@divisor& (0+255),b
  8462  00234A  1F63               	comf	(___awmod@divisor+1)& (0+255),f,b
  8463  00234C  B0D8               	btfsc	status,0,c
  8464  00234E  2B63               	incf	(___awmod@divisor+1)& (0+255),f,b
  8465  002350                     l4023:
  8466                           
  8467                           ; BSR set to: 0
  8468  002350  5162               	movf	___awmod@divisor& (0+255),w,b
  8469  002352  1163               	iorwf	(___awmod@divisor+1)& (0+255),w,b
  8470  002354  B4D8               	btfsc	status,2,c
  8471  002356  EFAF  F011         	goto	u1671
  8472  00235A  EFB1  F011         	goto	u1670
  8473  00235E                     u1671:
  8474  00235E  EFD5  F011         	goto	l4039
  8475  002362                     u1670:
  8476  002362                     
  8477                           ; BSR set to: 0
  8478  002362  0E01               	movlw	1
  8479  002364  6F64               	movwf	___awmod@counter& (0+255),b
  8480  002366  EFB9  F011         	goto	l4029
  8481  00236A                     l4027:
  8482                           
  8483                           ; BSR set to: 0
  8484  00236A  90D8               	bcf	status,0,c
  8485  00236C  3762               	rlcf	___awmod@divisor& (0+255),f,b
  8486  00236E  3763               	rlcf	(___awmod@divisor+1)& (0+255),f,b
  8487  002370  2B64               	incf	___awmod@counter& (0+255),f,b
  8488  002372                     l4029:
  8489                           
  8490                           ; BSR set to: 0
  8491  002372  AF63               	btfss	(___awmod@divisor+1)& (0+255),7,b
  8492  002374  EFBE  F011         	goto	u1681
  8493  002378  EFC0  F011         	goto	u1680
  8494  00237C                     u1681:
  8495  00237C  EFB5  F011         	goto	l4027
  8496  002380                     u1680:
  8497  002380                     l4031:
  8498                           
  8499                           ; BSR set to: 0
  8500  002380  5162               	movf	___awmod@divisor& (0+255),w,b
  8501  002382  5D60               	subwf	___awmod@dividend& (0+255),w,b
  8502  002384  5163               	movf	(___awmod@divisor+1)& (0+255),w,b
  8503  002386  5961               	subwfb	(___awmod@dividend+1)& (0+255),w,b
  8504  002388  A0D8               	btfss	status,0,c
  8505  00238A  EFC9  F011         	goto	u1691
  8506  00238E  EFCB  F011         	goto	u1690
  8507  002392                     u1691:
  8508  002392  EFCF  F011         	goto	l4035
  8509  002396                     u1690:
  8510  002396                     
  8511                           ; BSR set to: 0
  8512  002396  5162               	movf	___awmod@divisor& (0+255),w,b
  8513  002398  5F60               	subwf	___awmod@dividend& (0+255),f,b
  8514  00239A  5163               	movf	(___awmod@divisor+1)& (0+255),w,b
  8515  00239C  5B61               	subwfb	(___awmod@dividend+1)& (0+255),f,b
  8516  00239E                     l4035:
  8517                           
  8518                           ; BSR set to: 0
  8519  00239E  90D8               	bcf	status,0,c
  8520  0023A0  3363               	rrcf	(___awmod@divisor+1)& (0+255),f,b
  8521  0023A2  3362               	rrcf	___awmod@divisor& (0+255),f,b
  8522  0023A4                     
  8523                           ; BSR set to: 0
  8524  0023A4  2F64               	decfsz	___awmod@counter& (0+255),f,b
  8525  0023A6  EFC0  F011         	goto	l4031
  8526  0023AA                     l4039:
  8527                           
  8528                           ; BSR set to: 0
  8529  0023AA  5165               	movf	___awmod@sign& (0+255),w,b
  8530  0023AC  B4D8               	btfsc	status,2,c
  8531  0023AE  EFDB  F011         	goto	u1701
  8532  0023B2  EFDD  F011         	goto	u1700
  8533  0023B6                     u1701:
  8534  0023B6  EFE1  F011         	goto	l4043
  8535  0023BA                     u1700:
  8536  0023BA                     
  8537                           ; BSR set to: 0
  8538  0023BA  6D60               	negf	___awmod@dividend& (0+255),b
  8539  0023BC  1F61               	comf	(___awmod@dividend+1)& (0+255),f,b
  8540  0023BE  B0D8               	btfsc	status,0,c
  8541  0023C0  2B61               	incf	(___awmod@dividend+1)& (0+255),f,b
  8542  0023C2                     l4043:
  8543                           
  8544                           ; BSR set to: 0
  8545  0023C2  C060  F060         	movff	___awmod@dividend,?___awmod
  8546  0023C6  C061  F061         	movff	___awmod@dividend+1,?___awmod+1
  8547  0023CA                     
  8548                           ; BSR set to: 0
  8549  0023CA  0012               	return		;funcret
  8550  0023CC                     __end_of___awmod:
  8551                           	callstack 0
  8552                           
  8553 ;; *************** function _XF_scheduleTimer *****************
  8554 ;; Defined at:
  8555 ;;		line 157 in file "xf/xf.c"
  8556 ;; Parameters:    Size  Location     Type
  8557 ;;  tm              2    1[BANK0 ] unsigned short 
  8558 ;;  ev             15    3[BANK0 ] struct Event_
  8559 ;;  inISR           1   18[BANK0 ] _Bool 
  8560 ;; Auto vars:     Size  Location     Type
  8561 ;;  i               1   19[BANK0 ] unsigned char 
  8562 ;; Return value:  Size  Location     Type
  8563 ;;                  1    wreg      unsigned char 
  8564 ;; Registers used:
  8565 ;;		wreg, fsr1l, fsr1h, fsr2l, fsr2h, status,2, status,0, prodl, prodh, cstack
  8566 ;; Tracked objects:
  8567 ;;		On entry : 0/0
  8568 ;;		On exit  : 0/0
  8569 ;;		Unchanged: 0/0
  8570 ;; Data sizes:     COMRAM   BANK0   BANK1   BANK2   BANK3   BANK4   BANK5   BANK6   BANK7   BANK8   BANK9  BANK10  BANK1
      +1  BANK12  BANK13  BANK14  BANK15
  8571 ;;      Params:         0      18       0       0       0       0       0       0       0       0       0       0       
      +0       0       0       0       0
  8572 ;;      Locals:         0       1       0       0       0       0       0       0       0       0       0       0       
      +0       0       0       0       0
  8573 ;;      Temps:          0       0       0       0       0       0       0       0       0       0       0       0       
      +0       0       0       0       0
  8574 ;;      Totals:         0      19       0       0       0       0       0       0       0       0       0       0       
      +0       0       0       0       0
  8575 ;;Total ram usage:       19 bytes
  8576 ;; Hardware stack levels used: 1
  8577 ;; Hardware stack levels required when called: 7
  8578 ;; This function calls:
  8579 ;;		_ENTERCRITICAL
  8580 ;;		_LEAVECRITICAL
  8581 ;; This function is called by:
  8582 ;;		_XF_pushEvent
  8583 ;; This function uses a non-reentrant model
  8584 ;;
  8585                           
  8586                           	psect	text45
  8587  0028D0                     __ptext45:
  8588                           	callstack 0
  8589  0028D0                     _XF_scheduleTimer:
  8590                           	callstack 19
  8591  0028D0                     
  8592                           ;xf/xf.c: 157: uint8_t XF_scheduleTimer(uint16_t tm, Event ev, _Bool inISR);xf/xf.c: 158
      +                          : {;xf/xf.c: 159:     uint8_t i;;xf/xf.c: 161:     ENTERCRITICAL(inISR);
  8593  0028D0  0100               	movlb	0	; () banked
  8594  0028D2  5172               	movf	XF_scheduleTimer@inISR& (0+255),w,b
  8595  0028D4  EC16  F01A         	call	_ENTERCRITICAL
  8596  0028D8                     
  8597                           ;xf/xf.c: 162:     for (i=0; i<8; i++)
  8598  0028D8  0E00               	movlw	0
  8599  0028DA  0100               	movlb	0	; () banked
  8600  0028DC  6F73               	movwf	XF_scheduleTimer@i& (0+255),b
  8601  0028DE                     l3995:
  8602                           
  8603                           ; BSR set to: 0
  8604                           ;xf/xf.c: 163:     {;xf/xf.c: 164:         if (theXF.timerList[i].ev.id == 0)
  8605  0028DE  5173               	movf	XF_scheduleTimer@i& (0+255),w,b
  8606  0028E0  0D11               	mullw	17
  8607  0028E2  0EEB               	movlw	low (_theXF+2)
  8608  0028E4  24F3               	addwf	243,w,c
  8609  0028E6  6ED9               	movwf	fsr2l,c
  8610  0028E8  0E01               	movlw	high (_theXF+2)
  8611  0028EA  20F4               	addwfc	prodh,w,c
  8612  0028EC  6EDA               	movwf	fsr2h,c
  8613  0028EE  50DF               	movf	indf2,w,c
  8614  0028F0  A4D8               	btfss	status,2,c
  8615  0028F2  EF7D  F014         	goto	u1621
  8616  0028F6  EF7F  F014         	goto	u1620
  8617  0028FA                     u1621:
  8618  0028FA  EF9F  F014         	goto	l4001
  8619  0028FE                     u1620:
  8620  0028FE                     
  8621                           ; BSR set to: 0
  8622                           ;xf/xf.c: 165:         {;xf/xf.c: 166:             theXF.timerList[i].tm = tm;
  8623  0028FE  5173               	movf	XF_scheduleTimer@i& (0+255),w,b
  8624  002900  0D11               	mullw	17
  8625  002902  0EE9               	movlw	low _theXF
  8626  002904  24F3               	addwf	243,w,c
  8627  002906  6ED9               	movwf	fsr2l,c
  8628  002908  0E01               	movlw	high _theXF
  8629  00290A  20F4               	addwfc	prodh,w,c
  8630  00290C  6EDA               	movwf	fsr2h,c
  8631  00290E  0060  F187  FFDE   	movff	XF_scheduleTimer@tm,postinc2
  8632  002914  0060  F18B  FFDD   	movff	XF_scheduleTimer@tm+1,postdec2
  8633  00291A                     
  8634                           ; BSR set to: 0
  8635                           ;xf/xf.c: 167:             theXF.timerList[i].ev = ev;
  8636  00291A  EE20  F063         	lfsr	2,XF_scheduleTimer@ev
  8637  00291E  5173               	movf	XF_scheduleTimer@i& (0+255),w,b
  8638  002920  0D11               	mullw	17
  8639  002922  0EEB               	movlw	low (_theXF+2)
  8640  002924  24F3               	addwf	243,w,c
  8641  002926  6EE1               	movwf	fsr1l,c
  8642  002928  0E01               	movlw	high (_theXF+2)
  8643  00292A  20F4               	addwfc	prodh,w,c
  8644  00292C  6EE2               	movwf	fsr1h,c
  8645  00292E  0E0E               	movlw	14
  8646  002930                     u1631:
  8647  002930  006F FF6F FFE3     	movff	plusw2,plusw1
  8648  002936  06E8               	decf	wreg,f,c
  8649  002938  E2FB               	bc	u1631
  8650                           
  8651                           ;xf/xf.c: 168:             break;
  8652  00293A  EFA8  F014         	goto	l4005
  8653  00293E                     l4001:
  8654                           
  8655                           ; BSR set to: 0
  8656                           ;xf/xf.c: 170:     }
  8657  00293E  2B73               	incf	XF_scheduleTimer@i& (0+255),f,b
  8658  002940                     
  8659                           ; BSR set to: 0
  8660  002940  0E07               	movlw	7
  8661  002942  6573               	cpfsgt	XF_scheduleTimer@i& (0+255),b
  8662  002944  EFA6  F014         	goto	u1641
  8663  002948  EFA8  F014         	goto	u1640
  8664  00294C                     u1641:
  8665  00294C  EF6F  F014         	goto	l3995
  8666  002950                     u1640:
  8667  002950                     l4005:
  8668                           
  8669                           ; BSR set to: 0
  8670                           ;xf/xf.c: 175:     LEAVECRITICAL(inISR);
  8671  002950  5172               	movf	XF_scheduleTimer@inISR& (0+255),w,b
  8672  002952  EC09  F01A         	call	_LEAVECRITICAL
  8673  002956                     
  8674                           ;xf/xf.c: 176:     return i;
  8675  002956  0100               	movlb	0	; () banked
  8676  002958  5173               	movf	XF_scheduleTimer@i& (0+255),w,b
  8677  00295A                     
  8678                           ; BSR set to: 0
  8679  00295A  0012               	return		;funcret
  8680  00295C                     __end_of_XF_scheduleTimer:
  8681                           	callstack 0
  8682                           
  8683 ;; *************** function _LEAVECRITICAL *****************
  8684 ;; Defined at:
  8685 ;;		line 248 in file "xf/xf.c"
  8686 ;; Parameters:    Size  Location     Type
  8687 ;;  inISR           1    wreg     _Bool 
  8688 ;; Auto vars:     Size  Location     Type
  8689 ;;  inISR           1    0[BANK0 ] _Bool 
  8690 ;; Return value:  Size  Location     Type
  8691 ;;                  1    wreg      void 
  8692 ;; Registers used:
  8693 ;;		wreg, status,2
  8694 ;; Tracked objects:
  8695 ;;		On entry : 0/0
  8696 ;;		On exit  : 0/0
  8697 ;;		Unchanged: 0/0
  8698 ;; Data sizes:     COMRAM   BANK0   BANK1   BANK2   BANK3   BANK4   BANK5   BANK6   BANK7   BANK8   BANK9  BANK10  BANK1
      +1  BANK12  BANK13  BANK14  BANK15
  8699 ;;      Params:         0       0       0       0       0       0       0       0       0       0       0       0       
      +0       0       0       0       0
  8700 ;;      Locals:         0       1       0       0       0       0       0       0       0       0       0       0       
      +0       0       0       0       0
  8701 ;;      Temps:          0       0       0       0       0       0       0       0       0       0       0       0       
      +0       0       0       0       0
  8702 ;;      Totals:         0       1       0       0       0       0       0       0       0       0       0       0       
      +0       0       0       0       0
  8703 ;;Total ram usage:        1 bytes
  8704 ;; Hardware stack levels used: 1
  8705 ;; Hardware stack levels required when called: 6
  8706 ;; This function calls:
  8707 ;;		Nothing
  8708 ;; This function is called by:
  8709 ;;		_XF_pushEvent
  8710 ;;		_XF_popEvent
  8711 ;;		_XF_scheduleTimer
  8712 ;; This function uses a non-reentrant model
  8713 ;;
  8714                           
  8715                           	psect	text46
  8716  003412                     __ptext46:
  8717                           	callstack 0
  8718  003412                     _LEAVECRITICAL:
  8719                           	callstack 19
  8720                           
  8721                           ; BSR set to: 0
  8722                           ;incstack = 0
  8723                           ;LEAVECRITICAL@inISR stored from wreg
  8724  003412  0100               	movlb	0	; () banked
  8725  003414  6F60               	movwf	LEAVECRITICAL@inISR& (0+255),b
  8726  003416                     
  8727                           ;xf/xf.c: 248: static void LEAVECRITICAL(_Bool inISR);xf/xf.c: 249: {;xf/xf.c: 250:     
      +                          if (inISR == 0)
  8728  003416  0100               	movlb	0	; () banked
  8729  003418  5160               	movf	LEAVECRITICAL@inISR& (0+255),w,b
  8730  00341A  A4D8               	btfss	status,2,c
  8731  00341C  EF12  F01A         	goto	u1611
  8732  003420  EF14  F01A         	goto	u1610
  8733  003424                     u1611:
  8734  003424  EF15  F01A         	goto	l1180
  8735  003428                     u1610:
  8736  003428                     
  8737                           ; BSR set to: 0
  8738                           ;xf/xf.c: 251:     {;xf/xf.c: 253:      (INTCON0bits.GIE = 1);
  8739  003428  8ED2               	bsf	210,7,c	;volatile
  8740  00342A                     l1180:
  8741                           
  8742                           ; BSR set to: 0
  8743  00342A  0012               	return		;funcret
  8744  00342C                     __end_of_LEAVECRITICAL:
  8745                           	callstack 0
  8746                           
  8747 ;; *************** function _ENTERCRITICAL *****************
  8748 ;; Defined at:
  8749 ;;		line 233 in file "xf/xf.c"
  8750 ;; Parameters:    Size  Location     Type
  8751 ;;  inISR           1    wreg     _Bool 
  8752 ;; Auto vars:     Size  Location     Type
  8753 ;;  inISR           1    0[BANK0 ] _Bool 
  8754 ;; Return value:  Size  Location     Type
  8755 ;;                  1    wreg      void 
  8756 ;; Registers used:
  8757 ;;		wreg, status,2
  8758 ;; Tracked objects:
  8759 ;;		On entry : 0/0
  8760 ;;		On exit  : 0/0
  8761 ;;		Unchanged: 0/0
  8762 ;; Data sizes:     COMRAM   BANK0   BANK1   BANK2   BANK3   BANK4   BANK5   BANK6   BANK7   BANK8   BANK9  BANK10  BANK1
      +1  BANK12  BANK13  BANK14  BANK15
  8763 ;;      Params:         0       0       0       0       0       0       0       0       0       0       0       0       
      +0       0       0       0       0
  8764 ;;      Locals:         0       1       0       0       0       0       0       0       0       0       0       0       
      +0       0       0       0       0
  8765 ;;      Temps:          0       0       0       0       0       0       0       0       0       0       0       0       
      +0       0       0       0       0
  8766 ;;      Totals:         0       1       0       0       0       0       0       0       0       0       0       0       
      +0       0       0       0       0
  8767 ;;Total ram usage:        1 bytes
  8768 ;; Hardware stack levels used: 1
  8769 ;; Hardware stack levels required when called: 6
  8770 ;; This function calls:
  8771 ;;		Nothing
  8772 ;; This function is called by:
  8773 ;;		_XF_pushEvent
  8774 ;;		_XF_popEvent
  8775 ;;		_XF_scheduleTimer
  8776 ;; This function uses a non-reentrant model
  8777 ;;
  8778                           
  8779                           	psect	text47
  8780  00342C                     __ptext47:
  8781                           	callstack 0
  8782  00342C                     _ENTERCRITICAL:
  8783                           	callstack 19
  8784                           
  8785                           ; BSR set to: 0
  8786                           ;incstack = 0
  8787                           ;ENTERCRITICAL@inISR stored from wreg
  8788  00342C  0100               	movlb	0	; () banked
  8789  00342E  6F60               	movwf	ENTERCRITICAL@inISR& (0+255),b
  8790  003430                     
  8791                           ;xf/xf.c: 233: static void ENTERCRITICAL(_Bool inISR);xf/xf.c: 234: {;xf/xf.c: 235:     
      +                          if (inISR == 0)
  8792  003430  0100               	movlb	0	; () banked
  8793  003432  5160               	movf	ENTERCRITICAL@inISR& (0+255),w,b
  8794  003434  A4D8               	btfss	status,2,c
  8795  003436  EF1F  F01A         	goto	u1601
  8796  00343A  EF21  F01A         	goto	u1600
  8797  00343E                     u1601:
  8798  00343E  EF22  F01A         	goto	l1176
  8799  003442                     u1600:
  8800  003442                     
  8801                           ; BSR set to: 0
  8802                           ;xf/xf.c: 236:     {;xf/xf.c: 238:       (INTCON0bits.GIE = 0);
  8803  003442  9ED2               	bcf	210,7,c	;volatile
  8804  003444                     l1176:
  8805                           
  8806                           ; BSR set to: 0
  8807  003444  0012               	return		;funcret
  8808  003446                     __end_of_ENTERCRITICAL:
  8809                           	callstack 0
  8810                           
  8811 ;; *************** function _Event_setDelay *****************
  8812 ;; Defined at:
  8813 ;;		line 53 in file "xf/event.c"
  8814 ;; Parameters:    Size  Location     Type
  8815 ;;  me              2    0[BANK0 ] PTR struct Event_
  8816 ;;		 -> POST@ev(15), XF_pushEvent@ev(15), 
  8817 ;;  delay           2    2[BANK0 ] unsigned short 
  8818 ;; Auto vars:     Size  Location     Type
  8819 ;;		None
  8820 ;; Return value:  Size  Location     Type
  8821 ;;                  1    wreg      void 
  8822 ;; Registers used:
  8823 ;;		wreg, fsr2l, fsr2h, status,2, status,0
  8824 ;; Tracked objects:
  8825 ;;		On entry : 0/0
  8826 ;;		On exit  : 0/0
  8827 ;;		Unchanged: 0/0
  8828 ;; Data sizes:     COMRAM   BANK0   BANK1   BANK2   BANK3   BANK4   BANK5   BANK6   BANK7   BANK8   BANK9  BANK10  BANK1
      +1  BANK12  BANK13  BANK14  BANK15
  8829 ;;      Params:         0       4       0       0       0       0       0       0       0       0       0       0       
      +0       0       0       0       0
  8830 ;;      Locals:         0       0       0       0       0       0       0       0       0       0       0       0       
      +0       0       0       0       0
  8831 ;;      Temps:          0       0       0       0       0       0       0       0       0       0       0       0       
      +0       0       0       0       0
  8832 ;;      Totals:         0       4       0       0       0       0       0       0       0       0       0       0       
      +0       0       0       0       0
  8833 ;;Total ram usage:        4 bytes
  8834 ;; Hardware stack levels used: 1
  8835 ;; Hardware stack levels required when called: 6
  8836 ;; This function calls:
  8837 ;;		Nothing
  8838 ;; This function is called by:
  8839 ;;		_XF_pushEvent
  8840 ;;		_POST
  8841 ;; This function uses a non-reentrant model
  8842 ;;
  8843                           
  8844                           	psect	text48
  8845  0033A2                     __ptext48:
  8846                           	callstack 0
  8847  0033A2                     _Event_setDelay:
  8848                           	callstack 20
  8849  0033A2                     
  8850                           ;xf/event.c: 53: void Event_setDelay(Event* me, uint16_t delay);xf/event.c: 54: {;xf/eve
      +                          nt.c: 55:     me->delay = delay;
  8851  0033A2  0100               	movlb	0	; () banked
  8852  0033A4  EE20 F005          	lfsr	2,5
  8853  0033A8  5160               	movf	Event_setDelay@me& (0+255),w,b
  8854  0033AA  26D9               	addwf	fsr2l,f,c
  8855  0033AC  5161               	movf	(Event_setDelay@me+1)& (0+255),w,b
  8856  0033AE  22DA               	addwfc	fsr2h,f,c
  8857  0033B0  0060  F18B  FFDE   	movff	Event_setDelay@delay,postinc2
  8858  0033B6  0060  F18F  FFDD   	movff	Event_setDelay@delay+1,postdec2
  8859  0033BC                     
  8860                           ; BSR set to: 0
  8861  0033BC  0012               	return		;funcret
  8862  0033BE                     __end_of_Event_setDelay:
  8863                           	callstack 0
  8864                           
  8865 ;; *************** function _Event_getDelay *****************
  8866 ;; Defined at:
  8867 ;;		line 58 in file "xf/event.c"
  8868 ;; Parameters:    Size  Location     Type
  8869 ;;  me              2    0[BANK0 ] PTR struct Event_
  8870 ;;		 -> XF_pushEvent@ev(15), 
  8871 ;; Auto vars:     Size  Location     Type
  8872 ;;		None
  8873 ;; Return value:  Size  Location     Type
  8874 ;;                  2    0[BANK0 ] unsigned short 
  8875 ;; Registers used:
  8876 ;;		wreg, fsr2l, fsr2h, status,2, status,0
  8877 ;; Tracked objects:
  8878 ;;		On entry : 0/0
  8879 ;;		On exit  : 0/0
  8880 ;;		Unchanged: 0/0
  8881 ;; Data sizes:     COMRAM   BANK0   BANK1   BANK2   BANK3   BANK4   BANK5   BANK6   BANK7   BANK8   BANK9  BANK10  BANK1
      +1  BANK12  BANK13  BANK14  BANK15
  8882 ;;      Params:         0       2       0       0       0       0       0       0       0       0       0       0       
      +0       0       0       0       0
  8883 ;;      Locals:         0       0       0       0       0       0       0       0       0       0       0       0       
      +0       0       0       0       0
  8884 ;;      Temps:          0       0       0       0       0       0       0       0       0       0       0       0       
      +0       0       0       0       0
  8885 ;;      Totals:         0       2       0       0       0       0       0       0       0       0       0       0       
      +0       0       0       0       0
  8886 ;;Total ram usage:        2 bytes
  8887 ;; Hardware stack levels used: 1
  8888 ;; Hardware stack levels required when called: 6
  8889 ;; This function calls:
  8890 ;;		Nothing
  8891 ;; This function is called by:
  8892 ;;		_XF_pushEvent
  8893 ;; This function uses a non-reentrant model
  8894 ;;
  8895                           
  8896                           	psect	text49
  8897  0033BE                     __ptext49:
  8898                           	callstack 0
  8899  0033BE                     _Event_getDelay:
  8900                           	callstack 20
  8901  0033BE                     
  8902                           ;xf/event.c: 58: uint16_t Event_getDelay(Event* me);xf/event.c: 59: {;xf/event.c: 60:   
      +                            return me->delay;
  8903  0033BE  0100               	movlb	0	; () banked
  8904  0033C0  EE20 F005          	lfsr	2,5
  8905  0033C4  5160               	movf	Event_getDelay@me& (0+255),w,b
  8906  0033C6  26D9               	addwf	fsr2l,f,c
  8907  0033C8  5161               	movf	(Event_getDelay@me+1)& (0+255),w,b
  8908  0033CA  22DA               	addwfc	fsr2h,f,c
  8909  0033CC  006F FF78  F060    	movff	postinc2,?_Event_getDelay
  8910  0033D2  006F FF74  F061    	movff	postdec2,?_Event_getDelay+1
  8911  0033D8                     
  8912                           ; BSR set to: 0
  8913  0033D8  0012               	return		;funcret
  8914  0033DA                     __end_of_Event_getDelay:
  8915                           	callstack 0
  8916                           
  8917 ;; *************** function _Event_setTarget *****************
  8918 ;; Defined at:
  8919 ;;		line 28 in file "xf/event.c"
  8920 ;; Parameters:    Size  Location     Type
  8921 ;;  me              2    0[BANK0 ] PTR struct Event_
  8922 ;;		 -> POST@ev(15), 
  8923 ;;  target          2    2[BANK0 ] PTR void 
  8924 ;;		 -> theFactory.cc_(17), theFactory.bsm_(10), theFactory(233), NULL(0), 
  8925 ;; Auto vars:     Size  Location     Type
  8926 ;;		None
  8927 ;; Return value:  Size  Location     Type
  8928 ;;                  1    wreg      void 
  8929 ;; Registers used:
  8930 ;;		wreg, fsr2l, fsr2h, status,2, status,0
  8931 ;; Tracked objects:
  8932 ;;		On entry : 0/0
  8933 ;;		On exit  : 0/0
  8934 ;;		Unchanged: 0/0
  8935 ;; Data sizes:     COMRAM   BANK0   BANK1   BANK2   BANK3   BANK4   BANK5   BANK6   BANK7   BANK8   BANK9  BANK10  BANK1
      +1  BANK12  BANK13  BANK14  BANK15
  8936 ;;      Params:         0       4       0       0       0       0       0       0       0       0       0       0       
      +0       0       0       0       0
  8937 ;;      Locals:         0       0       0       0       0       0       0       0       0       0       0       0       
      +0       0       0       0       0
  8938 ;;      Temps:          0       0       0       0       0       0       0       0       0       0       0       0       
      +0       0       0       0       0
  8939 ;;      Totals:         0       4       0       0       0       0       0       0       0       0       0       0       
      +0       0       0       0       0
  8940 ;;Total ram usage:        4 bytes
  8941 ;; Hardware stack levels used: 1
  8942 ;; Hardware stack levels required when called: 6
  8943 ;; This function calls:
  8944 ;;		Nothing
  8945 ;; This function is called by:
  8946 ;;		_POST
  8947 ;; This function uses a non-reentrant model
  8948 ;;
  8949                           
  8950                           	psect	text50
  8951  0033DA                     __ptext50:
  8952                           	callstack 0
  8953  0033DA                     _Event_setTarget:
  8954                           	callstack 21
  8955  0033DA                     
  8956                           ;xf/event.c: 28: void Event_setTarget(Event* me, void* target);xf/event.c: 29: {;xf/even
      +                          t.c: 30:     me->target = target;
  8957  0033DA  0100               	movlb	0	; () banked
  8958  0033DC  EE20 F003          	lfsr	2,3
  8959  0033E0  5160               	movf	Event_setTarget@me& (0+255),w,b
  8960  0033E2  26D9               	addwf	fsr2l,f,c
  8961  0033E4  5161               	movf	(Event_setTarget@me+1)& (0+255),w,b
  8962  0033E6  22DA               	addwfc	fsr2h,f,c
  8963  0033E8  0060  F18B  FFDE   	movff	Event_setTarget@target,postinc2
  8964  0033EE  0060  F18F  FFDD   	movff	Event_setTarget@target+1,postdec2
  8965  0033F4                     
  8966                           ; BSR set to: 0
  8967  0033F4  0012               	return		;funcret
  8968  0033F6                     __end_of_Event_setTarget:
  8969                           	callstack 0
  8970                           
  8971 ;; *************** function _Event_setPE *****************
  8972 ;; Defined at:
  8973 ;;		line 23 in file "xf/event.c"
  8974 ;; Parameters:    Size  Location     Type
  8975 ;;  me              2    0[BANK0 ] PTR struct Event_
  8976 ;;		 -> POST@ev(15), 
  8977 ;;  processEvent    2    2[BANK0 ] PTR FTN(PTR struct Event
  8978 ;;		 -> factory_toggleLed(1), commControl_processEvent(1), ButtonSM_processEvent(1), 
  8979 ;; Auto vars:     Size  Location     Type
  8980 ;;		None
  8981 ;; Return value:  Size  Location     Type
  8982 ;;                  1    wreg      void 
  8983 ;; Registers used:
  8984 ;;		wreg, fsr2l, fsr2h, status,2, status,0
  8985 ;; Tracked objects:
  8986 ;;		On entry : 0/0
  8987 ;;		On exit  : 0/0
  8988 ;;		Unchanged: 0/0
  8989 ;; Data sizes:     COMRAM   BANK0   BANK1   BANK2   BANK3   BANK4   BANK5   BANK6   BANK7   BANK8   BANK9  BANK10  BANK1
      +1  BANK12  BANK13  BANK14  BANK15
  8990 ;;      Params:         0       4       0       0       0       0       0       0       0       0       0       0       
      +0       0       0       0       0
  8991 ;;      Locals:         0       0       0       0       0       0       0       0       0       0       0       0       
      +0       0       0       0       0
  8992 ;;      Temps:          0       0       0       0       0       0       0       0       0       0       0       0       
      +0       0       0       0       0
  8993 ;;      Totals:         0       4       0       0       0       0       0       0       0       0       0       0       
      +0       0       0       0       0
  8994 ;;Total ram usage:        4 bytes
  8995 ;; Hardware stack levels used: 1
  8996 ;; Hardware stack levels required when called: 6
  8997 ;; This function calls:
  8998 ;;		Nothing
  8999 ;; This function is called by:
  9000 ;;		_POST
  9001 ;; This function uses a non-reentrant model
  9002 ;;
  9003                           
  9004                           	psect	text51
  9005  0033F6                     __ptext51:
  9006                           	callstack 0
  9007  0033F6                     _Event_setPE:
  9008                           	callstack 21
  9009  0033F6                     
  9010                           ;xf/event.c: 23: void Event_setPE(Event* me, processEventT processEvent);xf/event.c: 24:
      +                           {;xf/event.c: 25:     me->processEvent = processEvent;
  9011  0033F6  0100               	movlb	0	; () banked
  9012  0033F8  EE20 F001          	lfsr	2,1
  9013  0033FC  5160               	movf	Event_setPE@me& (0+255),w,b
  9014  0033FE  26D9               	addwf	fsr2l,f,c
  9015  003400  5161               	movf	(Event_setPE@me+1)& (0+255),w,b
  9016  003402  22DA               	addwfc	fsr2h,f,c
  9017  003404  0060  F18B  FFDE   	movff	Event_setPE@processEvent,postinc2
  9018  00340A  0060  F18F  FFDD   	movff	Event_setPE@processEvent+1,postdec2
  9019  003410                     
  9020                           ; BSR set to: 0
  9021  003410  0012               	return		;funcret
  9022  003412                     __end_of_Event_setPE:
  9023                           	callstack 0
  9024                           
  9025 ;; *************** function _Event_setId *****************
  9026 ;; Defined at:
  9027 ;;		line 43 in file "xf/event.c"
  9028 ;; Parameters:    Size  Location     Type
  9029 ;;  me              2    0[BANK0 ] PTR struct Event_
  9030 ;;		 -> POST@ev(15), 
  9031 ;;  eventID         1    2[BANK0 ] unsigned char 
  9032 ;; Auto vars:     Size  Location     Type
  9033 ;;		None
  9034 ;; Return value:  Size  Location     Type
  9035 ;;                  1    wreg      void 
  9036 ;; Registers used:
  9037 ;;		fsr2l, fsr2h
  9038 ;; Tracked objects:
  9039 ;;		On entry : 0/0
  9040 ;;		On exit  : 0/0
  9041 ;;		Unchanged: 0/0
  9042 ;; Data sizes:     COMRAM   BANK0   BANK1   BANK2   BANK3   BANK4   BANK5   BANK6   BANK7   BANK8   BANK9  BANK10  BANK1
      +1  BANK12  BANK13  BANK14  BANK15
  9043 ;;      Params:         0       3       0       0       0       0       0       0       0       0       0       0       
      +0       0       0       0       0
  9044 ;;      Locals:         0       0       0       0       0       0       0       0       0       0       0       0       
      +0       0       0       0       0
  9045 ;;      Temps:          0       0       0       0       0       0       0       0       0       0       0       0       
      +0       0       0       0       0
  9046 ;;      Totals:         0       3       0       0       0       0       0       0       0       0       0       0       
      +0       0       0       0       0
  9047 ;;Total ram usage:        3 bytes
  9048 ;; Hardware stack levels used: 1
  9049 ;; Hardware stack levels required when called: 6
  9050 ;; This function calls:
  9051 ;;		Nothing
  9052 ;; This function is called by:
  9053 ;;		_POST
  9054 ;; This function uses a non-reentrant model
  9055 ;;
  9056                           
  9057                           	psect	text52
  9058  0034BE                     __ptext52:
  9059                           	callstack 0
  9060  0034BE                     _Event_setId:
  9061                           	callstack 21
  9062  0034BE                     
  9063                           ;xf/event.c: 43: void Event_setId(Event* me, evIDT eventID);xf/event.c: 44: {;xf/event.c
      +                          : 45:     me->id = eventID;
  9064  0034BE  0060  F183  FFD9   	movff	Event_setId@me,fsr2l
  9065  0034C4  0060  F187  FFDA   	movff	Event_setId@me+1,fsr2h
  9066  0034CA  0060  F18B  FFDF   	movff	Event_setId@eventID,indf2
  9067  0034D0  0012               	return		;funcret
  9068  0034D2                     __end_of_Event_setId:
  9069                           	callstack 0
  9070                           
  9071 ;; *************** function _Event_setData *****************
  9072 ;; Defined at:
  9073 ;;		line 13 in file "xf/event.c"
  9074 ;; Parameters:    Size  Location     Type
  9075 ;;  me              2    0[BANK0 ] PTR struct Event_
  9076 ;;		 -> POST@ev(15), 
  9077 ;;  data            8    2[BANK0 ] long long 
  9078 ;; Auto vars:     Size  Location     Type
  9079 ;;		None
  9080 ;; Return value:  Size  Location     Type
  9081 ;;                  1    wreg      void 
  9082 ;; Registers used:
  9083 ;;		wreg, fsr2l, fsr2h, status,2, status,0
  9084 ;; Tracked objects:
  9085 ;;		On entry : 0/0
  9086 ;;		On exit  : 0/0
  9087 ;;		Unchanged: 0/0
  9088 ;; Data sizes:     COMRAM   BANK0   BANK1   BANK2   BANK3   BANK4   BANK5   BANK6   BANK7   BANK8   BANK9  BANK10  BANK1
      +1  BANK12  BANK13  BANK14  BANK15
  9089 ;;      Params:         0      10       0       0       0       0       0       0       0       0       0       0       
      +0       0       0       0       0
  9090 ;;      Locals:         0       0       0       0       0       0       0       0       0       0       0       0       
      +0       0       0       0       0
  9091 ;;      Temps:          0       0       0       0       0       0       0       0       0       0       0       0       
      +0       0       0       0       0
  9092 ;;      Totals:         0      10       0       0       0       0       0       0       0       0       0       0       
      +0       0       0       0       0
  9093 ;;Total ram usage:       10 bytes
  9094 ;; Hardware stack levels used: 1
  9095 ;; Hardware stack levels required when called: 6
  9096 ;; This function calls:
  9097 ;;		Nothing
  9098 ;; This function is called by:
  9099 ;;		_POST
  9100 ;; This function uses a non-reentrant model
  9101 ;;
  9102                           
  9103                           	psect	text53
  9104  0030B8                     __ptext53:
  9105                           	callstack 0
  9106  0030B8                     _Event_setData:
  9107                           	callstack 21
  9108  0030B8                     
  9109                           ;xf/event.c: 13: void Event_setData(Event* me, int64_t data);xf/event.c: 14: {;xf/event.
      +                          c: 15:     me->data = data;
  9110  0030B8  0100               	movlb	0	; () banked
  9111  0030BA  EE20 F007          	lfsr	2,7
  9112  0030BE  5160               	movf	Event_setData@me& (0+255),w,b
  9113  0030C0  26D9               	addwf	fsr2l,f,c
  9114  0030C2  5161               	movf	(Event_setData@me+1)& (0+255),w,b
  9115  0030C4  22DA               	addwfc	fsr2h,f,c
  9116  0030C6  0060  F18B  FFDE   	movff	Event_setData@data,postinc2
  9117  0030CC  0060  F18F  FFDE   	movff	Event_setData@data+1,postinc2
  9118  0030D2  0060  F193  FFDE   	movff	Event_setData@data+2,postinc2
  9119  0030D8  0060  F197  FFDE   	movff	Event_setData@data+3,postinc2
  9120  0030DE  0060  F19B  FFDE   	movff	Event_setData@data+4,postinc2
  9121  0030E4  0060  F19F  FFDE   	movff	Event_setData@data+5,postinc2
  9122  0030EA  0060  F1A3  FFDE   	movff	Event_setData@data+6,postinc2
  9123  0030F0  0060  F1A7  FFDE   	movff	Event_setData@data+7,postinc2
  9124  0030F6                     
  9125                           ; BSR set to: 0
  9126  0030F6  0012               	return		;funcret
  9127  0030F8                     __end_of_Event_setData:
  9128                           	callstack 0
  9129                           
  9130 ;; *************** function _Event_init *****************
  9131 ;; Defined at:
  9132 ;;		line 4 in file "xf/event.c"
  9133 ;; Parameters:    Size  Location     Type
  9134 ;;  me              2    6[BANK0 ] PTR struct Event_
  9135 ;;		 -> POST@ev(15), theXF.timerList(136), theXF.eventQueue(180), theXF(318), 
  9136 ;; Auto vars:     Size  Location     Type
  9137 ;;		None
  9138 ;; Return value:  Size  Location     Type
  9139 ;;                  1    wreg      void 
  9140 ;; Registers used:
  9141 ;;		wreg, fsr2l, fsr2h, status,2, status,0
  9142 ;; Tracked objects:
  9143 ;;		On entry : 0/0
  9144 ;;		On exit  : 0/0
  9145 ;;		Unchanged: 0/0
  9146 ;; Data sizes:     COMRAM   BANK0   BANK1   BANK2   BANK3   BANK4   BANK5   BANK6   BANK7   BANK8   BANK9  BANK10  BANK1
      +1  BANK12  BANK13  BANK14  BANK15
  9147 ;;      Params:         0       2       0       0       0       0       0       0       0       0       0       0       
      +0       0       0       0       0
  9148 ;;      Locals:         0       0       0       0       0       0       0       0       0       0       0       0       
      +0       0       0       0       0
  9149 ;;      Temps:          0       0       0       0       0       0       0       0       0       0       0       0       
      +0       0       0       0       0
  9150 ;;      Totals:         0       2       0       0       0       0       0       0       0       0       0       0       
      +0       0       0       0       0
  9151 ;;Total ram usage:        2 bytes
  9152 ;; Hardware stack levels used: 1
  9153 ;; Hardware stack levels required when called: 6
  9154 ;; This function calls:
  9155 ;;		Nothing
  9156 ;; This function is called by:
  9157 ;;		_XF_init
  9158 ;;		_POST
  9159 ;; This function uses a non-reentrant model
  9160 ;;
  9161                           
  9162                           	psect	text54
  9163  002D98                     __ptext54:
  9164                           	callstack 0
  9165  002D98                     _Event_init:
  9166                           	callstack 23
  9167  002D98                     
  9168                           ;xf/event.c: 4: void Event_init(struct Event_* me);xf/event.c: 5: {;xf/event.c: 6:     m
      +                          e->id = 0;
  9169  002D98  0060  F19B  FFD9   	movff	Event_init@me,fsr2l
  9170  002D9E  0060  F19F  FFDA   	movff	Event_init@me+1,fsr2h
  9171  002DA4  0E00               	movlw	0
  9172  002DA6  6EDF               	movwf	indf2,c
  9173  002DA8                     
  9174                           ;xf/event.c: 7:     me->delay = 0;
  9175  002DA8  0100               	movlb	0	; () banked
  9176  002DAA  EE20 F005          	lfsr	2,5
  9177  002DAE  5166               	movf	Event_init@me& (0+255),w,b
  9178  002DB0  26D9               	addwf	fsr2l,f,c
  9179  002DB2  5167               	movf	(Event_init@me+1)& (0+255),w,b
  9180  002DB4  22DA               	addwfc	fsr2h,f,c
  9181  002DB6  0E00               	movlw	0
  9182  002DB8  6EDE               	movwf	postinc2,c
  9183  002DBA  0E00               	movlw	0
  9184  002DBC  6EDD               	movwf	postdec2,c
  9185  002DBE                     
  9186                           ; BSR set to: 0
  9187                           ;xf/event.c: 8:     me->target = ((void*)(0));
  9188  002DBE  EE20 F003          	lfsr	2,3
  9189  002DC2  5166               	movf	Event_init@me& (0+255),w,b
  9190  002DC4  26D9               	addwf	fsr2l,f,c
  9191  002DC6  5167               	movf	(Event_init@me+1)& (0+255),w,b
  9192  002DC8  22DA               	addwfc	fsr2h,f,c
  9193  002DCA  0E00               	movlw	0
  9194  002DCC  6EDE               	movwf	postinc2,c
  9195  002DCE  0E00               	movlw	0
  9196  002DD0  6EDD               	movwf	postdec2,c
  9197  002DD2                     
  9198                           ; BSR set to: 0
  9199                           ;xf/event.c: 9:     me->data = 0x0;
  9200  002DD2  EE20 F007          	lfsr	2,7
  9201  002DD6  5166               	movf	Event_init@me& (0+255),w,b
  9202  002DD8  26D9               	addwf	fsr2l,f,c
  9203  002DDA  5167               	movf	(Event_init@me+1)& (0+255),w,b
  9204  002DDC  22DA               	addwfc	fsr2h,f,c
  9205  002DDE  0E07               	movlw	7
  9206  002DE0                     u1781:
  9207  002DE0  6ADE               	clrf	postinc2,c
  9208  002DE2  06E8               	decf	wreg,f,c
  9209  002DE4  E2FD               	bc	u1781
  9210  002DE6                     
  9211                           ; BSR set to: 0
  9212                           ;xf/event.c: 10:     me->processEvent = ((void*)(0));
  9213  002DE6  EE20 F001          	lfsr	2,1
  9214  002DEA  5166               	movf	Event_init@me& (0+255),w,b
  9215  002DEC  26D9               	addwf	fsr2l,f,c
  9216  002DEE  5167               	movf	(Event_init@me+1)& (0+255),w,b
  9217  002DF0  22DA               	addwfc	fsr2h,f,c
  9218  002DF2  0E00               	movlw	0
  9219  002DF4  6EDE               	movwf	postinc2,c
  9220  002DF6  0E00               	movlw	0
  9221  002DF8  6EDD               	movwf	postdec2,c
  9222  002DFA                     
  9223                           ; BSR set to: 0
  9224  002DFA  0012               	return		;funcret
  9225  002DFC                     __end_of_Event_init:
  9226                           	callstack 0
  9227                           
  9228 ;; *************** function _Button_read *****************
  9229 ;; Defined at:
  9230 ;;		line 22 in file "board/button/button.c"
  9231 ;; Parameters:    Size  Location     Type
  9232 ;;  me              2    0[BANK0 ] PTR struct Button_
  9233 ;;		 -> theFactory(233), 
  9234 ;; Auto vars:     Size  Location     Type
  9235 ;;  value           1    4[BANK0 ] unsigned char 
  9236 ;; Return value:  Size  Location     Type
  9237 ;;                  1    wreg      unsigned char 
  9238 ;; Registers used:
  9239 ;;		wreg, fsr2l, fsr2h, status,2, status,0
  9240 ;; Tracked objects:
  9241 ;;		On entry : 0/0
  9242 ;;		On exit  : 0/0
  9243 ;;		Unchanged: 0/0
  9244 ;; Data sizes:     COMRAM   BANK0   BANK1   BANK2   BANK3   BANK4   BANK5   BANK6   BANK7   BANK8   BANK9  BANK10  BANK1
      +1  BANK12  BANK13  BANK14  BANK15
  9245 ;;      Params:         0       2       0       0       0       0       0       0       0       0       0       0       
      +0       0       0       0       0
  9246 ;;      Locals:         0       1       0       0       0       0       0       0       0       0       0       0       
      +0       0       0       0       0
  9247 ;;      Temps:          0       2       0       0       0       0       0       0       0       0       0       0       
      +0       0       0       0       0
  9248 ;;      Totals:         0       5       0       0       0       0       0       0       0       0       0       0       
      +0       0       0       0       0
  9249 ;;Total ram usage:        5 bytes
  9250 ;; Hardware stack levels used: 1
  9251 ;; Hardware stack levels required when called: 6
  9252 ;; This function calls:
  9253 ;;		Nothing
  9254 ;; This function is called by:
  9255 ;;		_ButtonSM_processEvent
  9256 ;;		_ButtonSM_startBehaviour
  9257 ;; This function uses a non-reentrant model
  9258 ;;
  9259                           
  9260                           	psect	text55
  9261  0020E8                     __ptext55:
  9262                           	callstack 0
  9263  0020E8                     _Button_read:
  9264                           	callstack 22
  9265  0020E8                     
  9266                           ;board/button/button.c: 22: uint8_t Button_read(Button* me);board/button/button.c: 23: {
      +                          ;board/button/button.c: 24:     uint8_t value = 0;
  9267  0020E8  0E00               	movlw	0
  9268  0020EA  0100               	movlb	0	; () banked
  9269  0020EC  6F64               	movwf	Button_read@value& (0+255),b
  9270                           
  9271                           ;board/button/button.c: 25:     switch (me->id)
  9272  0020EE  EF7F  F010         	goto	l4527
  9273  0020F2                     l4523:
  9274                           
  9275                           ; BSR set to: 0
  9276                           ;board/button/button.c: 28:             value = PORTCbits.RC3;
  9277  0020F2  0E00               	movlw	0
  9278  0020F4  B6CC               	btfsc	204,3,c	;volatile
  9279  0020F6  0E01               	movlw	1
  9280  0020F8  6F64               	movwf	Button_read@value& (0+255),b
  9281                           
  9282                           ;board/button/button.c: 29:         break;
  9283  0020FA  EFBA  F010         	goto	l4529
  9284  0020FE                     l4527:
  9285                           
  9286                           ; BSR set to: 0
  9287  0020FE  0060  F183  FFD9   	movff	Button_read@me,fsr2l
  9288  002104  0060  F187  FFDA   	movff	Button_read@me+1,fsr2h
  9289  00210A  50DF               	movf	indf2,w,c
  9290  00210C  6F62               	movwf	??_Button_read& (0+255),b
  9291  00210E  6B63               	clrf	(??_Button_read+1)& (0+255),b
  9292                           
  9293                           ; Switch on 2 bytes has been partitioned into a top level switch of size 1, and 1 sub-sw
      +                          itches
  9294                           ; Switch size 1, requested type "simple"
  9295                           ; Number of cases is 1, Range of values is 0 to 0
  9296                           ; switch strategies available:
  9297                           ; Name         Instructions Cycles
  9298                           ; simple_byte            4     3 (average)
  9299                           ;	Chosen strategy is simple_byte
  9300  002110  5163               	movf	(??_Button_read+1)& (0+255),w,b
  9301  002112  0A00               	xorlw	0	; case 0
  9302  002114  B4D8               	btfsc	status,2,c
  9303  002116  EF8F  F010         	goto	l6055
  9304  00211A  EFBA  F010         	goto	l4529
  9305  00211E                     l6055:
  9306                           
  9307                           ; BSR set to: 0
  9308                           ; Switch size 1, requested type "simple"
  9309                           ; Number of cases is 10, Range of values is 1 to 10
  9310                           ; switch strategies available:
  9311                           ; Name         Instructions Cycles
  9312                           ; simple_byte           31    16 (average)
  9313                           ;	Chosen strategy is simple_byte
  9314  00211E  5162               	movf	??_Button_read& (0+255),w,b
  9315  002120  0A01               	xorlw	1	; case 1
  9316  002122  B4D8               	btfsc	status,2,c
  9317  002124  EF79  F010         	goto	l4523
  9318  002128  0A03               	xorlw	3	; case 2
  9319  00212A  B4D8               	btfsc	status,2,c
  9320  00212C  EFBA  F010         	goto	l4529
  9321  002130  0A01               	xorlw	1	; case 3
  9322  002132  B4D8               	btfsc	status,2,c
  9323  002134  EFBA  F010         	goto	l4529
  9324  002138  0A07               	xorlw	7	; case 4
  9325  00213A  B4D8               	btfsc	status,2,c
  9326  00213C  EFBA  F010         	goto	l4529
  9327  002140  0A01               	xorlw	1	; case 5
  9328  002142  B4D8               	btfsc	status,2,c
  9329  002144  EFBA  F010         	goto	l4529
  9330  002148  0A03               	xorlw	3	; case 6
  9331  00214A  B4D8               	btfsc	status,2,c
  9332  00214C  EFBA  F010         	goto	l4529
  9333  002150  0A01               	xorlw	1	; case 7
  9334  002152  B4D8               	btfsc	status,2,c
  9335  002154  EFBA  F010         	goto	l4529
  9336  002158  0A0F               	xorlw	15	; case 8
  9337  00215A  B4D8               	btfsc	status,2,c
  9338  00215C  EFBA  F010         	goto	l4529
  9339  002160  0A01               	xorlw	1	; case 9
  9340  002162  B4D8               	btfsc	status,2,c
  9341  002164  EFBA  F010         	goto	l4529
  9342  002168  0A03               	xorlw	3	; case 10
  9343  00216A  B4D8               	btfsc	status,2,c
  9344  00216C  EFBA  F010         	goto	l4529
  9345  002170  EFBA  F010         	goto	l4529
  9346  002174                     l4529:
  9347                           
  9348                           ; BSR set to: 0
  9349                           ;board/button/button.c: 49:     if (me->isPullUp == 1)
  9350  002174  EE20 F001          	lfsr	2,1
  9351  002178  5160               	movf	Button_read@me& (0+255),w,b
  9352  00217A  26D9               	addwf	fsr2l,f,c
  9353  00217C  5161               	movf	(Button_read@me+1)& (0+255),w,b
  9354  00217E  22DA               	addwfc	fsr2h,f,c
  9355  002180  04DE               	decf	postinc2,w,c
  9356  002182  A4D8               	btfss	status,2,c
  9357  002184  EFC6  F010         	goto	u2101
  9358  002188  EFC8  F010         	goto	u2100
  9359  00218C                     u2101:
  9360  00218C  EFD3  F010         	goto	l38
  9361  002190                     u2100:
  9362  002190                     
  9363                           ; BSR set to: 0
  9364                           ;board/button/button.c: 50:     {;board/button/button.c: 51:         value=value==0?1:0;
  9365  002190  5164               	movf	Button_read@value& (0+255),w,b
  9366  002192  B4D8               	btfsc	status,2,c
  9367  002194  EFCE  F010         	goto	u2111
  9368  002198  EFD1  F010         	goto	u2110
  9369  00219C                     u2111:
  9370  00219C  0E01               	movlw	1
  9371  00219E  EFD2  F010         	goto	u2120
  9372  0021A2                     u2110:
  9373  0021A2  0E00               	movlw	0
  9374  0021A4                     u2120:
  9375  0021A4  6F64               	movwf	Button_read@value& (0+255),b
  9376  0021A6                     l38:
  9377                           
  9378                           ; BSR set to: 0
  9379                           ;board/button/button.c: 53:     return value;
  9380  0021A6  5164               	movf	Button_read@value& (0+255),w,b
  9381  0021A8                     
  9382                           ; BSR set to: 0
  9383  0021A8  0012               	return		;funcret
  9384  0021AA                     __end_of_Button_read:
  9385                           	callstack 0
  9386                           
  9387 ;; *************** function _Factory_init *****************
  9388 ;; Defined at:
  9389 ;;		line 42 in file "factory/factory.c"
  9390 ;; Parameters:    Size  Location     Type
  9391 ;;		None
  9392 ;; Auto vars:     Size  Location     Type
  9393 ;;		None
  9394 ;; Return value:  Size  Location     Type
  9395 ;;                  1    wreg      void 
  9396 ;; Registers used:
  9397 ;;		wreg, fsr2l, fsr2h, status,2, status,0, prodl, prodh, cstack
  9398 ;; Tracked objects:
  9399 ;;		On entry : 0/0
  9400 ;;		On exit  : 0/0
  9401 ;;		Unchanged: 0/0
  9402 ;; Data sizes:     COMRAM   BANK0   BANK1   BANK2   BANK3   BANK4   BANK5   BANK6   BANK7   BANK8   BANK9  BANK10  BANK1
      +1  BANK12  BANK13  BANK14  BANK15
  9403 ;;      Params:         0       0       0       0       0       0       0       0       0       0       0       0       
      +0       0       0       0       0
  9404 ;;      Locals:         0       0       0       0       0       0       0       0       0       0       0       0       
      +0       0       0       0       0
  9405 ;;      Temps:          0       0       0       0       0       0       0       0       0       0       0       0       
      +0       0       0       0       0
  9406 ;;      Totals:         0       0       0       0       0       0       0       0       0       0       0       0       
      +0       0       0       0       0
  9407 ;;Total ram usage:        0 bytes
  9408 ;; Hardware stack levels used: 1
  9409 ;; Hardware stack levels required when called: 8
  9410 ;; This function calls:
  9411 ;;		_BLControl_init
  9412 ;;		_ButtonSM_init
  9413 ;;		_Button_init
  9414 ;;		_Button_initHW
  9415 ;;		_LED_init
  9416 ;;		_LED_initHW
  9417 ;;		_b
  9418 ;;		_blc
  9419 ;;		_bsm
  9420 ;;		_cc
  9421 ;;		_commControl_init
  9422 ;;		_l
  9423 ;;		_sepos
  9424 ;;		_sepos_init
  9425 ;;		_st
  9426 ;;		_store_init
  9427 ;; This function is called by:
  9428 ;;		_main
  9429 ;; This function uses a non-reentrant model
  9430 ;;
  9431                           
  9432                           	psect	text56
  9433  00247C                     __ptext56:
  9434                           	callstack 0
  9435  00247C                     _Factory_init:
  9436                           	callstack 22
  9437  00247C                     
  9438                           ;factory/factory.c: 44:     LED_init(l(),1);
  9439  00247C  EC96  F01A         	call	_l	;wreg free
  9440  002480  C060  F062         	movff	?_l,LED_init@me
  9441  002484  C061  F063         	movff	?_l+1,LED_init@me+1
  9442  002488  0E01               	movlw	1
  9443  00248A  0100               	movlb	0	; () banked
  9444  00248C  6F64               	movwf	LED_init@id& (0+255),b
  9445  00248E  EC69  F01A         	call	_LED_init	;wreg free
  9446                           
  9447                           ;factory/factory.c: 45:     LED_initHW(l());
  9448  002492  EC96  F01A         	call	_l	;wreg free
  9449  002496  C060  F066         	movff	?_l,LED_initHW@me
  9450  00249A  C061  F067         	movff	?_l+1,LED_initHW@me+1
  9451  00249E  EC83  F01A         	call	_LED_initHW	;wreg free
  9452                           
  9453                           ;factory/factory.c: 46:     Button_init(b(),1, 1);
  9454  0024A2  ECA2  F01A         	call	_b	;wreg free
  9455  0024A6  C060  F062         	movff	?_b,Button_init@me
  9456  0024AA  C061  F063         	movff	?_b+1,Button_init@me+1
  9457  0024AE  0E01               	movlw	1
  9458  0024B0  0100               	movlb	0	; () banked
  9459  0024B2  6F64               	movwf	Button_init@id& (0+255),b
  9460  0024B4  0E01               	movlw	1
  9461  0024B6  6F65               	movwf	Button_init@isPullUp& (0+255),b
  9462  0024B8  EC65  F019         	call	_Button_init	;wreg free
  9463  0024BC                     
  9464                           ;factory/factory.c: 47:     Button_initHW(b());
  9465  0024BC  ECA2  F01A         	call	_b	;wreg free
  9466  0024C0  C060  F062         	movff	?_b,Button_initHW@me
  9467  0024C4  C061  F063         	movff	?_b+1,Button_initHW@me+1
  9468  0024C8  ECCB  F01A         	call	_Button_initHW	;wreg free
  9469  0024CC                     
  9470                           ;factory/factory.c: 48:     ButtonSM_init(bsm(),b());
  9471  0024CC  ECA8  F01A         	call	_bsm	;wreg free
  9472  0024D0  C060  F062         	movff	?_bsm,ButtonSM_init@me
  9473  0024D4  C061  F063         	movff	?_bsm+1,ButtonSM_init@me+1
  9474  0024D8  ECA2  F01A         	call	_b	;wreg free
  9475  0024DC  C060  F064         	movff	?_b,ButtonSM_init@button
  9476  0024E0  C061  F065         	movff	?_b+1,ButtonSM_init@button+1
  9477  0024E4  ECFE  F016         	call	_ButtonSM_init	;wreg free
  9478                           
  9479                           ;factory/factory.c: 49:     BLControl_init(blc());
  9480  0024E8  ECAE  F01A         	call	_blc	;wreg free
  9481  0024EC  C060  F062         	movff	?_blc,BLControl_init@me
  9482  0024F0  C061  F063         	movff	?_blc+1,BLControl_init@me+1
  9483  0024F4  ECCC  F01A         	call	_BLControl_init	;wreg free
  9484  0024F8                     
  9485                           ;factory/factory.c: 50:     commControl_init(cc());
  9486  0024F8  EC9C  F01A         	call	_cc	;wreg free
  9487  0024FC  C060  F062         	movff	?_cc,commControl_init@me
  9488  002500  C061  F063         	movff	?_cc+1,commControl_init@me+1
  9489  002504  EC3A  F018         	call	_commControl_init	;wreg free
  9490  002508                     
  9491                           ;factory/factory.c: 51:     store_init(st());
  9492  002508  EC8A  F01A         	call	_st	;wreg free
  9493  00250C  C060  F064         	movff	?_st,store_init@me
  9494  002510  C061  F065         	movff	?_st+1,store_init@me+1
  9495  002514  EC07  F00E         	call	_store_init	;wreg free
  9496  002518                     
  9497                           ;factory/factory.c: 52:     sepos_init(sepos());
  9498  002518  EC90  F01A         	call	_sepos	;wreg free
  9499  00251C  C060  F062         	movff	?_sepos,sepos_init@me
  9500  002520  C061  F063         	movff	?_sepos+1,sepos_init@me+1
  9501  002524  EC95  F012         	call	_sepos_init	;wreg free
  9502  002528  0012               	return		;funcret
  9503  00252A                     __end_of_Factory_init:
  9504                           	callstack 0
  9505                           
  9506 ;; *************** function _store_init *****************
  9507 ;; Defined at:
  9508 ;;		line 3 in file "driveControl/store.c"
  9509 ;; Parameters:    Size  Location     Type
  9510 ;;  me              2    4[BANK0 ] PTR struct Store_
  9511 ;;		 -> theFactory.st_(5), theFactory(233), 
  9512 ;; Auto vars:     Size  Location     Type
  9513 ;;		None
  9514 ;; Return value:  Size  Location     Type
  9515 ;;                  1    wreg      void 
  9516 ;; Registers used:
  9517 ;;		wreg, fsr2l, fsr2h, status,2, status,0, cstack
  9518 ;; Tracked objects:
  9519 ;;		On entry : 0/0
  9520 ;;		On exit  : 0/0
  9521 ;;		Unchanged: 0/0
  9522 ;; Data sizes:     COMRAM   BANK0   BANK1   BANK2   BANK3   BANK4   BANK5   BANK6   BANK7   BANK8   BANK9  BANK10  BANK1
      +1  BANK12  BANK13  BANK14  BANK15
  9523 ;;      Params:         0       2       0       0       0       0       0       0       0       0       0       0       
      +0       0       0       0       0
  9524 ;;      Locals:         0       0       0       0       0       0       0       0       0       0       0       0       
      +0       0       0       0       0
  9525 ;;      Temps:          0       0       0       0       0       0       0       0       0       0       0       0       
      +0       0       0       0       0
  9526 ;;      Totals:         0       2       0       0       0       0       0       0       0       0       0       0       
      +0       0       0       0       0
  9527 ;;Total ram usage:        2 bytes
  9528 ;; Hardware stack levels used: 1
  9529 ;; Hardware stack levels required when called: 7
  9530 ;; This function calls:
  9531 ;;		_DATAEE_ReadByte
  9532 ;;		_DATAEE_WriteByte
  9533 ;; This function is called by:
  9534 ;;		_Factory_init
  9535 ;; This function uses a non-reentrant model
  9536 ;;
  9537                           
  9538                           	psect	text57
  9539  001C0E                     __ptext57:
  9540                           	callstack 0
  9541  001C0E                     _store_init:
  9542                           	callstack 22
  9543  001C0E                     
  9544                           ;driveControl/store.c: 4:     if (DATAEE_ReadByte(EE_INIT) != 0xA5) {
  9545  001C0E  0E00               	movlw	0
  9546  001C10  0100               	movlb	0	; () banked
  9547  001C12  6F61               	movwf	(DATAEE_ReadByte@bAdd+1)& (0+255),b
  9548  001C14  0E00               	movlw	0
  9549  001C16  6F60               	movwf	DATAEE_ReadByte@bAdd& (0+255),b
  9550  001C18  ECB2  F019         	call	_DATAEE_ReadByte	;wreg free
  9551  001C1C  0AA5               	xorlw	165
  9552  001C1E  B4D8               	btfsc	status,2,c
  9553  001C20  EF14  F00E         	goto	u2541
  9554  001C24  EF16  F00E         	goto	u2540
  9555  001C28                     u2541:
  9556  001C28  EF4C  F00E         	goto	l5049
  9557  001C2C                     u2540:
  9558  001C2C                     
  9559                           ;driveControl/store.c: 5:         DATAEE_WriteByte(EE_INIT, 0xA5);
  9560  001C2C  0E00               	movlw	0
  9561  001C2E  0100               	movlb	0	; () banked
  9562  001C30  6F61               	movwf	(DATAEE_WriteByte@bAdd+1)& (0+255),b
  9563  001C32  0E00               	movlw	0
  9564  001C34  6F60               	movwf	DATAEE_WriteByte@bAdd& (0+255),b
  9565  001C36  0EA5               	movlw	165
  9566  001C38  6F62               	movwf	DATAEE_WriteByte@bData& (0+255),b
  9567  001C3A  ECEF  F017         	call	_DATAEE_WriteByte	;wreg free
  9568                           
  9569                           ;driveControl/store.c: 9:         DATAEE_WriteByte(EE_ALIVE_TIME, 10);
  9570  001C3E  0E00               	movlw	0
  9571  001C40  0100               	movlb	0	; () banked
  9572  001C42  6F61               	movwf	(DATAEE_WriteByte@bAdd+1)& (0+255),b
  9573  001C44  0E01               	movlw	1
  9574  001C46  6F60               	movwf	DATAEE_WriteByte@bAdd& (0+255),b
  9575  001C48  0E0A               	movlw	10
  9576  001C4A  6F62               	movwf	DATAEE_WriteByte@bData& (0+255),b
  9577  001C4C  ECEF  F017         	call	_DATAEE_WriteByte	;wreg free
  9578                           
  9579                           ;driveControl/store.c: 10:         DATAEE_WriteByte(EE_CENTER_LL, 5);
  9580  001C50  0E00               	movlw	0
  9581  001C52  0100               	movlb	0	; () banked
  9582  001C54  6F61               	movwf	(DATAEE_WriteByte@bAdd+1)& (0+255),b
  9583  001C56  0E02               	movlw	2
  9584  001C58  6F60               	movwf	DATAEE_WriteByte@bAdd& (0+255),b
  9585  001C5A  0E05               	movlw	5
  9586  001C5C  6F62               	movwf	DATAEE_WriteByte@bData& (0+255),b
  9587  001C5E  ECEF  F017         	call	_DATAEE_WriteByte	;wreg free
  9588                           
  9589                           ;driveControl/store.c: 11:         DATAEE_WriteByte(EE_CENTER_L, 5);
  9590  001C62  0E00               	movlw	0
  9591  001C64  0100               	movlb	0	; () banked
  9592  001C66  6F61               	movwf	(DATAEE_WriteByte@bAdd+1)& (0+255),b
  9593  001C68  0E03               	movlw	3
  9594  001C6A  6F60               	movwf	DATAEE_WriteByte@bAdd& (0+255),b
  9595  001C6C  0E05               	movlw	5
  9596  001C6E  6F62               	movwf	DATAEE_WriteByte@bData& (0+255),b
  9597  001C70  ECEF  F017         	call	_DATAEE_WriteByte	;wreg free
  9598                           
  9599                           ;driveControl/store.c: 12:         DATAEE_WriteByte(EE_CENTER_H, 5);
  9600  001C74  0E00               	movlw	0
  9601  001C76  0100               	movlb	0	; () banked
  9602  001C78  6F61               	movwf	(DATAEE_WriteByte@bAdd+1)& (0+255),b
  9603  001C7A  0E04               	movlw	4
  9604  001C7C  6F60               	movwf	DATAEE_WriteByte@bAdd& (0+255),b
  9605  001C7E  0E05               	movlw	5
  9606  001C80  6F62               	movwf	DATAEE_WriteByte@bData& (0+255),b
  9607  001C82  ECEF  F017         	call	_DATAEE_WriteByte	;wreg free
  9608                           
  9609                           ;driveControl/store.c: 13:         DATAEE_WriteByte(EE_CENTER_HH, 5);
  9610  001C86  0E00               	movlw	0
  9611  001C88  0100               	movlb	0	; () banked
  9612  001C8A  6F61               	movwf	(DATAEE_WriteByte@bAdd+1)& (0+255),b
  9613  001C8C  0E05               	movlw	5
  9614  001C8E  6F60               	movwf	DATAEE_WriteByte@bAdd& (0+255),b
  9615  001C90  0E05               	movlw	5
  9616  001C92  6F62               	movwf	DATAEE_WriteByte@bData& (0+255),b
  9617  001C94  ECEF  F017         	call	_DATAEE_WriteByte	;wreg free
  9618  001C98                     l5049:
  9619                           
  9620                           ;driveControl/store.c: 19:     me->eeValues[EE_INIT] = DATAEE_ReadByte(EE_INIT);
  9621  001C98  0E00               	movlw	0
  9622  001C9A  0100               	movlb	0	; () banked
  9623  001C9C  6F61               	movwf	(DATAEE_ReadByte@bAdd+1)& (0+255),b
  9624  001C9E  0E00               	movlw	0
  9625  001CA0  6F60               	movwf	DATAEE_ReadByte@bAdd& (0+255),b
  9626  001CA2  ECB2  F019         	call	_DATAEE_ReadByte	;wreg free
  9627  001CA6  0060  F193  FFD9   	movff	store_init@me,fsr2l
  9628  001CAC  0060  F197  FFDA   	movff	store_init@me+1,fsr2h
  9629  001CB2  6EDF               	movwf	indf2,c
  9630  001CB4                     
  9631                           ;driveControl/store.c: 20:     me->eeValues[EE_ALIVE_TIME] = DATAEE_ReadByte(EE_ALIVE_TI
      +                          ME);
  9632  001CB4  0100               	movlb	0	; () banked
  9633  001CB6  EE20 F001          	lfsr	2,1
  9634  001CBA  5164               	movf	store_init@me& (0+255),w,b
  9635  001CBC  26D9               	addwf	fsr2l,f,c
  9636  001CBE  5165               	movf	(store_init@me+1)& (0+255),w,b
  9637  001CC0  22DA               	addwfc	fsr2h,f,c
  9638  001CC2  0E00               	movlw	0
  9639  001CC4  6F61               	movwf	(DATAEE_ReadByte@bAdd+1)& (0+255),b
  9640  001CC6  0E01               	movlw	1
  9641  001CC8  6F60               	movwf	DATAEE_ReadByte@bAdd& (0+255),b
  9642  001CCA  ECB2  F019         	call	_DATAEE_ReadByte	;wreg free
  9643  001CCE  6EDF               	movwf	indf2,c
  9644  001CD0                     
  9645                           ;driveControl/store.c: 21:     me->eeValues[EE_CENTER_LL] = DATAEE_ReadByte(EE_CENTER_LL
      +                          );
  9646  001CD0  0100               	movlb	0	; () banked
  9647  001CD2  EE20 F002          	lfsr	2,2
  9648  001CD6  5164               	movf	store_init@me& (0+255),w,b
  9649  001CD8  26D9               	addwf	fsr2l,f,c
  9650  001CDA  5165               	movf	(store_init@me+1)& (0+255),w,b
  9651  001CDC  22DA               	addwfc	fsr2h,f,c
  9652  001CDE  0E00               	movlw	0
  9653  001CE0  6F61               	movwf	(DATAEE_ReadByte@bAdd+1)& (0+255),b
  9654  001CE2  0E02               	movlw	2
  9655  001CE4  6F60               	movwf	DATAEE_ReadByte@bAdd& (0+255),b
  9656  001CE6  ECB2  F019         	call	_DATAEE_ReadByte	;wreg free
  9657  001CEA  6EDF               	movwf	indf2,c
  9658  001CEC                     
  9659                           ;driveControl/store.c: 22:     me->eeValues[EE_CENTER_L] = DATAEE_ReadByte(EE_CENTER_L);
  9660  001CEC  0100               	movlb	0	; () banked
  9661  001CEE  EE20 F003          	lfsr	2,3
  9662  001CF2  5164               	movf	store_init@me& (0+255),w,b
  9663  001CF4  26D9               	addwf	fsr2l,f,c
  9664  001CF6  5165               	movf	(store_init@me+1)& (0+255),w,b
  9665  001CF8  22DA               	addwfc	fsr2h,f,c
  9666  001CFA  0E00               	movlw	0
  9667  001CFC  6F61               	movwf	(DATAEE_ReadByte@bAdd+1)& (0+255),b
  9668  001CFE  0E03               	movlw	3
  9669  001D00  6F60               	movwf	DATAEE_ReadByte@bAdd& (0+255),b
  9670  001D02  ECB2  F019         	call	_DATAEE_ReadByte	;wreg free
  9671  001D06  6EDF               	movwf	indf2,c
  9672  001D08                     
  9673                           ;driveControl/store.c: 23:     me->eeValues[EE_CENTER_H] = DATAEE_ReadByte(EE_CENTER_H);
  9674  001D08  0100               	movlb	0	; () banked
  9675  001D0A  EE20 F004          	lfsr	2,4
  9676  001D0E  5164               	movf	store_init@me& (0+255),w,b
  9677  001D10  26D9               	addwf	fsr2l,f,c
  9678  001D12  5165               	movf	(store_init@me+1)& (0+255),w,b
  9679  001D14  22DA               	addwfc	fsr2h,f,c
  9680  001D16  0E00               	movlw	0
  9681  001D18  6F61               	movwf	(DATAEE_ReadByte@bAdd+1)& (0+255),b
  9682  001D1A  0E04               	movlw	4
  9683  001D1C  6F60               	movwf	DATAEE_ReadByte@bAdd& (0+255),b
  9684  001D1E  ECB2  F019         	call	_DATAEE_ReadByte	;wreg free
  9685  001D22  6EDF               	movwf	indf2,c
  9686  001D24                     
  9687                           ;driveControl/store.c: 24:     me->eeValues[EE_CENTER_HH] = DATAEE_ReadByte(EE_CENTER_HH
      +                          );
  9688  001D24  0100               	movlb	0	; () banked
  9689  001D26  EE20 F005          	lfsr	2,5
  9690  001D2A  5164               	movf	store_init@me& (0+255),w,b
  9691  001D2C  26D9               	addwf	fsr2l,f,c
  9692  001D2E  5165               	movf	(store_init@me+1)& (0+255),w,b
  9693  001D30  22DA               	addwfc	fsr2h,f,c
  9694  001D32  0E00               	movlw	0
  9695  001D34  6F61               	movwf	(DATAEE_ReadByte@bAdd+1)& (0+255),b
  9696  001D36  0E05               	movlw	5
  9697  001D38  6F60               	movwf	DATAEE_ReadByte@bAdd& (0+255),b
  9698  001D3A  ECB2  F019         	call	_DATAEE_ReadByte	;wreg free
  9699  001D3E  6EDF               	movwf	indf2,c
  9700  001D40  0012               	return		;funcret
  9701  001D42                     __end_of_store_init:
  9702                           	callstack 0
  9703                           
  9704 ;; *************** function _DATAEE_WriteByte *****************
  9705 ;; Defined at:
  9706 ;;		line 165 in file "mcc_generated_files/memory.c"
  9707 ;; Parameters:    Size  Location     Type
  9708 ;;  bAdd            2    0[BANK0 ] unsigned short 
  9709 ;;  bData           1    2[BANK0 ] unsigned char 
  9710 ;; Auto vars:     Size  Location     Type
  9711 ;;  GIEBitValue     1    3[BANK0 ] unsigned char 
  9712 ;; Return value:  Size  Location     Type
  9713 ;;                  1    wreg      void 
  9714 ;; Registers used:
  9715 ;;		wreg, status,2, status,0
  9716 ;; Tracked objects:
  9717 ;;		On entry : 0/0
  9718 ;;		On exit  : 0/0
  9719 ;;		Unchanged: 0/0
  9720 ;; Data sizes:     COMRAM   BANK0   BANK1   BANK2   BANK3   BANK4   BANK5   BANK6   BANK7   BANK8   BANK9  BANK10  BANK1
      +1  BANK12  BANK13  BANK14  BANK15
  9721 ;;      Params:         0       3       0       0       0       0       0       0       0       0       0       0       
      +0       0       0       0       0
  9722 ;;      Locals:         0       1       0       0       0       0       0       0       0       0       0       0       
      +0       0       0       0       0
  9723 ;;      Temps:          0       0       0       0       0       0       0       0       0       0       0       0       
      +0       0       0       0       0
  9724 ;;      Totals:         0       4       0       0       0       0       0       0       0       0       0       0       
      +0       0       0       0       0
  9725 ;;Total ram usage:        4 bytes
  9726 ;; Hardware stack levels used: 1
  9727 ;; Hardware stack levels required when called: 6
  9728 ;; This function calls:
  9729 ;;		Nothing
  9730 ;; This function is called by:
  9731 ;;		_store_init
  9732 ;;		_store_write
  9733 ;; This function uses a non-reentrant model
  9734 ;;
  9735                           
  9736                           	psect	text58
  9737  002FDE                     __ptext58:
  9738                           	callstack 0
  9739  002FDE                     _DATAEE_WriteByte:
  9740                           	callstack 20
  9741  002FDE                     
  9742                           ;mcc_generated_files/memory.c: 165: void DATAEE_WriteByte(uint16_t bAdd, uint8_t bData);
      +                          mcc_generated_files/memory.c: 166: {;mcc_generated_files/memory.c: 167:     uint8_t GIEB
      +                          itValue = INTCON0bits.GIE;
  9743  002FDE  0E00               	movlw	0
  9744  002FE0  BED2               	btfsc	210,7,c	;volatile
  9745  002FE2  0E01               	movlw	1
  9746  002FE4  0100               	movlb	0	; () banked
  9747  002FE6  6F63               	movwf	DATAEE_WriteByte@GIEBitValue& (0+255),b
  9748  002FE8                     
  9749                           ; BSR set to: 0
  9750                           ;mcc_generated_files/memory.c: 169:     NVMADRH = (uint8_t)((bAdd >> 8) & 0x03);
  9751  002FE8  5161               	movf	(DATAEE_WriteByte@bAdd+1)& (0+255),w,b
  9752  002FEA  0B03               	andlw	3
  9753  002FEC  0139               	movlb	57	; () banked
  9754  002FEE  6FE1               	movwf	225,b	;volatile
  9755  002FF0                     
  9756                           ; BSR set to: 57
  9757                           ;mcc_generated_files/memory.c: 170:     NVMADRL = (uint8_t)(bAdd & 0xFF);
  9758  002FF0  0060  F183  F9E0   	movff	DATAEE_WriteByte@bAdd,14816	;volatile
  9759  002FF6                     
  9760                           ; BSR set to: 57
  9761                           ;mcc_generated_files/memory.c: 171:     NVMDAT = bData;
  9762  002FF6  0060  F18B  F9E3   	movff	DATAEE_WriteByte@bData,14819	;volatile
  9763  002FFC                     
  9764                           ; BSR set to: 57
  9765                           ;mcc_generated_files/memory.c: 172:     NVMCON1bits.NVMREG = 0;
  9766  002FFC  0E3F               	movlw	-193
  9767  002FFE  17E5               	andwf	229,f,b	;volsfr
  9768  003000                     
  9769                           ; BSR set to: 57
  9770                           ;mcc_generated_files/memory.c: 173:     NVMCON1bits.WREN = 1;
  9771  003000  85E5               	bsf	229,2,b	;volsfr
  9772  003002                     
  9773                           ; BSR set to: 57
  9774                           ;mcc_generated_files/memory.c: 174:     INTCON0bits.GIE = 0;
  9775  003002  9ED2               	bcf	210,7,c	;volatile
  9776  003004                     
  9777                           ; BSR set to: 57
  9778                           ;mcc_generated_files/memory.c: 175:     NVMCON2 = 0x55;
  9779  003004  0E55               	movlw	85
  9780  003006  6FE6               	movwf	230,b	;volsfr
  9781  003008                     
  9782                           ; BSR set to: 57
  9783                           ;mcc_generated_files/memory.c: 176:     NVMCON2 = 0xAA;
  9784  003008  0EAA               	movlw	170
  9785  00300A  6FE6               	movwf	230,b	;volsfr
  9786  00300C                     
  9787                           ; BSR set to: 57
  9788                           ;mcc_generated_files/memory.c: 177:     NVMCON1bits.WR = 1;
  9789  00300C  83E5               	bsf	229,1,b	;volsfr
  9790  00300E                     l601:
  9791                           
  9792                           ; BSR set to: 57
  9793                           ;mcc_generated_files/memory.c: 179:     while (NVMCON1bits.WR)
  9794  00300E  B3E5               	btfsc	229,1,b	;volsfr
  9795  003010  EF0C  F018         	goto	u1711
  9796  003014  EF0E  F018         	goto	u1710
  9797  003018                     u1711:
  9798  003018  EF07  F018         	goto	l601
  9799  00301C                     u1710:
  9800  00301C                     
  9801                           ; BSR set to: 57
  9802                           ;mcc_generated_files/memory.c: 183:     NVMCON1bits.WREN = 0;
  9803  00301C  95E5               	bcf	229,2,b	;volsfr
  9804                           
  9805                           ;mcc_generated_files/memory.c: 184:     INTCON0bits.GIE = GIEBitValue;
  9806  00301E  0100               	movlb	0	; () banked
  9807  003020  B163               	btfsc	DATAEE_WriteByte@GIEBitValue& (0+255),0,b
  9808  003022  D002               	bra	u1725
  9809  003024  9ED2               	bcf	210,7,c	;volatile
  9810  003026  D001               	bra	u1726
  9811  003028                     u1725:
  9812  003028  8ED2               	bsf	210,7,c	;volatile
  9813  00302A                     u1726:
  9814  00302A  0012               	return		;funcret
  9815  00302C                     __end_of_DATAEE_WriteByte:
  9816                           	callstack 0
  9817                           
  9818 ;; *************** function _DATAEE_ReadByte *****************
  9819 ;; Defined at:
  9820 ;;		line 187 in file "mcc_generated_files/memory.c"
  9821 ;; Parameters:    Size  Location     Type
  9822 ;;  bAdd            2    0[BANK0 ] unsigned short 
  9823 ;; Auto vars:     Size  Location     Type
  9824 ;;		None
  9825 ;; Return value:  Size  Location     Type
  9826 ;;                  1    wreg      unsigned char 
  9827 ;; Registers used:
  9828 ;;		wreg, status,2, status,0
  9829 ;; Tracked objects:
  9830 ;;		On entry : 0/0
  9831 ;;		On exit  : 0/0
  9832 ;;		Unchanged: 0/0
  9833 ;; Data sizes:     COMRAM   BANK0   BANK1   BANK2   BANK3   BANK4   BANK5   BANK6   BANK7   BANK8   BANK9  BANK10  BANK1
      +1  BANK12  BANK13  BANK14  BANK15
  9834 ;;      Params:         0       2       0       0       0       0       0       0       0       0       0       0       
      +0       0       0       0       0
  9835 ;;      Locals:         0       0       0       0       0       0       0       0       0       0       0       0       
      +0       0       0       0       0
  9836 ;;      Temps:          0       0       0       0       0       0       0       0       0       0       0       0       
      +0       0       0       0       0
  9837 ;;      Totals:         0       2       0       0       0       0       0       0       0       0       0       0       
      +0       0       0       0       0
  9838 ;;Total ram usage:        2 bytes
  9839 ;; Hardware stack levels used: 1
  9840 ;; Hardware stack levels required when called: 6
  9841 ;; This function calls:
  9842 ;;		Nothing
  9843 ;; This function is called by:
  9844 ;;		_store_init
  9845 ;; This function uses a non-reentrant model
  9846 ;;
  9847                           
  9848                           	psect	text59
  9849  003364                     __ptext59:
  9850                           	callstack 0
  9851  003364                     _DATAEE_ReadByte:
  9852                           	callstack 22
  9853  003364                     
  9854                           ;mcc_generated_files/memory.c: 187: uint8_t DATAEE_ReadByte(uint16_t bAdd);mcc_generated
      +                          _files/memory.c: 188: {;mcc_generated_files/memory.c: 189:     NVMADRH = (uint8_t)((bAdd
      +                           >> 8) & 0x03);
  9855  003364  0100               	movlb	0	; () banked
  9856  003366  5161               	movf	(DATAEE_ReadByte@bAdd+1)& (0+255),w,b
  9857  003368  0B03               	andlw	3
  9858  00336A  0139               	movlb	57	; () banked
  9859  00336C  6FE1               	movwf	225,b	;volatile
  9860  00336E                     
  9861                           ; BSR set to: 57
  9862                           ;mcc_generated_files/memory.c: 190:     NVMADRL = (uint8_t)(bAdd & 0xFF);
  9863  00336E  0060  F183  F9E0   	movff	DATAEE_ReadByte@bAdd,14816	;volatile
  9864  003374                     
  9865                           ; BSR set to: 57
  9866                           ;mcc_generated_files/memory.c: 191:     NVMCON1bits.NVMREG = 0;
  9867  003374  0E3F               	movlw	-193
  9868  003376  17E5               	andwf	229,f,b	;volsfr
  9869  003378                     
  9870                           ; BSR set to: 57
  9871                           ;mcc_generated_files/memory.c: 192:     NVMCON1bits.RD = 1;
  9872  003378  81E5               	bsf	229,0,b	;volsfr
  9873  00337A                     
  9874                           ; BSR set to: 57
  9875                           ;mcc_generated_files/memory.c: 193:     __nop();
  9876  00337A  F000               	nop	
  9877  00337C                     
  9878                           ;mcc_generated_files/memory.c: 194:     __nop();
  9879  00337C  F000               	nop	
  9880  00337E                     
  9881                           ;mcc_generated_files/memory.c: 196:     return (NVMDAT);
  9882  00337E  0139               	movlb	57	; () banked
  9883  003380  51E3               	movf	227,w,b	;volatile
  9884  003382                     
  9885                           ; BSR set to: 57
  9886  003382  0012               	return		;funcret
  9887  003384                     __end_of_DATAEE_ReadByte:
  9888                           	callstack 0
  9889                           
  9890 ;; *************** function _st *****************
  9891 ;; Defined at:
  9892 ;;		line 33 in file "factory/factory.c"
  9893 ;; Parameters:    Size  Location     Type
  9894 ;;		None
  9895 ;; Auto vars:     Size  Location     Type
  9896 ;;		None
  9897 ;; Return value:  Size  Location     Type
  9898 ;;                  2    0[BANK0 ] PTR struct Store_
  9899 ;; Registers used:
  9900 ;;		wreg, status,2, status,0
  9901 ;; Tracked objects:
  9902 ;;		On entry : 0/0
  9903 ;;		On exit  : 0/0
  9904 ;;		Unchanged: 0/0
  9905 ;; Data sizes:     COMRAM   BANK0   BANK1   BANK2   BANK3   BANK4   BANK5   BANK6   BANK7   BANK8   BANK9  BANK10  BANK1
      +1  BANK12  BANK13  BANK14  BANK15
  9906 ;;      Params:         0       2       0       0       0       0       0       0       0       0       0       0       
      +0       0       0       0       0
  9907 ;;      Locals:         0       0       0       0       0       0       0       0       0       0       0       0       
      +0       0       0       0       0
  9908 ;;      Temps:          0       0       0       0       0       0       0       0       0       0       0       0       
      +0       0       0       0       0
  9909 ;;      Totals:         0       2       0       0       0       0       0       0       0       0       0       0       
      +0       0       0       0       0
  9910 ;;Total ram usage:        2 bytes
  9911 ;; Hardware stack levels used: 1
  9912 ;; Hardware stack levels required when called: 6
  9913 ;; This function calls:
  9914 ;;		Nothing
  9915 ;; This function is called by:
  9916 ;;		_commControl_processEvent
  9917 ;;		_steeringSetup
  9918 ;;		_sendAliveFrame
  9919 ;;		_setCenter
  9920 ;;		_getCenterFrame
  9921 ;;		_Factory_init
  9922 ;; This function uses a non-reentrant model
  9923 ;;
  9924                           
  9925                           	psect	text60
  9926  003514                     __ptext60:
  9927                           	callstack 0
  9928  003514                     _st:
  9929                           	callstack 21
  9930  003514                     
  9931                           ;factory/factory.c: 34:     return &theFactory.st_;
  9932  003514  0E1C               	movlw	low (_theFactory+28)
  9933  003516  0100               	movlb	0	; () banked
  9934  003518  6F60               	movwf	?_st& (0+255),b
  9935  00351A  0E01               	movlw	high (_theFactory+28)
  9936  00351C  6F61               	movwf	(?_st+1)& (0+255),b
  9937  00351E                     
  9938                           ; BSR set to: 0
  9939  00351E  0012               	return		;funcret
  9940  003520                     __end_of_st:
  9941                           	callstack 0
  9942                           
  9943 ;; *************** function _sepos_init *****************
  9944 ;; Defined at:
  9945 ;;		line 10 in file "sepos/sepos_RS232.c"
  9946 ;; Parameters:    Size  Location     Type
  9947 ;;  me              2    2[BANK0 ] PTR struct Sepos_
  9948 ;;		 -> theFactory.sepos_(200), theFactory(233), 
  9949 ;; Auto vars:     Size  Location     Type
  9950 ;;  i               1    6[BANK0 ] unsigned char 
  9951 ;; Return value:  Size  Location     Type
  9952 ;;                  1    wreg      void 
  9953 ;; Registers used:
  9954 ;;		wreg, fsr2l, fsr2h, status,2, status,0, prodl, prodh
  9955 ;; Tracked objects:
  9956 ;;		On entry : 0/0
  9957 ;;		On exit  : 0/0
  9958 ;;		Unchanged: 0/0
  9959 ;; Data sizes:     COMRAM   BANK0   BANK1   BANK2   BANK3   BANK4   BANK5   BANK6   BANK7   BANK8   BANK9  BANK10  BANK1
      +1  BANK12  BANK13  BANK14  BANK15
  9960 ;;      Params:         0       2       0       0       0       0       0       0       0       0       0       0       
      +0       0       0       0       0
  9961 ;;      Locals:         0       1       0       0       0       0       0       0       0       0       0       0       
      +0       0       0       0       0
  9962 ;;      Temps:          0       2       0       0       0       0       0       0       0       0       0       0       
      +0       0       0       0       0
  9963 ;;      Totals:         0       5       0       0       0       0       0       0       0       0       0       0       
      +0       0       0       0       0
  9964 ;;Total ram usage:        5 bytes
  9965 ;; Hardware stack levels used: 1
  9966 ;; Hardware stack levels required when called: 6
  9967 ;; This function calls:
  9968 ;;		Nothing
  9969 ;; This function is called by:
  9970 ;;		_Factory_init
  9971 ;; This function uses a non-reentrant model
  9972 ;;
  9973                           
  9974                           	psect	text61
  9975  00252A                     __ptext61:
  9976                           	callstack 0
  9977  00252A                     _sepos_init:
  9978                           	callstack 23
  9979  00252A                     l5081:
  9980                           
  9981                           ;sepos/sepos_RS232.c: 11:     for(uint8_t i; i < 50; i++){
  9982  00252A  0E31               	movlw	49
  9983  00252C  0100               	movlb	0	; () banked
  9984  00252E  6566               	cpfsgt	sepos_init@i& (0+255),b
  9985  002530  EF9C  F012         	goto	u2551
  9986  002534  EF9E  F012         	goto	u2550
  9987  002538                     u2551:
  9988  002538  EFA0  F012         	goto	l5085
  9989  00253C                     u2550:
  9990  00253C  EFE9  F012         	goto	l1017
  9991  002540                     l5085:
  9992                           
  9993                           ; BSR set to: 0
  9994                           ;sepos/sepos_RS232.c: 12:         me->rxbuf[i] = 0;
  9995  002540  5166               	movf	sepos_init@i& (0+255),w,b
  9996  002542  2562               	addwf	sepos_init@me& (0+255),w,b
  9997  002544  6F64               	movwf	??_sepos_init& (0+255),b
  9998  002546  0E00               	movlw	0
  9999  002548  2163               	addwfc	(sepos_init@me+1)& (0+255),w,b
 10000  00254A  6F65               	movwf	(??_sepos_init+1)& (0+255),b
 10001  00254C  0E64               	movlw	100
 10002  00254E  2564               	addwf	??_sepos_init& (0+255),w,b
 10003  002550  6ED9               	movwf	fsr2l,c
 10004  002552  0E00               	movlw	0
 10005  002554  2165               	addwfc	(??_sepos_init+1)& (0+255),w,b
 10006  002556  6EDA               	movwf	fsr2h,c
 10007  002558  0E00               	movlw	0
 10008  00255A  6EDF               	movwf	indf2,c
 10009                           
 10010                           ;sepos/sepos_RS232.c: 13:         me->txbuf[i] = 0;
 10011  00255C  5166               	movf	sepos_init@i& (0+255),w,b
 10012  00255E  2562               	addwf	sepos_init@me& (0+255),w,b
 10013  002560  6ED9               	movwf	fsr2l,c
 10014  002562  0E00               	movlw	0
 10015  002564  2163               	addwfc	(sepos_init@me+1)& (0+255),w,b
 10016  002566  6EDA               	movwf	fsr2h,c
 10017  002568  0E00               	movlw	0
 10018  00256A  6EDF               	movwf	indf2,c
 10019  00256C                     
 10020                           ; BSR set to: 0
 10021                           ;sepos/sepos_RS232.c: 14:         if(i < 25){
 10022  00256C  0E19               	movlw	25
 10023  00256E  6166               	cpfslt	sepos_init@i& (0+255),b
 10024  002570  EFBC  F012         	goto	u2561
 10025  002574  EFBE  F012         	goto	u2560
 10026  002578                     u2561:
 10027  002578  EFE6  F012         	goto	l5091
 10028  00257C                     u2560:
 10029  00257C                     
 10030                           ; BSR set to: 0
 10031                           ;sepos/sepos_RS232.c: 15:             me->rxdata[i] = 0;
 10032  00257C  5166               	movf	sepos_init@i& (0+255),w,b
 10033  00257E  0D02               	mullw	2
 10034  002580  C062  F064         	movff	sepos_init@me,??_sepos_init
 10035  002584  C063  F065         	movff	sepos_init@me+1,??_sepos_init+1
 10036  002588  50F3               	movf	243,w,c
 10037  00258A  2764               	addwf	??_sepos_init& (0+255),f,b
 10038  00258C  50F4               	movf	244,w,c
 10039  00258E  2365               	addwfc	(??_sepos_init+1)& (0+255),f,b
 10040  002590  0E96               	movlw	150
 10041  002592  2564               	addwf	??_sepos_init& (0+255),w,b
 10042  002594  6ED9               	movwf	fsr2l,c
 10043  002596  0E00               	movlw	0
 10044  002598  2165               	addwfc	(??_sepos_init+1)& (0+255),w,b
 10045  00259A  6EDA               	movwf	fsr2h,c
 10046  00259C  0E00               	movlw	0
 10047  00259E  6EDE               	movwf	postinc2,c
 10048  0025A0  0E00               	movlw	0
 10049  0025A2  6EDD               	movwf	postdec2,c
 10050                           
 10051                           ;sepos/sepos_RS232.c: 16:             me->txdata[i] = 0;
 10052  0025A4  5166               	movf	sepos_init@i& (0+255),w,b
 10053  0025A6  0D02               	mullw	2
 10054  0025A8  C062  F064         	movff	sepos_init@me,??_sepos_init
 10055  0025AC  C063  F065         	movff	sepos_init@me+1,??_sepos_init+1
 10056  0025B0  50F3               	movf	243,w,c
 10057  0025B2  2764               	addwf	??_sepos_init& (0+255),f,b
 10058  0025B4  50F4               	movf	244,w,c
 10059  0025B6  2365               	addwfc	(??_sepos_init+1)& (0+255),f,b
 10060  0025B8  0E32               	movlw	50
 10061  0025BA  2564               	addwf	??_sepos_init& (0+255),w,b
 10062  0025BC  6ED9               	movwf	fsr2l,c
 10063  0025BE  0E00               	movlw	0
 10064  0025C0  2165               	addwfc	(??_sepos_init+1)& (0+255),w,b
 10065  0025C2  6EDA               	movwf	fsr2h,c
 10066  0025C4  0E00               	movlw	0
 10067  0025C6  6EDE               	movwf	postinc2,c
 10068  0025C8  0E00               	movlw	0
 10069  0025CA  6EDD               	movwf	postdec2,c
 10070  0025CC                     l5091:
 10071                           
 10072                           ; BSR set to: 0
 10073                           ;sepos/sepos_RS232.c: 18:     }
 10074  0025CC  2B66               	incf	sepos_init@i& (0+255),f,b
 10075  0025CE  EF95  F012         	goto	l5081
 10076  0025D2                     l1017:
 10077                           
 10078                           ; BSR set to: 0
 10079  0025D2  0012               	return		;funcret
 10080  0025D4                     __end_of_sepos_init:
 10081                           	callstack 0
 10082                           
 10083 ;; *************** function _sepos *****************
 10084 ;; Defined at:
 10085 ;;		line 36 in file "factory/factory.c"
 10086 ;; Parameters:    Size  Location     Type
 10087 ;;		None
 10088 ;; Auto vars:     Size  Location     Type
 10089 ;;		None
 10090 ;; Return value:  Size  Location     Type
 10091 ;;                  2    0[BANK0 ] PTR struct Sepos_
 10092 ;; Registers used:
 10093 ;;		wreg, status,2, status,0
 10094 ;; Tracked objects:
 10095 ;;		On entry : 0/0
 10096 ;;		On exit  : 0/0
 10097 ;;		Unchanged: 0/0
 10098 ;; Data sizes:     COMRAM   BANK0   BANK1   BANK2   BANK3   BANK4   BANK5   BANK6   BANK7   BANK8   BANK9  BANK10  BANK1
      +1  BANK12  BANK13  BANK14  BANK15
 10099 ;;      Params:         0       2       0       0       0       0       0       0       0       0       0       0       
      +0       0       0       0       0
 10100 ;;      Locals:         0       0       0       0       0       0       0       0       0       0       0       0       
      +0       0       0       0       0
 10101 ;;      Temps:          0       0       0       0       0       0       0       0       0       0       0       0       
      +0       0       0       0       0
 10102 ;;      Totals:         0       2       0       0       0       0       0       0       0       0       0       0       
      +0       0       0       0       0
 10103 ;;Total ram usage:        2 bytes
 10104 ;; Hardware stack levels used: 1
 10105 ;; Hardware stack levels required when called: 6
 10106 ;; This function calls:
 10107 ;;		Nothing
 10108 ;; This function is called by:
 10109 ;;		_Factory_init
 10110 ;; This function uses a non-reentrant model
 10111 ;;
 10112                           
 10113                           	psect	text62
 10114  003520                     __ptext62:
 10115                           	callstack 0
 10116  003520                     _sepos:
 10117                           	callstack 23
 10118  003520                     
 10119                           ;factory/factory.c: 37:     return &theFactory.sepos_;
 10120  003520  0E21               	movlw	low (_theFactory+33)
 10121  003522  0100               	movlb	0	; () banked
 10122  003524  6F60               	movwf	?_sepos& (0+255),b
 10123  003526  0E01               	movlw	high (_theFactory+33)
 10124  003528  6F61               	movwf	(?_sepos+1)& (0+255),b
 10125  00352A                     
 10126                           ; BSR set to: 0
 10127  00352A  0012               	return		;funcret
 10128  00352C                     __end_of_sepos:
 10129                           	callstack 0
 10130                           
 10131 ;; *************** function _l *****************
 10132 ;; Defined at:
 10133 ;;		line 9 in file "factory/factory.c"
 10134 ;; Parameters:    Size  Location     Type
 10135 ;;		None
 10136 ;; Auto vars:     Size  Location     Type
 10137 ;;		None
 10138 ;; Return value:  Size  Location     Type
 10139 ;;                  2    0[BANK0 ] PTR struct LED_
 10140 ;; Registers used:
 10141 ;;		wreg, status,2, status,0
 10142 ;; Tracked objects:
 10143 ;;		On entry : 0/0
 10144 ;;		On exit  : 0/0
 10145 ;;		Unchanged: 0/0
 10146 ;; Data sizes:     COMRAM   BANK0   BANK1   BANK2   BANK3   BANK4   BANK5   BANK6   BANK7   BANK8   BANK9  BANK10  BANK1
      +1  BANK12  BANK13  BANK14  BANK15
 10147 ;;      Params:         0       2       0       0       0       0       0       0       0       0       0       0       
      +0       0       0       0       0
 10148 ;;      Locals:         0       0       0       0       0       0       0       0       0       0       0       0       
      +0       0       0       0       0
 10149 ;;      Temps:          0       0       0       0       0       0       0       0       0       0       0       0       
      +0       0       0       0       0
 10150 ;;      Totals:         0       2       0       0       0       0       0       0       0       0       0       0       
      +0       0       0       0       0
 10151 ;;Total ram usage:        2 bytes
 10152 ;; Hardware stack levels used: 1
 10153 ;; Hardware stack levels required when called: 6
 10154 ;; This function calls:
 10155 ;;		Nothing
 10156 ;; This function is called by:
 10157 ;;		_BLControl_onButton
 10158 ;;		_Factory_init
 10159 ;; This function uses a non-reentrant model
 10160 ;;
 10161                           
 10162                           	psect	text63
 10163  00352C                     __ptext63:
 10164                           	callstack 0
 10165  00352C                     _l:
 10166                           	callstack 21
 10167  00352C                     
 10168                           ;factory/factory.c: 11:     return &theFactory.l_;
 10169  00352C  0E00               	movlw	low _theFactory
 10170  00352E  0100               	movlb	0	; () banked
 10171  003530  6F60               	movwf	?_l& (0+255),b
 10172  003532  0E01               	movlw	high _theFactory
 10173  003534  6F61               	movwf	(?_l+1)& (0+255),b
 10174  003536                     
 10175                           ; BSR set to: 0
 10176  003536  0012               	return		;funcret
 10177  003538                     __end_of_l:
 10178                           	callstack 0
 10179                           
 10180 ;; *************** function _commControl_init *****************
 10181 ;; Defined at:
 10182 ;;		line 20 in file "driveControl/commControl.c"
 10183 ;; Parameters:    Size  Location     Type
 10184 ;;  me              2    2[BANK0 ] PTR struct CommControl_
 10185 ;;		 -> theFactory.cc_(17), theFactory(233), 
 10186 ;; Auto vars:     Size  Location     Type
 10187 ;;		None
 10188 ;; Return value:  Size  Location     Type
 10189 ;;                  1    wreg      void 
 10190 ;; Registers used:
 10191 ;;		wreg, fsr2l, fsr2h, status,2, status,0
 10192 ;; Tracked objects:
 10193 ;;		On entry : 0/0
 10194 ;;		On exit  : 0/0
 10195 ;;		Unchanged: 0/0
 10196 ;; Data sizes:     COMRAM   BANK0   BANK1   BANK2   BANK3   BANK4   BANK5   BANK6   BANK7   BANK8   BANK9  BANK10  BANK1
      +1  BANK12  BANK13  BANK14  BANK15
 10197 ;;      Params:         0       2       0       0       0       0       0       0       0       0       0       0       
      +0       0       0       0       0
 10198 ;;      Locals:         0       0       0       0       0       0       0       0       0       0       0       0       
      +0       0       0       0       0
 10199 ;;      Temps:          0       0       0       0       0       0       0       0       0       0       0       0       
      +0       0       0       0       0
 10200 ;;      Totals:         0       2       0       0       0       0       0       0       0       0       0       0       
      +0       0       0       0       0
 10201 ;;Total ram usage:        2 bytes
 10202 ;; Hardware stack levels used: 1
 10203 ;; Hardware stack levels required when called: 6
 10204 ;; This function calls:
 10205 ;;		Nothing
 10206 ;; This function is called by:
 10207 ;;		_Factory_init
 10208 ;; This function uses a non-reentrant model
 10209 ;;
 10210                           
 10211                           	psect	text64
 10212  003074                     __ptext64:
 10213                           	callstack 0
 10214  003074                     _commControl_init:
 10215                           	callstack 23
 10216  003074                     
 10217                           ;driveControl/commControl.c: 21:     me->commSM_State = ST_CSMINIT;
 10218  003074  0060  F18B  FFD9   	movff	commControl_init@me,fsr2l
 10219  00307A  0060  F18F  FFDA   	movff	commControl_init@me+1,fsr2h
 10220  003080  0E0A               	movlw	10
 10221  003082  6EDF               	movwf	indf2,c
 10222  003084                     
 10223                           ;driveControl/commControl.c: 22:     me->aliveSM_State = ST_ASMINIT;
 10224  003084  0100               	movlb	0	; () banked
 10225  003086  EE20 F001          	lfsr	2,1
 10226  00308A  5162               	movf	commControl_init@me& (0+255),w,b
 10227  00308C  26D9               	addwf	fsr2l,f,c
 10228  00308E  5163               	movf	(commControl_init@me+1)& (0+255),w,b
 10229  003090  22DA               	addwfc	fsr2h,f,c
 10230  003092  0E1E               	movlw	30
 10231  003094  6EDF               	movwf	indf2,c
 10232  003096                     
 10233                           ; BSR set to: 0
 10234                           ;driveControl/commControl.c: 23:     me->msg.frame.idType = 1;
 10235  003096  EE20 F002          	lfsr	2,2
 10236  00309A  5162               	movf	commControl_init@me& (0+255),w,b
 10237  00309C  26D9               	addwf	fsr2l,f,c
 10238  00309E  5163               	movf	(commControl_init@me+1)& (0+255),w,b
 10239  0030A0  22DA               	addwfc	fsr2h,f,c
 10240  0030A2  0E01               	movlw	1
 10241  0030A4  6EDF               	movwf	indf2,c
 10242  0030A6                     
 10243                           ; BSR set to: 0
 10244                           ;driveControl/commControl.c: 24:     me->msg.frame.rtr = 0;
 10245  0030A6  EE20 F010          	lfsr	2,16
 10246  0030AA  5162               	movf	commControl_init@me& (0+255),w,b
 10247  0030AC  26D9               	addwf	fsr2l,f,c
 10248  0030AE  5163               	movf	(commControl_init@me+1)& (0+255),w,b
 10249  0030B0  22DA               	addwfc	fsr2h,f,c
 10250  0030B2  0E00               	movlw	0
 10251  0030B4  6EDF               	movwf	indf2,c
 10252  0030B6                     
 10253                           ; BSR set to: 0
 10254  0030B6  0012               	return		;funcret
 10255  0030B8                     __end_of_commControl_init:
 10256                           	callstack 0
 10257                           
 10258 ;; *************** function _cc *****************
 10259 ;; Defined at:
 10260 ;;		line 29 in file "factory/factory.c"
 10261 ;; Parameters:    Size  Location     Type
 10262 ;;		None
 10263 ;; Auto vars:     Size  Location     Type
 10264 ;;		None
 10265 ;; Return value:  Size  Location     Type
 10266 ;;                  2    0[BANK0 ] PTR struct CommControl_
 10267 ;; Registers used:
 10268 ;;		wreg, status,2, status,0
 10269 ;; Tracked objects:
 10270 ;;		On entry : 0/0
 10271 ;;		On exit  : 0/0
 10272 ;;		Unchanged: 0/0
 10273 ;; Data sizes:     COMRAM   BANK0   BANK1   BANK2   BANK3   BANK4   BANK5   BANK6   BANK7   BANK8   BANK9  BANK10  BANK1
      +1  BANK12  BANK13  BANK14  BANK15
 10274 ;;      Params:         0       2       0       0       0       0       0       0       0       0       0       0       
      +0       0       0       0       0
 10275 ;;      Locals:         0       0       0       0       0       0       0       0       0       0       0       0       
      +0       0       0       0       0
 10276 ;;      Temps:          0       0       0       0       0       0       0       0       0       0       0       0       
      +0       0       0       0       0
 10277 ;;      Totals:         0       2       0       0       0       0       0       0       0       0       0       0       
      +0       0       0       0       0
 10278 ;;Total ram usage:        2 bytes
 10279 ;; Hardware stack levels used: 1
 10280 ;; Hardware stack levels required when called: 6
 10281 ;; This function calls:
 10282 ;;		Nothing
 10283 ;; This function is called by:
 10284 ;;		_Factory_init
 10285 ;;		_Factory_start
 10286 ;; This function uses a non-reentrant model
 10287 ;;
 10288                           
 10289                           	psect	text65
 10290  003538                     __ptext65:
 10291                           	callstack 0
 10292  003538                     _cc:
 10293                           	callstack 23
 10294  003538                     
 10295                           ;factory/factory.c: 30:     return &theFactory.cc_;
 10296  003538  0E0B               	movlw	low (_theFactory+11)
 10297  00353A  0100               	movlb	0	; () banked
 10298  00353C  6F60               	movwf	?_cc& (0+255),b
 10299  00353E  0E01               	movlw	high (_theFactory+11)
 10300  003540  6F61               	movwf	(?_cc+1)& (0+255),b
 10301  003542                     
 10302                           ; BSR set to: 0
 10303  003542  0012               	return		;funcret
 10304  003544                     __end_of_cc:
 10305                           	callstack 0
 10306                           
 10307 ;; *************** function _b *****************
 10308 ;; Defined at:
 10309 ;;		line 14 in file "factory/factory.c"
 10310 ;; Parameters:    Size  Location     Type
 10311 ;;		None
 10312 ;; Auto vars:     Size  Location     Type
 10313 ;;		None
 10314 ;; Return value:  Size  Location     Type
 10315 ;;                  2    0[BANK0 ] PTR struct Button_
 10316 ;; Registers used:
 10317 ;;		wreg, status,2, status,0
 10318 ;; Tracked objects:
 10319 ;;		On entry : 0/0
 10320 ;;		On exit  : 0/0
 10321 ;;		Unchanged: 0/0
 10322 ;; Data sizes:     COMRAM   BANK0   BANK1   BANK2   BANK3   BANK4   BANK5   BANK6   BANK7   BANK8   BANK9  BANK10  BANK1
      +1  BANK12  BANK13  BANK14  BANK15
 10323 ;;      Params:         0       2       0       0       0       0       0       0       0       0       0       0       
      +0       0       0       0       0
 10324 ;;      Locals:         0       0       0       0       0       0       0       0       0       0       0       0       
      +0       0       0       0       0
 10325 ;;      Temps:          0       0       0       0       0       0       0       0       0       0       0       0       
      +0       0       0       0       0
 10326 ;;      Totals:         0       2       0       0       0       0       0       0       0       0       0       0       
      +0       0       0       0       0
 10327 ;;Total ram usage:        2 bytes
 10328 ;; Hardware stack levels used: 1
 10329 ;; Hardware stack levels required when called: 6
 10330 ;; This function calls:
 10331 ;;		Nothing
 10332 ;; This function is called by:
 10333 ;;		_Factory_init
 10334 ;; This function uses a non-reentrant model
 10335 ;;
 10336                           
 10337                           	psect	text66
 10338  003544                     __ptext66:
 10339                           	callstack 0
 10340  003544                     _b:
 10341                           	callstack 23
 10342  003544                     
 10343                           ;factory/factory.c: 16:     return &theFactory.b_;
 10344  003544  0E01               	movlw	low (_theFactory+1)
 10345  003546  0100               	movlb	0	; () banked
 10346  003548  6F60               	movwf	?_b& (0+255),b
 10347  00354A  0E01               	movlw	high (_theFactory+1)
 10348  00354C  6F61               	movwf	(?_b+1)& (0+255),b
 10349  00354E                     
 10350                           ; BSR set to: 0
 10351  00354E  0012               	return		;funcret
 10352  003550                     __end_of_b:
 10353                           	callstack 0
 10354                           
 10355 ;; *************** function _LED_initHW *****************
 10356 ;; Defined at:
 10357 ;;		line 13 in file "board/led/led.c"
 10358 ;; Parameters:    Size  Location     Type
 10359 ;;  me              2    6[BANK0 ] PTR struct LED_
 10360 ;;		 -> theFactory.l_(1), theFactory(233), 
 10361 ;; Auto vars:     Size  Location     Type
 10362 ;;		None
 10363 ;; Return value:  Size  Location     Type
 10364 ;;                  1    wreg      void 
 10365 ;; Registers used:
 10366 ;;		wreg, fsr2l, fsr2h, status,2, status,0, cstack
 10367 ;; Tracked objects:
 10368 ;;		On entry : 0/0
 10369 ;;		On exit  : 0/0
 10370 ;;		Unchanged: 0/0
 10371 ;; Data sizes:     COMRAM   BANK0   BANK1   BANK2   BANK3   BANK4   BANK5   BANK6   BANK7   BANK8   BANK9  BANK10  BANK1
      +1  BANK12  BANK13  BANK14  BANK15
 10372 ;;      Params:         0       2       0       0       0       0       0       0       0       0       0       0       
      +0       0       0       0       0
 10373 ;;      Locals:         0       0       0       0       0       0       0       0       0       0       0       0       
      +0       0       0       0       0
 10374 ;;      Temps:          0       0       0       0       0       0       0       0       0       0       0       0       
      +0       0       0       0       0
 10375 ;;      Totals:         0       2       0       0       0       0       0       0       0       0       0       0       
      +0       0       0       0       0
 10376 ;;Total ram usage:        2 bytes
 10377 ;; Hardware stack levels used: 1
 10378 ;; Hardware stack levels required when called: 7
 10379 ;; This function calls:
 10380 ;;		_LED_off
 10381 ;; This function is called by:
 10382 ;;		_Factory_init
 10383 ;; This function uses a non-reentrant model
 10384 ;;
 10385                           
 10386                           	psect	text67
 10387  003506                     __ptext67:
 10388                           	callstack 0
 10389  003506                     _LED_initHW:
 10390                           	callstack 22
 10391  003506                     
 10392                           ;board/led/led.c: 13: void LED_initHW(LED* me);board/led/led.c: 14: {;board/led/led.c: 1
      +                          5:     LED_off(me);
 10393  003506  C066  F062         	movff	LED_initHW@me,LED_off@me
 10394  00350A  C067  F063         	movff	LED_initHW@me+1,LED_off@me+1
 10395  00350E  EC76  F015         	call	_LED_off	;wreg free
 10396  003512  0012               	return		;funcret
 10397  003514                     __end_of_LED_initHW:
 10398                           	callstack 0
 10399                           
 10400 ;; *************** function _LED_off *****************
 10401 ;; Defined at:
 10402 ;;		line 63 in file "board/led/led.c"
 10403 ;; Parameters:    Size  Location     Type
 10404 ;;  me              2    2[BANK0 ] PTR struct LED_
 10405 ;;		 -> theFactory.l_(1), theFactory(233), 
 10406 ;; Auto vars:     Size  Location     Type
 10407 ;;		None
 10408 ;; Return value:  Size  Location     Type
 10409 ;;                  1    wreg      void 
 10410 ;; Registers used:
 10411 ;;		wreg, fsr2l, fsr2h, status,2, status,0
 10412 ;; Tracked objects:
 10413 ;;		On entry : 0/0
 10414 ;;		On exit  : 0/0
 10415 ;;		Unchanged: 0/0
 10416 ;; Data sizes:     COMRAM   BANK0   BANK1   BANK2   BANK3   BANK4   BANK5   BANK6   BANK7   BANK8   BANK9  BANK10  BANK1
      +1  BANK12  BANK13  BANK14  BANK15
 10417 ;;      Params:         0       2       0       0       0       0       0       0       0       0       0       0       
      +0       0       0       0       0
 10418 ;;      Locals:         0       0       0       0       0       0       0       0       0       0       0       0       
      +0       0       0       0       0
 10419 ;;      Temps:          0       2       0       0       0       0       0       0       0       0       0       0       
      +0       0       0       0       0
 10420 ;;      Totals:         0       4       0       0       0       0       0       0       0       0       0       0       
      +0       0       0       0       0
 10421 ;;Total ram usage:        4 bytes
 10422 ;; Hardware stack levels used: 1
 10423 ;; Hardware stack levels required when called: 6
 10424 ;; This function calls:
 10425 ;;		Nothing
 10426 ;; This function is called by:
 10427 ;;		_BLControl_onButton
 10428 ;;		_LED_initHW
 10429 ;;		_LED_setState
 10430 ;; This function uses a non-reentrant model
 10431 ;;
 10432                           
 10433                           	psect	text68
 10434  002AEC                     __ptext68:
 10435                           	callstack 0
 10436  002AEC                     _LED_off:
 10437                           	callstack 21
 10438  002AEC                     
 10439                           ;board/led/led.c: 63: void LED_off(LED* me);board/led/led.c: 64: {;board/led/led.c: 65: 
      +                              switch (me->id)
 10440  002AEC  EF7B  F015         	goto	l4213
 10441  002AF0                     l127:
 10442                           
 10443                           ; BSR set to: 0
 10444  002AF0  92BB               	bcf	187,1,c	;volatile
 10445  002AF2  EFB7  F015         	goto	l139
 10446  002AF6                     l4213:
 10447  002AF6  0060  F18B  FFD9   	movff	LED_off@me,fsr2l
 10448  002AFC  0060  F18F  FFDA   	movff	LED_off@me+1,fsr2h
 10449  002B02  50DF               	movf	indf2,w,c
 10450  002B04  0100               	movlb	0	; () banked
 10451  002B06  6F64               	movwf	??_LED_off& (0+255),b
 10452  002B08  6B65               	clrf	(??_LED_off+1)& (0+255),b
 10453                           
 10454                           ; Switch on 2 bytes has been partitioned into a top level switch of size 1, and 1 sub-sw
      +                          itches
 10455                           ; Switch size 1, requested type "simple"
 10456                           ; Number of cases is 1, Range of values is 0 to 0
 10457                           ; switch strategies available:
 10458                           ; Name         Instructions Cycles
 10459                           ; simple_byte            4     3 (average)
 10460                           ;	Chosen strategy is simple_byte
 10461  002B0A  5165               	movf	(??_LED_off+1)& (0+255),w,b
 10462  002B0C  0A00               	xorlw	0	; case 0
 10463  002B0E  B4D8               	btfsc	status,2,c
 10464  002B10  EF8C  F015         	goto	l6057
 10465  002B14  EFB7  F015         	goto	l139
 10466  002B18                     l6057:
 10467                           
 10468                           ; BSR set to: 0
 10469                           ; Switch size 1, requested type "simple"
 10470                           ; Number of cases is 10, Range of values is 1 to 10
 10471                           ; switch strategies available:
 10472                           ; Name         Instructions Cycles
 10473                           ; simple_byte           31    16 (average)
 10474                           ;	Chosen strategy is simple_byte
 10475  002B18  5164               	movf	??_LED_off& (0+255),w,b
 10476  002B1A  0A01               	xorlw	1	; case 1
 10477  002B1C  B4D8               	btfsc	status,2,c
 10478  002B1E  EF78  F015         	goto	l127
 10479  002B22  0A03               	xorlw	3	; case 2
 10480  002B24  B4D8               	btfsc	status,2,c
 10481  002B26  EFB7  F015         	goto	l139
 10482  002B2A  0A01               	xorlw	1	; case 3
 10483  002B2C  B4D8               	btfsc	status,2,c
 10484  002B2E  EFB7  F015         	goto	l139
 10485  002B32  0A07               	xorlw	7	; case 4
 10486  002B34  B4D8               	btfsc	status,2,c
 10487  002B36  EFB7  F015         	goto	l139
 10488  002B3A  0A01               	xorlw	1	; case 5
 10489  002B3C  B4D8               	btfsc	status,2,c
 10490  002B3E  EFB7  F015         	goto	l139
 10491  002B42  0A03               	xorlw	3	; case 6
 10492  002B44  B4D8               	btfsc	status,2,c
 10493  002B46  EFB7  F015         	goto	l139
 10494  002B4A  0A01               	xorlw	1	; case 7
 10495  002B4C  B4D8               	btfsc	status,2,c
 10496  002B4E  EFB7  F015         	goto	l139
 10497  002B52  0A0F               	xorlw	15	; case 8
 10498  002B54  B4D8               	btfsc	status,2,c
 10499  002B56  EFB7  F015         	goto	l139
 10500  002B5A  0A01               	xorlw	1	; case 9
 10501  002B5C  B4D8               	btfsc	status,2,c
 10502  002B5E  EFB7  F015         	goto	l139
 10503  002B62  0A03               	xorlw	3	; case 10
 10504  002B64  B4D8               	btfsc	status,2,c
 10505  002B66  EFB7  F015         	goto	l139
 10506  002B6A  EFB7  F015         	goto	l139
 10507  002B6E                     l139:
 10508                           
 10509                           ; BSR set to: 0
 10510  002B6E  0012               	return		;funcret
 10511  002B70                     __end_of_LED_off:
 10512                           	callstack 0
 10513                           
 10514 ;; *************** function _LED_init *****************
 10515 ;; Defined at:
 10516 ;;		line 4 in file "board/led/led.c"
 10517 ;; Parameters:    Size  Location     Type
 10518 ;;  me              2    2[BANK0 ] PTR struct LED_
 10519 ;;		 -> theFactory.l_(1), theFactory(233), 
 10520 ;;  id              1    4[BANK0 ] unsigned char 
 10521 ;; Auto vars:     Size  Location     Type
 10522 ;;		None
 10523 ;; Return value:  Size  Location     Type
 10524 ;;                  1    wreg      void 
 10525 ;; Registers used:
 10526 ;;		fsr2l, fsr2h
 10527 ;; Tracked objects:
 10528 ;;		On entry : 0/0
 10529 ;;		On exit  : 0/0
 10530 ;;		Unchanged: 0/0
 10531 ;; Data sizes:     COMRAM   BANK0   BANK1   BANK2   BANK3   BANK4   BANK5   BANK6   BANK7   BANK8   BANK9  BANK10  BANK1
      +1  BANK12  BANK13  BANK14  BANK15
 10532 ;;      Params:         0       3       0       0       0       0       0       0       0       0       0       0       
      +0       0       0       0       0
 10533 ;;      Locals:         0       0       0       0       0       0       0       0       0       0       0       0       
      +0       0       0       0       0
 10534 ;;      Temps:          0       0       0       0       0       0       0       0       0       0       0       0       
      +0       0       0       0       0
 10535 ;;      Totals:         0       3       0       0       0       0       0       0       0       0       0       0       
      +0       0       0       0       0
 10536 ;;Total ram usage:        3 bytes
 10537 ;; Hardware stack levels used: 1
 10538 ;; Hardware stack levels required when called: 6
 10539 ;; This function calls:
 10540 ;;		Nothing
 10541 ;; This function is called by:
 10542 ;;		_Factory_init
 10543 ;; This function uses a non-reentrant model
 10544 ;;
 10545                           
 10546                           	psect	text69
 10547  0034D2                     __ptext69:
 10548                           	callstack 0
 10549  0034D2                     _LED_init:
 10550                           	callstack 23
 10551  0034D2                     
 10552                           ;board/led/led.c: 4: void LED_init(LED* me, uint8_t id);board/led/led.c: 5: {;board/led/
      +                          led.c: 6:     me->id = id;
 10553  0034D2  0060  F18B  FFD9   	movff	LED_init@me,fsr2l
 10554  0034D8  0060  F18F  FFDA   	movff	LED_init@me+1,fsr2h
 10555  0034DE  0060  F193  FFDF   	movff	LED_init@id,indf2
 10556  0034E4  0012               	return		;funcret
 10557  0034E6                     __end_of_LED_init:
 10558                           	callstack 0
 10559                           
 10560 ;; *************** function _Button_initHW *****************
 10561 ;; Defined at:
 10562 ;;		line 15 in file "board/button/button.c"
 10563 ;; Parameters:    Size  Location     Type
 10564 ;;  me              2    2[BANK0 ] PTR struct Button_
 10565 ;;		 -> theFactory.b_(2), theFactory(233), 
 10566 ;; Auto vars:     Size  Location     Type
 10567 ;;		None
 10568 ;; Return value:  Size  Location     Type
 10569 ;;                  1    wreg      void 
 10570 ;; Registers used:
 10571 ;;		None
 10572 ;; Tracked objects:
 10573 ;;		On entry : 0/0
 10574 ;;		On exit  : 0/0
 10575 ;;		Unchanged: 0/0
 10576 ;; Data sizes:     COMRAM   BANK0   BANK1   BANK2   BANK3   BANK4   BANK5   BANK6   BANK7   BANK8   BANK9  BANK10  BANK1
      +1  BANK12  BANK13  BANK14  BANK15
 10577 ;;      Params:         0       2       0       0       0       0       0       0       0       0       0       0       
      +0       0       0       0       0
 10578 ;;      Locals:         0       0       0       0       0       0       0       0       0       0       0       0       
      +0       0       0       0       0
 10579 ;;      Temps:          0       0       0       0       0       0       0       0       0       0       0       0       
      +0       0       0       0       0
 10580 ;;      Totals:         0       2       0       0       0       0       0       0       0       0       0       0       
      +0       0       0       0       0
 10581 ;;Total ram usage:        2 bytes
 10582 ;; Hardware stack levels used: 1
 10583 ;; Hardware stack levels required when called: 6
 10584 ;; This function calls:
 10585 ;;		Nothing
 10586 ;; This function is called by:
 10587 ;;		_Factory_init
 10588 ;; This function uses a non-reentrant model
 10589 ;;
 10590                           
 10591                           	psect	text70
 10592  003596                     __ptext70:
 10593                           	callstack 0
 10594  003596                     _Button_initHW:
 10595                           	callstack 23
 10596  003596  0012               	return		;funcret
 10597  003598                     __end_of_Button_initHW:
 10598                           	callstack 0
 10599                           
 10600 ;; *************** function _Button_init *****************
 10601 ;; Defined at:
 10602 ;;		line 5 in file "board/button/button.c"
 10603 ;; Parameters:    Size  Location     Type
 10604 ;;  me              2    2[BANK0 ] PTR struct Button_
 10605 ;;		 -> theFactory.b_(2), theFactory(233), 
 10606 ;;  id              1    4[BANK0 ] unsigned char 
 10607 ;;  isPullUp        1    5[BANK0 ] _Bool 
 10608 ;; Auto vars:     Size  Location     Type
 10609 ;;		None
 10610 ;; Return value:  Size  Location     Type
 10611 ;;                  1    wreg      void 
 10612 ;; Registers used:
 10613 ;;		wreg, fsr2l, fsr2h, status,2, status,0
 10614 ;; Tracked objects:
 10615 ;;		On entry : 0/0
 10616 ;;		On exit  : 0/0
 10617 ;;		Unchanged: 0/0
 10618 ;; Data sizes:     COMRAM   BANK0   BANK1   BANK2   BANK3   BANK4   BANK5   BANK6   BANK7   BANK8   BANK9  BANK10  BANK1
      +1  BANK12  BANK13  BANK14  BANK15
 10619 ;;      Params:         0       4       0       0       0       0       0       0       0       0       0       0       
      +0       0       0       0       0
 10620 ;;      Locals:         0       0       0       0       0       0       0       0       0       0       0       0       
      +0       0       0       0       0
 10621 ;;      Temps:          0       0       0       0       0       0       0       0       0       0       0       0       
      +0       0       0       0       0
 10622 ;;      Totals:         0       4       0       0       0       0       0       0       0       0       0       0       
      +0       0       0       0       0
 10623 ;;Total ram usage:        4 bytes
 10624 ;; Hardware stack levels used: 1
 10625 ;; Hardware stack levels required when called: 6
 10626 ;; This function calls:
 10627 ;;		Nothing
 10628 ;; This function is called by:
 10629 ;;		_Factory_init
 10630 ;; This function uses a non-reentrant model
 10631 ;;
 10632                           
 10633                           	psect	text71
 10634  0032CA                     __ptext71:
 10635                           	callstack 0
 10636  0032CA                     _Button_init:
 10637                           	callstack 23
 10638  0032CA                     
 10639                           ;board/button/button.c: 5: void Button_init(Button* me, uint8_t id, _Bool isPullUp);boar
      +                          d/button/button.c: 6: {;board/button/button.c: 7:     me->id = id;
 10640  0032CA  0060  F18B  FFD9   	movff	Button_init@me,fsr2l
 10641  0032D0  0060  F18F  FFDA   	movff	Button_init@me+1,fsr2h
 10642  0032D6  0060  F193  FFDF   	movff	Button_init@id,indf2
 10643  0032DC                     
 10644                           ;board/button/button.c: 8:     me->isPullUp = isPullUp;
 10645  0032DC  0100               	movlb	0	; () banked
 10646  0032DE  EE20 F001          	lfsr	2,1
 10647  0032E2  5162               	movf	Button_init@me& (0+255),w,b
 10648  0032E4  26D9               	addwf	fsr2l,f,c
 10649  0032E6  5163               	movf	(Button_init@me+1)& (0+255),w,b
 10650  0032E8  22DA               	addwfc	fsr2h,f,c
 10651  0032EA  0060  F197  FFDF   	movff	Button_init@isPullUp,indf2
 10652  0032F0                     
 10653                           ; BSR set to: 0
 10654  0032F0  0012               	return		;funcret
 10655  0032F2                     __end_of_Button_init:
 10656                           	callstack 0
 10657                           
 10658 ;; *************** function _ButtonSM_init *****************
 10659 ;; Defined at:
 10660 ;;		line 6 in file "board/button/buttonsm.c"
 10661 ;; Parameters:    Size  Location     Type
 10662 ;;  me              2    2[BANK0 ] PTR struct ButtonSM_
 10663 ;;		 -> theFactory.bsm_(10), theFactory(233), 
 10664 ;;  button          2    4[BANK0 ] PTR struct Button_
 10665 ;;		 -> theFactory.b_(2), theFactory(233), 
 10666 ;; Auto vars:     Size  Location     Type
 10667 ;;		None
 10668 ;; Return value:  Size  Location     Type
 10669 ;;                  1    wreg      void 
 10670 ;; Registers used:
 10671 ;;		wreg, fsr2l, fsr2h, status,2, status,0
 10672 ;; Tracked objects:
 10673 ;;		On entry : 0/0
 10674 ;;		On exit  : 0/0
 10675 ;;		Unchanged: 0/0
 10676 ;; Data sizes:     COMRAM   BANK0   BANK1   BANK2   BANK3   BANK4   BANK5   BANK6   BANK7   BANK8   BANK9  BANK10  BANK1
      +1  BANK12  BANK13  BANK14  BANK15
 10677 ;;      Params:         0       4       0       0       0       0       0       0       0       0       0       0       
      +0       0       0       0       0
 10678 ;;      Locals:         0       0       0       0       0       0       0       0       0       0       0       0       
      +0       0       0       0       0
 10679 ;;      Temps:          0       0       0       0       0       0       0       0       0       0       0       0       
      +0       0       0       0       0
 10680 ;;      Totals:         0       4       0       0       0       0       0       0       0       0       0       0       
      +0       0       0       0       0
 10681 ;;Total ram usage:        4 bytes
 10682 ;; Hardware stack levels used: 1
 10683 ;; Hardware stack levels required when called: 6
 10684 ;; This function calls:
 10685 ;;		Nothing
 10686 ;; This function is called by:
 10687 ;;		_Factory_init
 10688 ;; This function uses a non-reentrant model
 10689 ;;
 10690                           
 10691                           	psect	text72
 10692  002DFC                     __ptext72:
 10693                           	callstack 0
 10694  002DFC                     _ButtonSM_init:
 10695                           	callstack 23
 10696  002DFC                     
 10697                           ;board/button/buttonsm.c: 6: void ButtonSM_init(ButtonSM* me, Button* button);board/butt
      +                          on/buttonsm.c: 7: {;board/button/buttonsm.c: 8:     me->state = ST_BSMINIT;
 10698  002DFC  0060  F18B  FFD9   	movff	ButtonSM_init@me,fsr2l
 10699  002E02  0060  F18F  FFDA   	movff	ButtonSM_init@me+1,fsr2h
 10700  002E08  0E00               	movlw	0
 10701  002E0A  6EDF               	movwf	indf2,c
 10702  002E0C                     
 10703                           ;board/button/buttonsm.c: 9:     me->button = button;
 10704  002E0C  0100               	movlb	0	; () banked
 10705  002E0E  EE20 F001          	lfsr	2,1
 10706  002E12  5162               	movf	ButtonSM_init@me& (0+255),w,b
 10707  002E14  26D9               	addwf	fsr2l,f,c
 10708  002E16  5163               	movf	(ButtonSM_init@me+1)& (0+255),w,b
 10709  002E18  22DA               	addwfc	fsr2h,f,c
 10710  002E1A  0060  F193  FFDE   	movff	ButtonSM_init@button,postinc2
 10711  002E20  0060  F197  FFDD   	movff	ButtonSM_init@button+1,postdec2
 10712  002E26                     
 10713                           ; BSR set to: 0
 10714                           ;board/button/buttonsm.c: 11:     me->actualState = ST_BSMINIT;
 10715  002E26  EE20 F003          	lfsr	2,3
 10716  002E2A  5162               	movf	ButtonSM_init@me& (0+255),w,b
 10717  002E2C  26D9               	addwf	fsr2l,f,c
 10718  002E2E  5163               	movf	(ButtonSM_init@me+1)& (0+255),w,b
 10719  002E30  22DA               	addwfc	fsr2h,f,c
 10720  002E32  0E00               	movlw	0
 10721  002E34  6EDF               	movwf	indf2,c
 10722  002E36                     
 10723                           ; BSR set to: 0
 10724                           ;board/button/buttonsm.c: 12:     me->observer = ((void*)0);
 10725  002E36  EE20 F006          	lfsr	2,6
 10726  002E3A  5162               	movf	ButtonSM_init@me& (0+255),w,b
 10727  002E3C  26D9               	addwf	fsr2l,f,c
 10728  002E3E  5163               	movf	(ButtonSM_init@me+1)& (0+255),w,b
 10729  002E40  22DA               	addwfc	fsr2h,f,c
 10730  002E42  0E00               	movlw	0
 10731  002E44  6EDE               	movwf	postinc2,c
 10732  002E46  0E00               	movlw	0
 10733  002E48  6EDD               	movwf	postdec2,c
 10734  002E4A                     
 10735                           ; BSR set to: 0
 10736                           ;board/button/buttonsm.c: 13:     me->observerCB = ((void*)0);
 10737  002E4A  EE20 F004          	lfsr	2,4
 10738  002E4E  5162               	movf	ButtonSM_init@me& (0+255),w,b
 10739  002E50  26D9               	addwf	fsr2l,f,c
 10740  002E52  5163               	movf	(ButtonSM_init@me+1)& (0+255),w,b
 10741  002E54  22DA               	addwfc	fsr2h,f,c
 10742  002E56  0E00               	movlw	0
 10743  002E58  6EDE               	movwf	postinc2,c
 10744  002E5A  0E00               	movlw	0
 10745  002E5C  6EDD               	movwf	postdec2,c
 10746  002E5E                     
 10747                           ; BSR set to: 0
 10748  002E5E  0012               	return		;funcret
 10749  002E60                     __end_of_ButtonSM_init:
 10750                           	callstack 0
 10751                           
 10752 ;; *************** function _BLControl_init *****************
 10753 ;; Defined at:
 10754 ;;		line 6 in file "app/blcontrol.c"
 10755 ;; Parameters:    Size  Location     Type
 10756 ;;  me              2    2[BANK0 ] PTR struct BLControl_
 10757 ;;		 -> theFactory.blc_(0), theFactory(233), 
 10758 ;; Auto vars:     Size  Location     Type
 10759 ;;		None
 10760 ;; Return value:  Size  Location     Type
 10761 ;;                  1    wreg      void 
 10762 ;; Registers used:
 10763 ;;		None
 10764 ;; Tracked objects:
 10765 ;;		On entry : 0/0
 10766 ;;		On exit  : 0/0
 10767 ;;		Unchanged: 0/0
 10768 ;; Data sizes:     COMRAM   BANK0   BANK1   BANK2   BANK3   BANK4   BANK5   BANK6   BANK7   BANK8   BANK9  BANK10  BANK1
      +1  BANK12  BANK13  BANK14  BANK15
 10769 ;;      Params:         0       2       0       0       0       0       0       0       0       0       0       0       
      +0       0       0       0       0
 10770 ;;      Locals:         0       0       0       0       0       0       0       0       0       0       0       0       
      +0       0       0       0       0
 10771 ;;      Temps:          0       0       0       0       0       0       0       0       0       0       0       0       
      +0       0       0       0       0
 10772 ;;      Totals:         0       2       0       0       0       0       0       0       0       0       0       0       
      +0       0       0       0       0
 10773 ;;Total ram usage:        2 bytes
 10774 ;; Hardware stack levels used: 1
 10775 ;; Hardware stack levels required when called: 6
 10776 ;; This function calls:
 10777 ;;		Nothing
 10778 ;; This function is called by:
 10779 ;;		_Factory_init
 10780 ;; This function uses a non-reentrant model
 10781 ;;
 10782                           
 10783                           	psect	text73
 10784  003598                     __ptext73:
 10785                           	callstack 0
 10786  003598                     _BLControl_init:
 10787                           	callstack 23
 10788  003598  0012               	return		;funcret
 10789  00359A                     __end_of_BLControl_init:
 10790                           	callstack 0
 10791                           
 10792 ;; *************** function _Factory_build *****************
 10793 ;; Defined at:
 10794 ;;		line 56 in file "factory/factory.c"
 10795 ;; Parameters:    Size  Location     Type
 10796 ;;		None
 10797 ;; Auto vars:     Size  Location     Type
 10798 ;;		None
 10799 ;; Return value:  Size  Location     Type
 10800 ;;                  1    wreg      void 
 10801 ;; Registers used:
 10802 ;;		wreg, fsr2l, fsr2h, status,2, status,0, cstack
 10803 ;; Tracked objects:
 10804 ;;		On entry : 0/0
 10805 ;;		On exit  : 0/0
 10806 ;;		Unchanged: 0/0
 10807 ;; Data sizes:     COMRAM   BANK0   BANK1   BANK2   BANK3   BANK4   BANK5   BANK6   BANK7   BANK8   BANK9  BANK10  BANK1
      +1  BANK12  BANK13  BANK14  BANK15
 10808 ;;      Params:         0       0       0       0       0       0       0       0       0       0       0       0       
      +0       0       0       0       0
 10809 ;;      Locals:         0       0       0       0       0       0       0       0       0       0       0       0       
      +0       0       0       0       0
 10810 ;;      Temps:          0       0       0       0       0       0       0       0       0       0       0       0       
      +0       0       0       0       0
 10811 ;;      Totals:         0       0       0       0       0       0       0       0       0       0       0       0       
      +0       0       0       0       0
 10812 ;;Total ram usage:        0 bytes
 10813 ;; Hardware stack levels used: 1
 10814 ;; Hardware stack levels required when called: 7
 10815 ;; This function calls:
 10816 ;;		_ButtonSM_setObserver
 10817 ;;		_blc
 10818 ;;		_bsm
 10819 ;; This function is called by:
 10820 ;;		_main
 10821 ;; This function uses a non-reentrant model
 10822 ;;
 10823                           
 10824                           	psect	text74
 10825  0032F2                     __ptext74:
 10826                           	callstack 0
 10827  0032F2                     _Factory_build:
 10828                           	callstack 23
 10829  0032F2                     
 10830                           ;factory/factory.c: 58:     ButtonSM_setObserver(bsm(), blc(), &BLControl_onButton);
 10831  0032F2  ECA8  F01A         	call	_bsm	;wreg free
 10832  0032F6  C060  F062         	movff	?_bsm,ButtonSM_setObserver@me
 10833  0032FA  C061  F063         	movff	?_bsm+1,ButtonSM_setObserver@me+1
 10834  0032FE  ECAE  F01A         	call	_blc	;wreg free
 10835  003302  C060  F064         	movff	?_blc,ButtonSM_setObserver@observer
 10836  003306  C061  F065         	movff	?_blc+1,ButtonSM_setObserver@observer+1
 10837  00330A  0E2C               	movlw	low _BLControl_onButton
 10838  00330C  0100               	movlb	0	; () banked
 10839  00330E  6F66               	movwf	ButtonSM_setObserver@observerCB& (0+255),b
 10840  003310  0E30               	movlw	high _BLControl_onButton
 10841  003312  6F67               	movwf	(ButtonSM_setObserver@observerCB+1)& (0+255),b
 10842  003314  ECEF  F018         	call	_ButtonSM_setObserver	;wreg free
 10843  003318  0012               	return		;funcret
 10844  00331A                     __end_of_Factory_build:
 10845                           	callstack 0
 10846                           
 10847 ;; *************** function _bsm *****************
 10848 ;; Defined at:
 10849 ;;		line 19 in file "factory/factory.c"
 10850 ;; Parameters:    Size  Location     Type
 10851 ;;		None
 10852 ;; Auto vars:     Size  Location     Type
 10853 ;;		None
 10854 ;; Return value:  Size  Location     Type
 10855 ;;                  2    0[BANK0 ] PTR struct ButtonSM_
 10856 ;; Registers used:
 10857 ;;		wreg, status,2, status,0
 10858 ;; Tracked objects:
 10859 ;;		On entry : 0/0
 10860 ;;		On exit  : 0/0
 10861 ;;		Unchanged: 0/0
 10862 ;; Data sizes:     COMRAM   BANK0   BANK1   BANK2   BANK3   BANK4   BANK5   BANK6   BANK7   BANK8   BANK9  BANK10  BANK1
      +1  BANK12  BANK13  BANK14  BANK15
 10863 ;;      Params:         0       2       0       0       0       0       0       0       0       0       0       0       
      +0       0       0       0       0
 10864 ;;      Locals:         0       0       0       0       0       0       0       0       0       0       0       0       
      +0       0       0       0       0
 10865 ;;      Temps:          0       0       0       0       0       0       0       0       0       0       0       0       
      +0       0       0       0       0
 10866 ;;      Totals:         0       2       0       0       0       0       0       0       0       0       0       0       
      +0       0       0       0       0
 10867 ;;Total ram usage:        2 bytes
 10868 ;; Hardware stack levels used: 1
 10869 ;; Hardware stack levels required when called: 6
 10870 ;; This function calls:
 10871 ;;		Nothing
 10872 ;; This function is called by:
 10873 ;;		_Factory_init
 10874 ;;		_Factory_build
 10875 ;;		_Factory_start
 10876 ;; This function uses a non-reentrant model
 10877 ;;
 10878                           
 10879                           	psect	text75
 10880  003550                     __ptext75:
 10881                           	callstack 0
 10882  003550                     _bsm:
 10883                           	callstack 23
 10884  003550                     
 10885                           ;factory/factory.c: 21:     return &theFactory.bsm_;
 10886  003550  0E03               	movlw	low (_theFactory+3)
 10887  003552  0100               	movlb	0	; () banked
 10888  003554  6F60               	movwf	?_bsm& (0+255),b
 10889  003556  0E01               	movlw	high (_theFactory+3)
 10890  003558  6F61               	movwf	(?_bsm+1)& (0+255),b
 10891  00355A                     
 10892                           ; BSR set to: 0
 10893  00355A  0012               	return		;funcret
 10894  00355C                     __end_of_bsm:
 10895                           	callstack 0
 10896                           
 10897 ;; *************** function _blc *****************
 10898 ;; Defined at:
 10899 ;;		line 24 in file "factory/factory.c"
 10900 ;; Parameters:    Size  Location     Type
 10901 ;;		None
 10902 ;; Auto vars:     Size  Location     Type
 10903 ;;		None
 10904 ;; Return value:  Size  Location     Type
 10905 ;;                  2    0[BANK0 ] PTR struct BLControl_
 10906 ;; Registers used:
 10907 ;;		wreg, status,2, status,0
 10908 ;; Tracked objects:
 10909 ;;		On entry : 0/0
 10910 ;;		On exit  : 0/0
 10911 ;;		Unchanged: 0/0
 10912 ;; Data sizes:     COMRAM   BANK0   BANK1   BANK2   BANK3   BANK4   BANK5   BANK6   BANK7   BANK8   BANK9  BANK10  BANK1
      +1  BANK12  BANK13  BANK14  BANK15
 10913 ;;      Params:         0       2       0       0       0       0       0       0       0       0       0       0       
      +0       0       0       0       0
 10914 ;;      Locals:         0       0       0       0       0       0       0       0       0       0       0       0       
      +0       0       0       0       0
 10915 ;;      Temps:          0       0       0       0       0       0       0       0       0       0       0       0       
      +0       0       0       0       0
 10916 ;;      Totals:         0       2       0       0       0       0       0       0       0       0       0       0       
      +0       0       0       0       0
 10917 ;;Total ram usage:        2 bytes
 10918 ;; Hardware stack levels used: 1
 10919 ;; Hardware stack levels required when called: 6
 10920 ;; This function calls:
 10921 ;;		Nothing
 10922 ;; This function is called by:
 10923 ;;		_Factory_init
 10924 ;;		_Factory_build
 10925 ;; This function uses a non-reentrant model
 10926 ;;
 10927                           
 10928                           	psect	text76
 10929  00355C                     __ptext76:
 10930                           	callstack 0
 10931  00355C                     _blc:
 10932                           	callstack 23
 10933  00355C                     
 10934                           ;factory/factory.c: 26:     return &theFactory.blc_;
 10935  00355C  0E0B               	movlw	low (_theFactory+11)
 10936  00355E  0100               	movlb	0	; () banked
 10937  003560  6F60               	movwf	?_blc& (0+255),b
 10938  003562  0E01               	movlw	high (_theFactory+11)
 10939  003564  6F61               	movwf	(?_blc+1)& (0+255),b
 10940  003566                     
 10941                           ; BSR set to: 0
 10942  003566  0012               	return		;funcret
 10943  003568                     __end_of_blc:
 10944                           	callstack 0
 10945                           
 10946 ;; *************** function _ButtonSM_setObserver *****************
 10947 ;; Defined at:
 10948 ;;		line 125 in file "board/button/buttonsm.c"
 10949 ;; Parameters:    Size  Location     Type
 10950 ;;  me              2    2[BANK0 ] PTR struct ButtonSM_
 10951 ;;		 -> theFactory.bsm_(10), theFactory(233), 
 10952 ;;  observer        2    4[BANK0 ] PTR void 
 10953 ;;		 -> theFactory.blc_(0), theFactory(233), 
 10954 ;;  observerCB      2    6[BANK0 ] PTR FTN(PTR void ,unsign
 10955 ;;		 -> BLControl_onButton(1), 
 10956 ;; Auto vars:     Size  Location     Type
 10957 ;;		None
 10958 ;; Return value:  Size  Location     Type
 10959 ;;                  1    wreg      void 
 10960 ;; Registers used:
 10961 ;;		wreg, fsr2l, fsr2h, status,2, status,0
 10962 ;; Tracked objects:
 10963 ;;		On entry : 0/0
 10964 ;;		On exit  : 0/0
 10965 ;;		Unchanged: 0/0
 10966 ;; Data sizes:     COMRAM   BANK0   BANK1   BANK2   BANK3   BANK4   BANK5   BANK6   BANK7   BANK8   BANK9  BANK10  BANK1
      +1  BANK12  BANK13  BANK14  BANK15
 10967 ;;      Params:         0       6       0       0       0       0       0       0       0       0       0       0       
      +0       0       0       0       0
 10968 ;;      Locals:         0       0       0       0       0       0       0       0       0       0       0       0       
      +0       0       0       0       0
 10969 ;;      Temps:          0       0       0       0       0       0       0       0       0       0       0       0       
      +0       0       0       0       0
 10970 ;;      Totals:         0       6       0       0       0       0       0       0       0       0       0       0       
      +0       0       0       0       0
 10971 ;;Total ram usage:        6 bytes
 10972 ;; Hardware stack levels used: 1
 10973 ;; Hardware stack levels required when called: 6
 10974 ;; This function calls:
 10975 ;;		Nothing
 10976 ;; This function is called by:
 10977 ;;		_Factory_build
 10978 ;; This function uses a non-reentrant model
 10979 ;;
 10980                           
 10981                           	psect	text77
 10982  0031DE                     __ptext77:
 10983                           	callstack 0
 10984  0031DE                     _ButtonSM_setObserver:
 10985                           	callstack 23
 10986  0031DE                     
 10987                           ;board/button/buttonsm.c: 125: void ButtonSM_setObserver(ButtonSM* me, void* observer, b
      +                          uttonObserverCBT observerCB);board/button/buttonsm.c: 126: {;board/button/buttonsm.c: 12
      +                          7:     me->observer = observer;
 10988  0031DE  0100               	movlb	0	; () banked
 10989  0031E0  EE20 F006          	lfsr	2,6
 10990  0031E4  5162               	movf	ButtonSM_setObserver@me& (0+255),w,b
 10991  0031E6  26D9               	addwf	fsr2l,f,c
 10992  0031E8  5163               	movf	(ButtonSM_setObserver@me+1)& (0+255),w,b
 10993  0031EA  22DA               	addwfc	fsr2h,f,c
 10994  0031EC  0060  F193  FFDE   	movff	ButtonSM_setObserver@observer,postinc2
 10995  0031F2  0060  F197  FFDD   	movff	ButtonSM_setObserver@observer+1,postdec2
 10996                           
 10997                           ;board/button/buttonsm.c: 128:     me->observerCB = observerCB;
 10998  0031F8  EE20 F004          	lfsr	2,4
 10999  0031FC  5162               	movf	ButtonSM_setObserver@me& (0+255),w,b
 11000  0031FE  26D9               	addwf	fsr2l,f,c
 11001  003200  5163               	movf	(ButtonSM_setObserver@me+1)& (0+255),w,b
 11002  003202  22DA               	addwfc	fsr2h,f,c
 11003  003204  0060  F19B  FFDE   	movff	ButtonSM_setObserver@observerCB,postinc2
 11004  00320A  0060  F19F  FFDD   	movff	ButtonSM_setObserver@observerCB+1,postdec2
 11005  003210                     
 11006                           ; BSR set to: 0
 11007  003210  0012               	return		;funcret
 11008  003212                     __end_of_ButtonSM_setObserver:
 11009                           	callstack 0
 11010                           
 11011 ;; *************** function _INTERRUPT_InterruptManager *****************
 11012 ;; Defined at:
 11013 ;;		line 58 in file "mcc_generated_files/interrupt_manager.c"
 11014 ;; Parameters:    Size  Location     Type
 11015 ;;		None
 11016 ;; Auto vars:     Size  Location     Type
 11017 ;;		None
 11018 ;; Return value:  Size  Location     Type
 11019 ;;                  1    wreg      void 
 11020 ;; Registers used:
 11021 ;;		wreg, fsr0l, fsr0h, fsr1l, fsr1h, fsr2l, fsr2h, status,2, status,0, pcl, pclath, pclatu, tosl, prodl, prodh, cstack
 11022 ;; Tracked objects:
 11023 ;;		On entry : 0/0
 11024 ;;		On exit  : 0/0
 11025 ;;		Unchanged: 0/0
 11026 ;; Data sizes:     COMRAM   BANK0   BANK1   BANK2   BANK3   BANK4   BANK5   BANK6   BANK7   BANK8   BANK9  BANK10  BANK1
      +1  BANK12  BANK13  BANK14  BANK15
 11027 ;;      Params:         0       0       0       0       0       0       0       0       0       0       0       0       
      +0       0       0       0       0
 11028 ;;      Locals:         0       0       0       0       0       0       0       0       0       0       0       0       
      +0       0       0       0       0
 11029 ;;      Temps:          2       0       0       0       0       0       0       0       0       0       0       0       
      +0       0       0       0       0
 11030 ;;      Totals:         2       0       0       0       0       0       0       0       0       0       0       0       
      +0       0       0       0       0
 11031 ;;Total ram usage:        2 bytes
 11032 ;; Hardware stack levels used: 1
 11033 ;; Hardware stack levels required when called: 5
 11034 ;; This function calls:
 11035 ;;		_TMR0_ISR
 11036 ;; This function is called by:
 11037 ;;		Interrupt level 2
 11038 ;; This function uses a non-reentrant model
 11039 ;;
 11040                           
 11041                           	psect	text78
 11042  002F82                     __ptext78:
 11043                           	callstack 0
 11044  002F82                     _INTERRUPT_InterruptManager:
 11045                           	callstack 18
 11046                           
 11047                           ; BSR set to: 0
 11048                           ;incstack = 0
 11049  002F82  006F FFE8  F02F    	movff	pclath,??_INTERRUPT_InterruptManager
 11050  002F88  006F FFEC  F030    	movff	pclatu,??_INTERRUPT_InterruptManager+1
 11051  002F8E                     
 11052                           ;mcc_generated_files/interrupt_manager.c: 61:     if(PIE5bits.WAKIE == 1 && PIR5bits.WAK
      +                          IF == 1)
 11053  002F8E  0139               	movlb	57	; () banked
 11054  002F90  AD95               	btfss	149,6,b	;volatile
 11055  002F92  EFCD  F017         	goto	i2u290_41
 11056  002F96  EFCF  F017         	goto	i2u290_40
 11057  002F9A                     i2u290_41:
 11058  002F9A  EFD8  F017         	goto	i2l387
 11059  002F9E                     i2u290_40:
 11060  002F9E                     
 11061                           ; BSR set to: 57
 11062  002F9E  ADA5               	btfss	165,6,b	;volatile
 11063  002FA0  EFD4  F017         	goto	i2u291_41
 11064  002FA4  EFD6  F017         	goto	i2u291_40
 11065  002FA8                     i2u291_41:
 11066  002FA8  EFD8  F017         	goto	i2l387
 11067  002FAC                     i2u291_40:
 11068  002FAC  EFE8  F017         	goto	i2l391
 11069  002FB0                     i2l387:
 11070                           
 11071                           ; BSR set to: 57
 11072  002FB0  AF93               	btfss	147,7,b	;volatile
 11073  002FB2  EFDD  F017         	goto	i2u292_41
 11074  002FB6  EFDF  F017         	goto	i2u292_40
 11075  002FBA                     i2u292_41:
 11076  002FBA  EFE8  F017         	goto	i2l391
 11077  002FBE                     i2u292_40:
 11078  002FBE                     
 11079                           ; BSR set to: 57
 11080  002FBE  AFA3               	btfss	163,7,b	;volatile
 11081  002FC0  EFE4  F017         	goto	i2u293_41
 11082  002FC4  EFE6  F017         	goto	i2u293_40
 11083  002FC8                     i2u293_41:
 11084  002FC8  EFE8  F017         	goto	i2l391
 11085  002FCC                     i2u293_40:
 11086  002FCC                     
 11087                           ; BSR set to: 57
 11088                           ;mcc_generated_files/interrupt_manager.c: 67:     {;mcc_generated_files/interrupt_manage
      +                          r.c: 68:         TMR0_ISR();
 11089  002FCC  EC09  F019         	call	_TMR0_ISR	;wreg free
 11090  002FD0                     i2l391:
 11091  002FD0  0060  F0C3  FFFB   	movff	??_INTERRUPT_InterruptManager+1,pclatu
 11092  002FD6  0060  F0BF  FFFA   	movff	??_INTERRUPT_InterruptManager,pclath
 11093  002FDC  0011               	retfie		f
 11094  002FDE                     __end_of_INTERRUPT_InterruptManager:
 11095                           	callstack 0
 11096                           
 11097 ;; *************** function _TMR0_ISR *****************
 11098 ;; Defined at:
 11099 ;;		line 121 in file "mcc_generated_files/tmr0.c"
 11100 ;; Parameters:    Size  Location     Type
 11101 ;;		None
 11102 ;; Auto vars:     Size  Location     Type
 11103 ;;		None
 11104 ;; Return value:  Size  Location     Type
 11105 ;;                  1    wreg      void 
 11106 ;; Registers used:
 11107 ;;		wreg, fsr0l, fsr0h, fsr1l, fsr1h, fsr2l, fsr2h, status,2, status,0, pcl, pclath, pclatu, tosl, prodl, prodh, cstack
 11108 ;; Tracked objects:
 11109 ;;		On entry : 0/0
 11110 ;;		On exit  : 0/0
 11111 ;;		Unchanged: 0/0
 11112 ;; Data sizes:     COMRAM   BANK0   BANK1   BANK2   BANK3   BANK4   BANK5   BANK6   BANK7   BANK8   BANK9  BANK10  BANK1
      +1  BANK12  BANK13  BANK14  BANK15
 11113 ;;      Params:         0       0       0       0       0       0       0       0       0       0       0       0       
      +0       0       0       0       0
 11114 ;;      Locals:         0       0       0       0       0       0       0       0       0       0       0       0       
      +0       0       0       0       0
 11115 ;;      Temps:          0       0       0       0       0       0       0       0       0       0       0       0       
      +0       0       0       0       0
 11116 ;;      Totals:         0       0       0       0       0       0       0       0       0       0       0       0       
      +0       0       0       0       0
 11117 ;;Total ram usage:        0 bytes
 11118 ;; Hardware stack levels used: 1
 11119 ;; Hardware stack levels required when called: 4
 11120 ;; This function calls:
 11121 ;;		Absolute function
 11122 ;;		_TMR0_DefaultInterruptHandler
 11123 ;;		_XF_decrementAndQueueTimers
 11124 ;; This function is called by:
 11125 ;;		_INTERRUPT_InterruptManager
 11126 ;; This function uses a non-reentrant model
 11127 ;;
 11128                           
 11129                           	psect	text79
 11130  003212                     __ptext79:
 11131                           	callstack 0
 11132  003212                     _TMR0_ISR:
 11133                           	callstack 18
 11134  003212                     
 11135                           ;mcc_generated_files/tmr0.c: 124:     PIR3bits.TMR0IF = 0;
 11136  003212  0139               	movlb	57	; () banked
 11137  003214  9FA3               	bcf	163,7,b	;volatile
 11138  003216                     
 11139                           ; BSR set to: 57
 11140                           ;mcc_generated_files/tmr0.c: 125:     if(TMR0_InterruptHandler)
 11141  003216  5031               	movf	_TMR0_InterruptHandler^0,w,c
 11142  003218  1032               	iorwf	(_TMR0_InterruptHandler+1)^0,w,c
 11143  00321A  B4D8               	btfsc	status,2,c
 11144  00321C  EF12  F019         	goto	i2u275_41
 11145  003220  EF14  F019         	goto	i2u275_40
 11146  003224                     i2u275_41:
 11147  003224  EF21  F019         	goto	i2l433
 11148  003228                     i2u275_40:
 11149  003228                     
 11150                           ; BSR set to: 57
 11151                           ;mcc_generated_files/tmr0.c: 126:     {;mcc_generated_files/tmr0.c: 127:         TMR0_In
      +                          terruptHandler();
 11152  003228  D802               	call	i2u276_48
 11153  00322A  EF21  F019         	goto	i2u276_49
 11154  00322E                     i2u276_48:
 11155  00322E  0005               	push	
 11156  003230  6EFA               	movwf	pclath,c
 11157  003232  5031               	movf	_TMR0_InterruptHandler^0,w,c
 11158  003234  6EFD               	movwf	tosl,c
 11159  003236  5032               	movf	(_TMR0_InterruptHandler+1)^0,w,c
 11160  003238  6EFE               	movwf	tosh,c
 11161  00323A  50F8               	movf	tblptru,w,c
 11162  00323C  6EFF               	movwf	tosu,c
 11163  00323E  50FA               	movf	pclath,w,c
 11164  003240  0012               	return		;indir
 11165  003242                     i2u276_49:
 11166  003242                     i2l433:
 11167  003242  0012               	return		;funcret
 11168  003244                     __end_of_TMR0_ISR:
 11169                           	callstack 0
 11170                           
 11171 ;; *************** function _TMR0_DefaultInterruptHandler *****************
 11172 ;; Defined at:
 11173 ;;		line 138 in file "mcc_generated_files/tmr0.c"
 11174 ;; Parameters:    Size  Location     Type
 11175 ;;		None
 11176 ;; Auto vars:     Size  Location     Type
 11177 ;;		None
 11178 ;; Return value:  Size  Location     Type
 11179 ;;                  1    wreg      void 
 11180 ;; Registers used:
 11181 ;;		None
 11182 ;; Tracked objects:
 11183 ;;		On entry : 0/0
 11184 ;;		On exit  : 0/0
 11185 ;;		Unchanged: 0/0
 11186 ;; Data sizes:     COMRAM   BANK0   BANK1   BANK2   BANK3   BANK4   BANK5   BANK6   BANK7   BANK8   BANK9  BANK10  BANK1
      +1  BANK12  BANK13  BANK14  BANK15
 11187 ;;      Params:         0       0       0       0       0       0       0       0       0       0       0       0       
      +0       0       0       0       0
 11188 ;;      Locals:         0       0       0       0       0       0       0       0       0       0       0       0       
      +0       0       0       0       0
 11189 ;;      Temps:          0       0       0       0       0       0       0       0       0       0       0       0       
      +0       0       0       0       0
 11190 ;;      Totals:         0       0       0       0       0       0       0       0       0       0       0       0       
      +0       0       0       0       0
 11191 ;;Total ram usage:        0 bytes
 11192 ;; Hardware stack levels used: 1
 11193 ;; This function calls:
 11194 ;;		Nothing
 11195 ;; This function is called by:
 11196 ;;		_TMR0_Initialize
 11197 ;;		_TMR0_ISR
 11198 ;; This function uses a non-reentrant model
 11199 ;;
 11200                           
 11201                           	psect	text80
 11202  00359A                     __ptext80:
 11203                           	callstack 0
 11204  00359A                     _TMR0_DefaultInterruptHandler:
 11205                           	callstack 21
 11206  00359A  0012               	return		;funcret
 11207  00359C                     __end_of_TMR0_DefaultInterruptHandler:
 11208                           	callstack 0
 11209                           
 11210 ;; *************** function _XF_decrementAndQueueTimers *****************
 11211 ;; Defined at:
 11212 ;;		line 200 in file "xf/xf.c"
 11213 ;; Parameters:    Size  Location     Type
 11214 ;;		None
 11215 ;; Auto vars:     Size  Location     Type
 11216 ;;  dummy           1   44[COMRAM] unsigned char 
 11217 ;;  i               1   45[COMRAM] unsigned char 
 11218 ;; Return value:  Size  Location     Type
 11219 ;;                  1    wreg      void 
 11220 ;; Registers used:
 11221 ;;		wreg, fsr0l, fsr0h, fsr1l, fsr1h, fsr2l, fsr2h, status,2, status,0, prodl, prodh, cstack
 11222 ;; Tracked objects:
 11223 ;;		On entry : 0/0
 11224 ;;		On exit  : 0/0
 11225 ;;		Unchanged: 0/0
 11226 ;; Data sizes:     COMRAM   BANK0   BANK1   BANK2   BANK3   BANK4   BANK5   BANK6   BANK7   BANK8   BANK9  BANK10  BANK1
      +1  BANK12  BANK13  BANK14  BANK15
 11227 ;;      Params:         0       0       0       0       0       0       0       0       0       0       0       0       
      +0       0       0       0       0
 11228 ;;      Locals:         2       0       0       0       0       0       0       0       0       0       0       0       
      +0       0       0       0       0
 11229 ;;      Temps:          2       0       0       0       0       0       0       0       0       0       0       0       
      +0       0       0       0       0
 11230 ;;      Totals:         4       0       0       0       0       0       0       0       0       0       0       0       
      +0       0       0       0       0
 11231 ;;Total ram usage:        4 bytes
 11232 ;; Hardware stack levels used: 1
 11233 ;; Hardware stack levels required when called: 3
 11234 ;; This function calls:
 11235 ;;		_XF_unscheduleTimer
 11236 ;;		i2_XF_pushEvent
 11237 ;; This function is called by:
 11238 ;;		_main
 11239 ;;		_TMR0_ISR
 11240 ;; This function uses a non-reentrant model
 11241 ;;
 11242                           
 11243                           	psect	text81
 11244  002010                     __ptext81:
 11245                           	callstack 0
 11246  002010                     _XF_decrementAndQueueTimers:
 11247                           	callstack 18
 11248  002010                     
 11249                           ;xf/xf.c: 202:     uint8_t i;;xf/xf.c: 203:     for (i=0; i<8; i++)
 11250  002010  0E00               	movlw	0
 11251  002012  6E2E               	movwf	XF_decrementAndQueueTimers@i^0,c
 11252  002014                     i2l5219:
 11253                           
 11254                           ;xf/xf.c: 204:     {;xf/xf.c: 205:         if (theXF.timerList[i].ev.id != 0)
 11255  002014  502E               	movf	XF_decrementAndQueueTimers@i^0,w,c
 11256  002016  0D11               	mullw	17
 11257  002018  0EEB               	movlw	low (_theXF+2)
 11258  00201A  24F3               	addwf	243,w,c
 11259  00201C  6ED9               	movwf	fsr2l,c
 11260  00201E  0E01               	movlw	high (_theXF+2)
 11261  002020  20F4               	addwfc	prodh,w,c
 11262  002022  6EDA               	movwf	fsr2h,c
 11263  002024  50DF               	movf	indf2,w,c
 11264  002026  B4D8               	btfsc	status,2,c
 11265  002028  EF18  F010         	goto	i2u270_41
 11266  00202C  EF1A  F010         	goto	i2u270_40
 11267  002030                     i2u270_41:
 11268  002030  EF6A  F010         	goto	i2l5229
 11269  002034                     i2u270_40:
 11270  002034                     
 11271                           ;xf/xf.c: 206:         {;xf/xf.c: 207:             theXF.timerList[i].tm-=10;
 11272  002034  502E               	movf	XF_decrementAndQueueTimers@i^0,w,c
 11273  002036  0D11               	mullw	17
 11274  002038  0EE9               	movlw	low _theXF
 11275  00203A  24F3               	addwf	243,w,c
 11276  00203C  6ED9               	movwf	fsr2l,c
 11277  00203E  0E01               	movlw	high _theXF
 11278  002040  20F4               	addwfc	prodh,w,c
 11279  002042  6EDA               	movwf	fsr2h,c
 11280  002044  0E0A               	movlw	10
 11281  002046  5EDE               	subwf	postinc2,f,c
 11282  002048  0E00               	movlw	0
 11283  00204A  5ADD               	subwfb	postdec2,f,c
 11284                           
 11285                           ;xf/xf.c: 208:             if (theXF.timerList[i].tm ==0)
 11286  00204C  502E               	movf	XF_decrementAndQueueTimers@i^0,w,c
 11287  00204E  0D11               	mullw	17
 11288  002050  0EE9               	movlw	low _theXF
 11289  002052  24F3               	addwf	243,w,c
 11290  002054  6ED9               	movwf	fsr2l,c
 11291  002056  0E01               	movlw	high _theXF
 11292  002058  20F4               	addwfc	prodh,w,c
 11293  00205A  6EDA               	movwf	fsr2h,c
 11294  00205C  50DE               	movf	postinc2,w,c
 11295  00205E  10DE               	iorwf	postinc2,w,c
 11296  002060  A4D8               	btfss	status,2,c
 11297  002062  EF35  F010         	goto	i2u271_41
 11298  002066  EF37  F010         	goto	i2u271_40
 11299  00206A                     i2u271_41:
 11300  00206A  EF6A  F010         	goto	i2l5229
 11301  00206E                     i2u271_40:
 11302  00206E                     
 11303                           ;xf/xf.c: 209:             {;xf/xf.c: 210:                 uint8_t dummy;;xf/xf.c: 211: 
      +                                          if (XF_pushEvent(theXF.timerList[i].ev, 1, &dummy) == 1)
 11304  00206E  502E               	movf	XF_decrementAndQueueTimers@i^0,w,c
 11305  002070  0D11               	mullw	17
 11306  002072  0EEB               	movlw	low (_theXF+2)
 11307  002074  24F3               	addwf	243,w,c
 11308  002076  6ED9               	movwf	fsr2l,c
 11309  002078  0E01               	movlw	high (_theXF+2)
 11310  00207A  20F4               	addwfc	prodh,w,c
 11311  00207C  6EDA               	movwf	fsr2h,c
 11312  00207E  EE00  F015         	lfsr	0,i2XF_pushEvent@ev
 11313  002082  0E0E               	movlw	14
 11314  002084                     i2u272_41:
 11315  002084  006F FF6F FFEB     	movff	plusw2,plusw0
 11316  00208A  06E8               	decf	wreg,f,c
 11317  00208C  E2FB               	bc	i2u272_41
 11318  00208E  0E01               	movlw	1
 11319  002090  6E24               	movwf	i2XF_pushEvent@inISR^0,c
 11320  002092  0E2D               	movlw	low XF_decrementAndQueueTimers@dummy
 11321  002094  6E25               	movwf	i2XF_pushEvent@tmid^0,c
 11322  002096  0E00               	movlw	high XF_decrementAndQueueTimers@dummy
 11323  002098  6E26               	movwf	(i2XF_pushEvent@tmid+1)^0,c
 11324  00209A  EC1F  F00F         	call	i2_XF_pushEvent	;wreg free
 11325  00209E  06E8               	decf	wreg,f,c
 11326  0020A0  A4D8               	btfss	status,2,c
 11327  0020A2  EF55  F010         	goto	i2u273_41
 11328  0020A6  EF57  F010         	goto	i2u273_40
 11329  0020AA                     i2u273_41:
 11330  0020AA  EF5E  F010         	goto	i2l5227
 11331  0020AE                     i2u273_40:
 11332  0020AE                     
 11333                           ;xf/xf.c: 212:                 {;xf/xf.c: 213:                   XF_unscheduleTimer(i, 1
      +                          );
 11334  0020AE  0E01               	movlw	1
 11335  0020B0  6E03               	movwf	XF_unscheduleTimer@inISR^0,c
 11336  0020B2  502E               	movf	XF_decrementAndQueueTimers@i^0,w,c
 11337  0020B4  EC9A  F018         	call	_XF_unscheduleTimer
 11338                           
 11339                           ;xf/xf.c: 214:                 }
 11340  0020B8  EF6A  F010         	goto	i2l5229
 11341  0020BC                     i2l5227:
 11342                           
 11343                           ;xf/xf.c: 216:                 {;xf/xf.c: 217:                   theXF.timerList[i].tm=1
      +                          ;
 11344  0020BC  502E               	movf	XF_decrementAndQueueTimers@i^0,w,c
 11345  0020BE  0D11               	mullw	17
 11346  0020C0  0EE9               	movlw	low _theXF
 11347  0020C2  24F3               	addwf	243,w,c
 11348  0020C4  6ED9               	movwf	fsr2l,c
 11349  0020C6  0E01               	movlw	high _theXF
 11350  0020C8  20F4               	addwfc	prodh,w,c
 11351  0020CA  6EDA               	movwf	fsr2h,c
 11352  0020CC  0E01               	movlw	1
 11353  0020CE  6EDE               	movwf	postinc2,c
 11354  0020D0  0E00               	movlw	0
 11355  0020D2  6EDD               	movwf	postdec2,c
 11356  0020D4                     i2l5229:
 11357                           
 11358                           ;xf/xf.c: 221:     }
 11359  0020D4  2A2E               	incf	XF_decrementAndQueueTimers@i^0,f,c
 11360  0020D6  0E07               	movlw	7
 11361  0020D8  642E               	cpfsgt	XF_decrementAndQueueTimers@i^0,c
 11362  0020DA  EF71  F010         	goto	i2u274_41
 11363  0020DE  EF73  F010         	goto	i2u274_40
 11364  0020E2                     i2u274_41:
 11365  0020E2  EF0A  F010         	goto	i2l5219
 11366  0020E6                     i2u274_40:
 11367  0020E6  0012               	return		;funcret
 11368  0020E8                     __end_of_XF_decrementAndQueueTimers:
 11369                           	callstack 0
 11370                           
 11371 ;; *************** function i2_XF_pushEvent *****************
 11372 ;; Defined at:
 11373 ;;		line 97 in file "xf/xf.c"
 11374 ;; Parameters:    Size  Location     Type
 11375 ;;  ev             15   20[COMRAM] struct Event_
 11376 ;;  inISR           1   35[COMRAM] _Bool 
 11377 ;;  tmid            2   36[COMRAM] PTR unsigned char 
 11378 ;;		 -> POST@tmid(1), XF_decrementAndQueueTimers@dummy(1), 
 11379 ;; Auto vars:     Size  Location     Type
 11380 ;;  tm              2   39[COMRAM] unsigned short 
 11381 ;;  temp            1   41[COMRAM] unsigned char 
 11382 ;; Return value:  Size  Location     Type
 11383 ;;                  1    wreg      _Bool 
 11384 ;; Registers used:
 11385 ;;		wreg, fsr0l, fsr0h, fsr1l, fsr1h, fsr2l, fsr2h, status,2, status,0, prodl, prodh, cstack
 11386 ;; Tracked objects:
 11387 ;;		On entry : 0/0
 11388 ;;		On exit  : 0/0
 11389 ;;		Unchanged: 0/0
 11390 ;; Data sizes:     COMRAM   BANK0   BANK1   BANK2   BANK3   BANK4   BANK5   BANK6   BANK7   BANK8   BANK9  BANK10  BANK1
      +1  BANK12  BANK13  BANK14  BANK15
 11391 ;;      Params:        18       0       0       0       0       0       0       0       0       0       0       0       
      +0       0       0       0       0
 11392 ;;      Locals:         3       0       0       0       0       0       0       0       0       0       0       0       
      +0       0       0       0       0
 11393 ;;      Temps:          1       0       0       0       0       0       0       0       0       0       0       0       
      +0       0       0       0       0
 11394 ;;      Totals:        22       0       0       0       0       0       0       0       0       0       0       0       
      +0       0       0       0       0
 11395 ;;Total ram usage:       22 bytes
 11396 ;; Hardware stack levels used: 1
 11397 ;; Hardware stack levels required when called: 2
 11398 ;; This function calls:
 11399 ;;		i2_ENTERCRITICAL
 11400 ;;		i2_Event_getDelay
 11401 ;;		i2_Event_setDelay
 11402 ;;		i2_LEAVECRITICAL
 11403 ;;		i2_XF_scheduleTimer
 11404 ;;		i2___awmod
 11405 ;; This function is called by:
 11406 ;;		_XF_decrementAndQueueTimers
 11407 ;; This function uses a non-reentrant model
 11408 ;;
 11409                           
 11410                           	psect	text82
 11411  001E3E                     __ptext82:
 11412                           	callstack 0
 11413  001E3E                     i2_XF_pushEvent:
 11414                           	callstack 18
 11415  001E3E                     
 11416                           ;xf/xf.c: 97: _Bool XF_pushEvent(Event ev, _Bool inISR, uint8_t* tmid);xf/xf.c: 98: {;xf
      +                          /xf.c: 99:     uint8_t temp;;xf/xf.c: 100:     uint16_t tm;;xf/xf.c: 101:     tm = Event
      +                          _getDelay(&ev);
 11417  001E3E  0E15               	movlw	low i2XF_pushEvent@ev
 11418  001E40  6E01               	movwf	i2Event_getDelay@me^0,c
 11419  001E42  0E00               	movlw	high i2XF_pushEvent@ev
 11420  001E44  6E02               	movwf	(i2Event_getDelay@me+1)^0,c
 11421  001E46  EC30  F01A         	call	i2_Event_getDelay	;wreg free
 11422  001E4A  C001  F028         	movff	?i2_Event_getDelay,i2XF_pushEvent@tm
 11423  001E4E  C002  F029         	movff	?i2_Event_getDelay+1,i2XF_pushEvent@tm+1
 11424  001E52                     
 11425                           ;xf/xf.c: 102:     if ( tm > 0)
 11426  001E52  5028               	movf	i2XF_pushEvent@tm^0,w,c
 11427  001E54  1029               	iorwf	(i2XF_pushEvent@tm+1)^0,w,c
 11428  001E56  B4D8               	btfsc	status,2,c
 11429  001E58  EF30  F00F         	goto	i2u216_41
 11430  001E5C  EF32  F00F         	goto	i2u216_40
 11431  001E60                     i2u216_41:
 11432  001E60  EF57  F00F         	goto	i2l4691
 11433  001E64                     i2u216_40:
 11434  001E64                     
 11435                           ;xf/xf.c: 103:     {;xf/xf.c: 104:         Event_setDelay(&ev,0);
 11436  001E64  0E15               	movlw	low i2XF_pushEvent@ev
 11437  001E66  6E01               	movwf	i2Event_setDelay@me^0,c
 11438  001E68  0E00               	movlw	high i2XF_pushEvent@ev
 11439  001E6A  6E02               	movwf	(i2Event_setDelay@me+1)^0,c
 11440  001E6C  0E00               	movlw	0
 11441  001E6E  6E04               	movwf	(i2Event_setDelay@delay+1)^0,c
 11442  001E70  0E00               	movlw	0
 11443  001E72  6E03               	movwf	i2Event_setDelay@delay^0,c
 11444  001E74  EC23  F01A         	call	i2_Event_setDelay	;wreg free
 11445  001E78                     
 11446                           ;xf/xf.c: 105:         *tmid = XF_scheduleTimer(tm, ev, inISR);
 11447  001E78  C028  F002         	movff	i2XF_pushEvent@tm,i2XF_scheduleTimer@tm
 11448  001E7C  C029  F003         	movff	i2XF_pushEvent@tm+1,i2XF_scheduleTimer@tm+1
 11449  001E80  EE20  F015         	lfsr	2,i2XF_pushEvent@ev
 11450  001E84  EE00  F004         	lfsr	0,i2XF_scheduleTimer@ev
 11451  001E88  0E0E               	movlw	14
 11452  001E8A                     i2u217_41:
 11453  001E8A  006F FF6F FFEB     	movff	plusw2,plusw0
 11454  001E90  06E8               	decf	wreg,f,c
 11455  001E92  E2FB               	bc	i2u217_41
 11456  001E94  C024  F013         	movff	i2XF_pushEvent@inISR,i2XF_scheduleTimer@inISR
 11457  001E98  ECF1  F014         	call	i2_XF_scheduleTimer	;wreg free
 11458  001E9C  0060  F097  FFD9   	movff	i2XF_pushEvent@tmid,fsr2l
 11459  001EA2  0060  F09B  FFDA   	movff	i2XF_pushEvent@tmid+1,fsr2h
 11460  001EA8  6EDF               	movwf	indf2,c
 11461                           
 11462                           ;xf/xf.c: 106:     }
 11463  001EAA  EF97  F00F         	goto	i2l4709
 11464  001EAE                     i2l4691:
 11465                           
 11466                           ;xf/xf.c: 108:     {;xf/xf.c: 109:         ENTERCRITICAL(inISR);
 11467  001EAE  5024               	movf	i2XF_pushEvent@inISR^0,w,c
 11468  001EB0  EC54  F01A         	call	i2_ENTERCRITICAL
 11469  001EB4                     
 11470                           ;xf/xf.c: 111:         temp = (theXF.in+1) % (uint8_t)(sizeof(theXF.eventQueue) / sizeof
      +                          (Event));
 11471  001EB4  0060  FC94  F027   	movff	_theXF+316,??i2_XF_pushEvent
 11472  001EBA  0E01               	movlw	1
 11473  001EBC  2427               	addwf	??i2_XF_pushEvent^0,w,c
 11474  001EBE  6E01               	movwf	i2___awmod@dividend^0,c
 11475  001EC0  6A02               	clrf	(i2___awmod@dividend+1)^0,c
 11476  001EC2  0E00               	movlw	0
 11477  001EC4  2202               	addwfc	(i2___awmod@dividend+1)^0,f,c
 11478  001EC6  0E00               	movlw	0
 11479  001EC8  6E04               	movwf	(i2___awmod@divisor+1)^0,c
 11480  001ECA  0E0C               	movlw	12
 11481  001ECC  6E03               	movwf	i2___awmod@divisor^0,c
 11482  001ECE  ECE6  F011         	call	i2___awmod	;wreg free
 11483  001ED2  5001               	movf	?i2___awmod^0,w,c
 11484  001ED4  6E2A               	movwf	i2XF_pushEvent@temp^0,c
 11485  001ED6                     
 11486                           ;xf/xf.c: 112:         if(temp == theXF.out)
 11487  001ED6  EE20  F326         	lfsr	2,_theXF+317
 11488  001EDA  502A               	movf	i2XF_pushEvent@temp^0,w,c
 11489  001EDC  18DE               	xorwf	postinc2,w,c
 11490  001EDE  A4D8               	btfss	status,2,c
 11491  001EE0  EF74  F00F         	goto	i2u218_41
 11492  001EE4  EF76  F00F         	goto	i2u218_40
 11493  001EE8                     i2u218_41:
 11494  001EE8  EF7C  F00F         	goto	i2l4703
 11495  001EEC                     i2u218_40:
 11496  001EEC                     
 11497                           ;xf/xf.c: 113:         {;xf/xf.c: 114:           LEAVECRITICAL(inISR);
 11498  001EEC  5024               	movf	i2XF_pushEvent@inISR^0,w,c
 11499  001EEE  EC49  F01A         	call	i2_LEAVECRITICAL
 11500  001EF2                     
 11501                           ;xf/xf.c: 115:           return 0;
 11502  001EF2  0E00               	movlw	0
 11503  001EF4  EF98  F00F         	goto	i2l1150
 11504  001EF8                     i2l4703:
 11505                           
 11506                           ;xf/xf.c: 117:         theXF.eventQueue[theXF.in] = ev;
 11507  001EF8  EE20  F015         	lfsr	2,i2XF_pushEvent@ev
 11508  001EFC  0060  FC94  F027   	movff	_theXF+316,??i2_XF_pushEvent
 11509  001F02  5027               	movf	??i2_XF_pushEvent^0,w,c
 11510  001F04  0D0F               	mullw	15
 11511  001F06  0E71               	movlw	low (_theXF+136)
 11512  001F08  24F3               	addwf	243,w,c
 11513  001F0A  6EE1               	movwf	fsr1l,c
 11514  001F0C  0E02               	movlw	high (_theXF+136)
 11515  001F0E  20F4               	addwfc	prodh,w,c
 11516  001F10  6EE2               	movwf	fsr1h,c
 11517  001F12  0E0E               	movlw	14
 11518  001F14                     i2u219_41:
 11519  001F14  006F FF6F FFE3     	movff	plusw2,plusw1
 11520  001F1A  06E8               	decf	wreg,f,c
 11521  001F1C  E2FB               	bc	i2u219_41
 11522  001F1E                     
 11523                           ;xf/xf.c: 118:         theXF.in = temp;
 11524  001F1E  EE20  F325         	lfsr	2,_theXF+316
 11525  001F22  0060  F0AB  FFDF   	movff	i2XF_pushEvent@temp,indf2
 11526  001F28                     
 11527                           ;xf/xf.c: 119:         LEAVECRITICAL(inISR);
 11528  001F28  5024               	movf	i2XF_pushEvent@inISR^0,w,c
 11529  001F2A  EC49  F01A         	call	i2_LEAVECRITICAL
 11530  001F2E                     i2l4709:
 11531                           
 11532                           ;xf/xf.c: 121:     return 1;
 11533  001F2E  0E01               	movlw	1
 11534  001F30                     i2l1150:
 11535  001F30  0012               	return		;funcret
 11536  001F32                     __end_ofi2_XF_pushEvent:
 11537                           	callstack 0
 11538                           
 11539 ;; *************** function i2___awmod *****************
 11540 ;; Defined at:
 11541 ;;		line 7 in file "C:\Program Files\Microchip\xc8\v2.36\pic\sources\c99\common\awmod.c"
 11542 ;; Parameters:    Size  Location     Type
 11543 ;;  dividend        2    0[COMRAM] int 
 11544 ;;  divisor         2    2[COMRAM] int 
 11545 ;; Auto vars:     Size  Location     Type
 11546 ;;  sign            1    5[COMRAM] unsigned char 
 11547 ;;  counter         1    4[COMRAM] unsigned char 
 11548 ;; Return value:  Size  Location     Type
 11549 ;;                  2    0[COMRAM] int 
 11550 ;; Registers used:
 11551 ;;		wreg, status,2, status,0
 11552 ;; Tracked objects:
 11553 ;;		On entry : 0/0
 11554 ;;		On exit  : 0/0
 11555 ;;		Unchanged: 0/0
 11556 ;; Data sizes:     COMRAM   BANK0   BANK1   BANK2   BANK3   BANK4   BANK5   BANK6   BANK7   BANK8   BANK9  BANK10  BANK1
      +1  BANK12  BANK13  BANK14  BANK15
 11557 ;;      Params:         4       0       0       0       0       0       0       0       0       0       0       0       
      +0       0       0       0       0
 11558 ;;      Locals:         2       0       0       0       0       0       0       0       0       0       0       0       
      +0       0       0       0       0
 11559 ;;      Temps:          0       0       0       0       0       0       0       0       0       0       0       0       
      +0       0       0       0       0
 11560 ;;      Totals:         6       0       0       0       0       0       0       0       0       0       0       0       
      +0       0       0       0       0
 11561 ;;Total ram usage:        6 bytes
 11562 ;; Hardware stack levels used: 1
 11563 ;; This function calls:
 11564 ;;		Nothing
 11565 ;; This function is called by:
 11566 ;;		i2_XF_pushEvent
 11567 ;; This function uses a non-reentrant model
 11568 ;;
 11569                           
 11570                           	psect	text83
 11571  0023CC                     __ptext83:
 11572                           	callstack 0
 11573  0023CC                     i2___awmod:
 11574                           	callstack 19
 11575  0023CC  0E00               	movlw	0
 11576  0023CE  6E06               	movwf	i2___awmod@sign^0,c
 11577  0023D0  BE02               	btfsc	(i2___awmod@dividend+1)^0,7,c
 11578  0023D2  EFEF  F011         	goto	i2u202_40
 11579  0023D6  EFED  F011         	goto	i2u202_41
 11580  0023DA                     i2u202_41:
 11581  0023DA  EFF5  F011         	goto	i2l4485
 11582  0023DE                     i2u202_40:
 11583  0023DE  6C01               	negf	i2___awmod@dividend^0,c
 11584  0023E0  1E02               	comf	(i2___awmod@dividend+1)^0,f,c
 11585  0023E2  B0D8               	btfsc	status,0,c
 11586  0023E4  2A02               	incf	(i2___awmod@dividend+1)^0,f,c
 11587  0023E6  0E01               	movlw	1
 11588  0023E8  6E06               	movwf	i2___awmod@sign^0,c
 11589  0023EA                     i2l4485:
 11590  0023EA  BE04               	btfsc	(i2___awmod@divisor+1)^0,7,c
 11591  0023EC  EFFC  F011         	goto	i2u203_40
 11592  0023F0  EFFA  F011         	goto	i2u203_41
 11593  0023F4                     i2u203_41:
 11594  0023F4  EF00  F012         	goto	i2l4489
 11595  0023F8                     i2u203_40:
 11596  0023F8  6C03               	negf	i2___awmod@divisor^0,c
 11597  0023FA  1E04               	comf	(i2___awmod@divisor+1)^0,f,c
 11598  0023FC  B0D8               	btfsc	status,0,c
 11599  0023FE  2A04               	incf	(i2___awmod@divisor+1)^0,f,c
 11600  002400                     i2l4489:
 11601  002400  5003               	movf	i2___awmod@divisor^0,w,c
 11602  002402  1004               	iorwf	(i2___awmod@divisor+1)^0,w,c
 11603  002404  B4D8               	btfsc	status,2,c
 11604  002406  EF07  F012         	goto	i2u204_41
 11605  00240A  EF09  F012         	goto	i2u204_40
 11606  00240E                     i2u204_41:
 11607  00240E  EF2D  F012         	goto	i2l4505
 11608  002412                     i2u204_40:
 11609  002412  0E01               	movlw	1
 11610  002414  6E05               	movwf	i2___awmod@counter^0,c
 11611  002416  EF11  F012         	goto	i2l4495
 11612  00241A                     i2l4493:
 11613  00241A  90D8               	bcf	status,0,c
 11614  00241C  3603               	rlcf	i2___awmod@divisor^0,f,c
 11615  00241E  3604               	rlcf	(i2___awmod@divisor+1)^0,f,c
 11616  002420  2A05               	incf	i2___awmod@counter^0,f,c
 11617  002422                     i2l4495:
 11618  002422  AE04               	btfss	(i2___awmod@divisor+1)^0,7,c
 11619  002424  EF16  F012         	goto	i2u205_41
 11620  002428  EF18  F012         	goto	i2u205_40
 11621  00242C                     i2u205_41:
 11622  00242C  EF0D  F012         	goto	i2l4493
 11623  002430                     i2u205_40:
 11624  002430                     i2l4497:
 11625  002430  5003               	movf	i2___awmod@divisor^0,w,c
 11626  002432  5C01               	subwf	i2___awmod@dividend^0,w,c
 11627  002434  5004               	movf	(i2___awmod@divisor+1)^0,w,c
 11628  002436  5802               	subwfb	(i2___awmod@dividend+1)^0,w,c
 11629  002438  A0D8               	btfss	status,0,c
 11630  00243A  EF21  F012         	goto	i2u206_41
 11631  00243E  EF23  F012         	goto	i2u206_40
 11632  002442                     i2u206_41:
 11633  002442  EF27  F012         	goto	i2l4501
 11634  002446                     i2u206_40:
 11635  002446  5003               	movf	i2___awmod@divisor^0,w,c
 11636  002448  5E01               	subwf	i2___awmod@dividend^0,f,c
 11637  00244A  5004               	movf	(i2___awmod@divisor+1)^0,w,c
 11638  00244C  5A02               	subwfb	(i2___awmod@dividend+1)^0,f,c
 11639  00244E                     i2l4501:
 11640  00244E  90D8               	bcf	status,0,c
 11641  002450  3204               	rrcf	(i2___awmod@divisor+1)^0,f,c
 11642  002452  3203               	rrcf	i2___awmod@divisor^0,f,c
 11643  002454  2E05               	decfsz	i2___awmod@counter^0,f,c
 11644  002456  EF18  F012         	goto	i2l4497
 11645  00245A                     i2l4505:
 11646  00245A  5006               	movf	i2___awmod@sign^0,w,c
 11647  00245C  B4D8               	btfsc	status,2,c
 11648  00245E  EF33  F012         	goto	i2u207_41
 11649  002462  EF35  F012         	goto	i2u207_40
 11650  002466                     i2u207_41:
 11651  002466  EF39  F012         	goto	i2l4509
 11652  00246A                     i2u207_40:
 11653  00246A  6C01               	negf	i2___awmod@dividend^0,c
 11654  00246C  1E02               	comf	(i2___awmod@dividend+1)^0,f,c
 11655  00246E  B0D8               	btfsc	status,0,c
 11656  002470  2A02               	incf	(i2___awmod@dividend+1)^0,f,c
 11657  002472                     i2l4509:
 11658  002472  C001  F001         	movff	i2___awmod@dividend,?i2___awmod
 11659  002476  C002  F002         	movff	i2___awmod@dividend+1,?i2___awmod+1
 11660  00247A  0012               	return		;funcret
 11661  00247C                     __end_ofi2___awmod:
 11662                           	callstack 0
 11663                           
 11664 ;; *************** function i2_XF_scheduleTimer *****************
 11665 ;; Defined at:
 11666 ;;		line 157 in file "xf/xf.c"
 11667 ;; Parameters:    Size  Location     Type
 11668 ;;  tm              2    1[COMRAM] unsigned short 
 11669 ;;  ev             15    3[COMRAM] struct Event_
 11670 ;;  inISR           1   18[COMRAM] _Bool 
 11671 ;; Auto vars:     Size  Location     Type
 11672 ;;  i               1   19[COMRAM] unsigned char 
 11673 ;; Return value:  Size  Location     Type
 11674 ;;                  1    wreg      unsigned char 
 11675 ;; Registers used:
 11676 ;;		wreg, fsr1l, fsr1h, fsr2l, fsr2h, status,2, status,0, prodl, prodh, cstack
 11677 ;; Tracked objects:
 11678 ;;		On entry : 0/0
 11679 ;;		On exit  : 0/0
 11680 ;;		Unchanged: 0/0
 11681 ;; Data sizes:     COMRAM   BANK0   BANK1   BANK2   BANK3   BANK4   BANK5   BANK6   BANK7   BANK8   BANK9  BANK10  BANK1
      +1  BANK12  BANK13  BANK14  BANK15
 11682 ;;      Params:        18       0       0       0       0       0       0       0       0       0       0       0       
      +0       0       0       0       0
 11683 ;;      Locals:         1       0       0       0       0       0       0       0       0       0       0       0       
      +0       0       0       0       0
 11684 ;;      Temps:          0       0       0       0       0       0       0       0       0       0       0       0       
      +0       0       0       0       0
 11685 ;;      Totals:        19       0       0       0       0       0       0       0       0       0       0       0       
      +0       0       0       0       0
 11686 ;;Total ram usage:       19 bytes
 11687 ;; Hardware stack levels used: 1
 11688 ;; Hardware stack levels required when called: 1
 11689 ;; This function calls:
 11690 ;;		i2_ENTERCRITICAL
 11691 ;;		i2_LEAVECRITICAL
 11692 ;; This function is called by:
 11693 ;;		i2_XF_pushEvent
 11694 ;; This function uses a non-reentrant model
 11695 ;;
 11696                           
 11697                           	psect	text84
 11698  0029E2                     __ptext84:
 11699                           	callstack 0
 11700  0029E2                     i2_XF_scheduleTimer:
 11701                           	callstack 18
 11702  0029E2                     
 11703                           ;xf/xf.c: 157: uint8_t XF_scheduleTimer(uint16_t tm, Event ev, _Bool inISR);xf/xf.c: 158
      +                          : {;xf/xf.c: 159:     uint8_t i;;xf/xf.c: 161:     ENTERCRITICAL(inISR);
 11704  0029E2  5013               	movf	i2XF_scheduleTimer@inISR^0,w,c
 11705  0029E4  EC54  F01A         	call	i2_ENTERCRITICAL
 11706  0029E8                     
 11707                           ;xf/xf.c: 162:     for (i=0; i<8; i++)
 11708  0029E8  0E00               	movlw	0
 11709  0029EA  6E14               	movwf	i2XF_scheduleTimer@i^0,c
 11710  0029EC                     i2l4461:
 11711                           
 11712                           ;xf/xf.c: 163:     {;xf/xf.c: 164:         if (theXF.timerList[i].ev.id == 0)
 11713  0029EC  5014               	movf	i2XF_scheduleTimer@i^0,w,c
 11714  0029EE  0D11               	mullw	17
 11715  0029F0  0EEB               	movlw	low (_theXF+2)
 11716  0029F2  24F3               	addwf	243,w,c
 11717  0029F4  6ED9               	movwf	fsr2l,c
 11718  0029F6  0E01               	movlw	high (_theXF+2)
 11719  0029F8  20F4               	addwfc	prodh,w,c
 11720  0029FA  6EDA               	movwf	fsr2h,c
 11721  0029FC  50DF               	movf	indf2,w,c
 11722  0029FE  A4D8               	btfss	status,2,c
 11723  002A00  EF04  F015         	goto	i2u199_41
 11724  002A04  EF06  F015         	goto	i2u199_40
 11725  002A08                     i2u199_41:
 11726  002A08  EF26  F015         	goto	i2l4467
 11727  002A0C                     i2u199_40:
 11728  002A0C                     
 11729                           ;xf/xf.c: 165:         {;xf/xf.c: 166:             theXF.timerList[i].tm = tm;
 11730  002A0C  5014               	movf	i2XF_scheduleTimer@i^0,w,c
 11731  002A0E  0D11               	mullw	17
 11732  002A10  0EE9               	movlw	low _theXF
 11733  002A12  24F3               	addwf	243,w,c
 11734  002A14  6ED9               	movwf	fsr2l,c
 11735  002A16  0E01               	movlw	high _theXF
 11736  002A18  20F4               	addwfc	prodh,w,c
 11737  002A1A  6EDA               	movwf	fsr2h,c
 11738  002A1C  0060  F00B  FFDE   	movff	i2XF_scheduleTimer@tm,postinc2
 11739  002A22  0060  F00F  FFDD   	movff	i2XF_scheduleTimer@tm+1,postdec2
 11740  002A28                     
 11741                           ;xf/xf.c: 167:             theXF.timerList[i].ev = ev;
 11742  002A28  EE20  F004         	lfsr	2,i2XF_scheduleTimer@ev
 11743  002A2C  5014               	movf	i2XF_scheduleTimer@i^0,w,c
 11744  002A2E  0D11               	mullw	17
 11745  002A30  0EEB               	movlw	low (_theXF+2)
 11746  002A32  24F3               	addwf	243,w,c
 11747  002A34  6EE1               	movwf	fsr1l,c
 11748  002A36  0E01               	movlw	high (_theXF+2)
 11749  002A38  20F4               	addwfc	prodh,w,c
 11750  002A3A  6EE2               	movwf	fsr1h,c
 11751  002A3C  0E0E               	movlw	14
 11752  002A3E                     i2u200_41:
 11753  002A3E  006F FF6F FFE3     	movff	plusw2,plusw1
 11754  002A44  06E8               	decf	wreg,f,c
 11755  002A46  E2FB               	bc	i2u200_41
 11756                           
 11757                           ;xf/xf.c: 168:             break;
 11758  002A48  EF2F  F015         	goto	i2l4471
 11759  002A4C                     i2l4467:
 11760                           
 11761                           ;xf/xf.c: 170:     }
 11762  002A4C  2A14               	incf	i2XF_scheduleTimer@i^0,f,c
 11763  002A4E  0E07               	movlw	7
 11764  002A50  6414               	cpfsgt	i2XF_scheduleTimer@i^0,c
 11765  002A52  EF2D  F015         	goto	i2u201_41
 11766  002A56  EF2F  F015         	goto	i2u201_40
 11767  002A5A                     i2u201_41:
 11768  002A5A  EFF6  F014         	goto	i2l4461
 11769  002A5E                     i2u201_40:
 11770  002A5E                     i2l4471:
 11771                           
 11772                           ;xf/xf.c: 175:     LEAVECRITICAL(inISR);
 11773  002A5E  5013               	movf	i2XF_scheduleTimer@inISR^0,w,c
 11774  002A60  EC49  F01A         	call	i2_LEAVECRITICAL
 11775  002A64                     
 11776                           ;xf/xf.c: 176:     return i;
 11777  002A64  5014               	movf	i2XF_scheduleTimer@i^0,w,c
 11778  002A66  0012               	return		;funcret
 11779  002A68                     __end_ofi2_XF_scheduleTimer:
 11780                           	callstack 0
 11781                           
 11782 ;; *************** function i2_Event_setDelay *****************
 11783 ;; Defined at:
 11784 ;;		line 53 in file "xf/event.c"
 11785 ;; Parameters:    Size  Location     Type
 11786 ;;  me              2    0[COMRAM] PTR struct Event_
 11787 ;;		 -> i2XF_pushEvent@ev(15), POST@ev(15), XF_pushEvent@ev(15), 
 11788 ;;  delay           2    2[COMRAM] unsigned short 
 11789 ;; Auto vars:     Size  Location     Type
 11790 ;;		None
 11791 ;; Return value:  Size  Location     Type
 11792 ;;                  1    wreg      void 
 11793 ;; Registers used:
 11794 ;;		wreg, fsr2l, fsr2h, status,2, status,0
 11795 ;; Tracked objects:
 11796 ;;		On entry : 0/0
 11797 ;;		On exit  : 0/0
 11798 ;;		Unchanged: 0/0
 11799 ;; Data sizes:     COMRAM   BANK0   BANK1   BANK2   BANK3   BANK4   BANK5   BANK6   BANK7   BANK8   BANK9  BANK10  BANK1
      +1  BANK12  BANK13  BANK14  BANK15
 11800 ;;      Params:         4       0       0       0       0       0       0       0       0       0       0       0       
      +0       0       0       0       0
 11801 ;;      Locals:         0       0       0       0       0       0       0       0       0       0       0       0       
      +0       0       0       0       0
 11802 ;;      Temps:          0       0       0       0       0       0       0       0       0       0       0       0       
      +0       0       0       0       0
 11803 ;;      Totals:         4       0       0       0       0       0       0       0       0       0       0       0       
      +0       0       0       0       0
 11804 ;;Total ram usage:        4 bytes
 11805 ;; Hardware stack levels used: 1
 11806 ;; This function calls:
 11807 ;;		Nothing
 11808 ;; This function is called by:
 11809 ;;		i2_XF_pushEvent
 11810 ;; This function uses a non-reentrant model
 11811 ;;
 11812                           
 11813                           	psect	text85
 11814  003446                     __ptext85:
 11815                           	callstack 0
 11816  003446                     i2_Event_setDelay:
 11817                           	callstack 19
 11818  003446                     
 11819                           ;xf/event.c: 53: void Event_setDelay(Event* me, uint16_t delay);xf/event.c: 54: {;xf/eve
      +                          nt.c: 55:     me->delay = delay;
 11820  003446  EE20 F005          	lfsr	2,5
 11821  00344A  5001               	movf	i2Event_setDelay@me^0,w,c
 11822  00344C  26D9               	addwf	fsr2l,f,c
 11823  00344E  5002               	movf	(i2Event_setDelay@me+1)^0,w,c
 11824  003450  22DA               	addwfc	fsr2h,f,c
 11825  003452  0060  F00F  FFDE   	movff	i2Event_setDelay@delay,postinc2
 11826  003458  0060  F013  FFDD   	movff	i2Event_setDelay@delay+1,postdec2
 11827  00345E  0012               	return		;funcret
 11828  003460                     __end_ofi2_Event_setDelay:
 11829                           	callstack 0
 11830                           
 11831 ;; *************** function i2_Event_getDelay *****************
 11832 ;; Defined at:
 11833 ;;		line 58 in file "xf/event.c"
 11834 ;; Parameters:    Size  Location     Type
 11835 ;;  me              2    0[COMRAM] PTR struct Event_
 11836 ;;		 -> i2XF_pushEvent@ev(15), XF_pushEvent@ev(15), 
 11837 ;; Auto vars:     Size  Location     Type
 11838 ;;		None
 11839 ;; Return value:  Size  Location     Type
 11840 ;;                  2    0[COMRAM] unsigned short 
 11841 ;; Registers used:
 11842 ;;		wreg, fsr2l, fsr2h, status,2, status,0
 11843 ;; Tracked objects:
 11844 ;;		On entry : 0/0
 11845 ;;		On exit  : 0/0
 11846 ;;		Unchanged: 0/0
 11847 ;; Data sizes:     COMRAM   BANK0   BANK1   BANK2   BANK3   BANK4   BANK5   BANK6   BANK7   BANK8   BANK9  BANK10  BANK1
      +1  BANK12  BANK13  BANK14  BANK15
 11848 ;;      Params:         2       0       0       0       0       0       0       0       0       0       0       0       
      +0       0       0       0       0
 11849 ;;      Locals:         0       0       0       0       0       0       0       0       0       0       0       0       
      +0       0       0       0       0
 11850 ;;      Temps:          0       0       0       0       0       0       0       0       0       0       0       0       
      +0       0       0       0       0
 11851 ;;      Totals:         2       0       0       0       0       0       0       0       0       0       0       0       
      +0       0       0       0       0
 11852 ;;Total ram usage:        2 bytes
 11853 ;; Hardware stack levels used: 1
 11854 ;; This function calls:
 11855 ;;		Nothing
 11856 ;; This function is called by:
 11857 ;;		i2_XF_pushEvent
 11858 ;; This function uses a non-reentrant model
 11859 ;;
 11860                           
 11861                           	psect	text86
 11862  003460                     __ptext86:
 11863                           	callstack 0
 11864  003460                     i2_Event_getDelay:
 11865                           	callstack 19
 11866  003460                     
 11867                           ;xf/event.c: 58: uint16_t Event_getDelay(Event* me);xf/event.c: 59: {;xf/event.c: 60:   
      +                            return me->delay;
 11868  003460  EE20 F005          	lfsr	2,5
 11869  003464  5001               	movf	i2Event_getDelay@me^0,w,c
 11870  003466  26D9               	addwf	fsr2l,f,c
 11871  003468  5002               	movf	(i2Event_getDelay@me+1)^0,w,c
 11872  00346A  22DA               	addwfc	fsr2h,f,c
 11873  00346C  006F FF78  F001    	movff	postinc2,?i2_Event_getDelay
 11874  003472  006F FF74  F002    	movff	postdec2,?i2_Event_getDelay+1
 11875  003478  0012               	return		;funcret
 11876  00347A                     __end_ofi2_Event_getDelay:
 11877                           	callstack 0
 11878                           
 11879 ;; *************** function _XF_unscheduleTimer *****************
 11880 ;; Defined at:
 11881 ;;		line 186 in file "xf/xf.c"
 11882 ;; Parameters:    Size  Location     Type
 11883 ;;  id              1    wreg     unsigned char 
 11884 ;;  inISR           1    2[COMRAM] _Bool 
 11885 ;; Auto vars:     Size  Location     Type
 11886 ;;  id              1    3[COMRAM] unsigned char 
 11887 ;; Return value:  Size  Location     Type
 11888 ;;                  1    wreg      void 
 11889 ;; Registers used:
 11890 ;;		wreg, fsr2l, fsr2h, status,2, status,0, prodl, prodh, cstack
 11891 ;; Tracked objects:
 11892 ;;		On entry : 0/0
 11893 ;;		On exit  : 0/0
 11894 ;;		Unchanged: 0/0
 11895 ;; Data sizes:     COMRAM   BANK0   BANK1   BANK2   BANK3   BANK4   BANK5   BANK6   BANK7   BANK8   BANK9  BANK10  BANK1
      +1  BANK12  BANK13  BANK14  BANK15
 11896 ;;      Params:         1       0       0       0       0       0       0       0       0       0       0       0       
      +0       0       0       0       0
 11897 ;;      Locals:         1       0       0       0       0       0       0       0       0       0       0       0       
      +0       0       0       0       0
 11898 ;;      Temps:          0       0       0       0       0       0       0       0       0       0       0       0       
      +0       0       0       0       0
 11899 ;;      Totals:         2       0       0       0       0       0       0       0       0       0       0       0       
      +0       0       0       0       0
 11900 ;;Total ram usage:        2 bytes
 11901 ;; Hardware stack levels used: 1
 11902 ;; Hardware stack levels required when called: 1
 11903 ;; This function calls:
 11904 ;;		i2_ENTERCRITICAL
 11905 ;;		i2_Event_init
 11906 ;;		i2_LEAVECRITICAL
 11907 ;; This function is called by:
 11908 ;;		_XF_decrementAndQueueTimers
 11909 ;; This function uses a non-reentrant model
 11910 ;;
 11911                           
 11912                           	psect	text87
 11913  003134                     __ptext87:
 11914                           	callstack 0
 11915  003134                     _XF_unscheduleTimer:
 11916                           	callstack 19
 11917                           
 11918                           ;incstack = 0
 11919                           ;XF_unscheduleTimer@id stored from wreg
 11920  003134  6E04               	movwf	XF_unscheduleTimer@id^0,c
 11921  003136                     
 11922                           ;xf/xf.c: 186: void XF_unscheduleTimer(uint8_t id, _Bool inISR);xf/xf.c: 187: {;xf/xf.c:
      +                           188:     ENTERCRITICAL(inISR);
 11923  003136  5003               	movf	XF_unscheduleTimer@inISR^0,w,c
 11924  003138  EC54  F01A         	call	i2_ENTERCRITICAL
 11925  00313C                     
 11926                           ;xf/xf.c: 189:     theXF.timerList[id].tm = 0;
 11927  00313C  5004               	movf	XF_unscheduleTimer@id^0,w,c
 11928  00313E  0D11               	mullw	17
 11929  003140  0EE9               	movlw	low _theXF
 11930  003142  24F3               	addwf	243,w,c
 11931  003144  6ED9               	movwf	fsr2l,c
 11932  003146  0E01               	movlw	high _theXF
 11933  003148  20F4               	addwfc	prodh,w,c
 11934  00314A  6EDA               	movwf	fsr2h,c
 11935  00314C  0E00               	movlw	0
 11936  00314E  6EDE               	movwf	postinc2,c
 11937  003150  0E00               	movlw	0
 11938  003152  6EDD               	movwf	postdec2,c
 11939  003154                     
 11940                           ;xf/xf.c: 190:     Event_init(&(theXF.timerList[id].ev));
 11941  003154  5004               	movf	XF_unscheduleTimer@id^0,w,c
 11942  003156  0D11               	mullw	17
 11943  003158  0EEB               	movlw	low (_theXF+2)
 11944  00315A  24F3               	addwf	243,w,c
 11945  00315C  6E01               	movwf	i2Event_init@me^0,c
 11946  00315E  0E01               	movlw	high (_theXF+2)
 11947  003160  20F4               	addwfc	prodh,w,c
 11948  003162  6E02               	movwf	(i2Event_init@me+1)^0,c
 11949  003164  EC30  F017         	call	i2_Event_init	;wreg free
 11950  003168                     
 11951                           ;xf/xf.c: 191:     LEAVECRITICAL(inISR);
 11952  003168  5003               	movf	XF_unscheduleTimer@inISR^0,w,c
 11953  00316A  EC49  F01A         	call	i2_LEAVECRITICAL
 11954  00316E  0012               	return		;funcret
 11955  003170                     __end_of_XF_unscheduleTimer:
 11956                           	callstack 0
 11957                           
 11958 ;; *************** function i2_LEAVECRITICAL *****************
 11959 ;; Defined at:
 11960 ;;		line 248 in file "xf/xf.c"
 11961 ;; Parameters:    Size  Location     Type
 11962 ;;  inISR           1    wreg     _Bool 
 11963 ;; Auto vars:     Size  Location     Type
 11964 ;;  inISR           1    0[COMRAM] _Bool 
 11965 ;; Return value:  Size  Location     Type
 11966 ;;                  1    wreg      void 
 11967 ;; Registers used:
 11968 ;;		wreg, status,2
 11969 ;; Tracked objects:
 11970 ;;		On entry : 0/0
 11971 ;;		On exit  : 0/0
 11972 ;;		Unchanged: 0/0
 11973 ;; Data sizes:     COMRAM   BANK0   BANK1   BANK2   BANK3   BANK4   BANK5   BANK6   BANK7   BANK8   BANK9  BANK10  BANK1
      +1  BANK12  BANK13  BANK14  BANK15
 11974 ;;      Params:         0       0       0       0       0       0       0       0       0       0       0       0       
      +0       0       0       0       0
 11975 ;;      Locals:         1       0       0       0       0       0       0       0       0       0       0       0       
      +0       0       0       0       0
 11976 ;;      Temps:          0       0       0       0       0       0       0       0       0       0       0       0       
      +0       0       0       0       0
 11977 ;;      Totals:         1       0       0       0       0       0       0       0       0       0       0       0       
      +0       0       0       0       0
 11978 ;;Total ram usage:        1 bytes
 11979 ;; Hardware stack levels used: 1
 11980 ;; This function calls:
 11981 ;;		Nothing
 11982 ;; This function is called by:
 11983 ;;		_XF_unscheduleTimer
 11984 ;;		i2_XF_pushEvent
 11985 ;;		i2_XF_scheduleTimer
 11986 ;; This function uses a non-reentrant model
 11987 ;;
 11988                           
 11989                           	psect	text88
 11990  003492                     __ptext88:
 11991                           	callstack 0
 11992  003492                     i2_LEAVECRITICAL:
 11993                           	callstack 18
 11994                           
 11995                           ;incstack = 0
 11996                           ;i2LEAVECRITICAL@inISR stored from wreg
 11997  003492  6E01               	movwf	i2LEAVECRITICAL@inISR^0,c
 11998  003494                     
 11999                           ;xf/xf.c: 248: static void LEAVECRITICAL(_Bool inISR);xf/xf.c: 249: {;xf/xf.c: 250:     
      +                          if (inISR == 0)
 12000  003494  5001               	movf	i2LEAVECRITICAL@inISR^0,w,c
 12001  003496  A4D8               	btfss	status,2,c
 12002  003498  EF50  F01A         	goto	i2u184_41
 12003  00349C  EF52  F01A         	goto	i2u184_40
 12004  0034A0                     i2u184_41:
 12005  0034A0  EF53  F01A         	goto	i2l1180
 12006  0034A4                     i2u184_40:
 12007  0034A4                     
 12008                           ;xf/xf.c: 251:     {;xf/xf.c: 253:      (INTCON0bits.GIE = 1);
 12009  0034A4  8ED2               	bsf	210,7,c	;volatile
 12010  0034A6                     i2l1180:
 12011  0034A6  0012               	return		;funcret
 12012  0034A8                     __end_ofi2_LEAVECRITICAL:
 12013                           	callstack 0
 12014                           
 12015 ;; *************** function i2_Event_init *****************
 12016 ;; Defined at:
 12017 ;;		line 4 in file "xf/event.c"
 12018 ;; Parameters:    Size  Location     Type
 12019 ;;  me              2    0[COMRAM] PTR struct Event_
 12020 ;;		 -> POST@ev(15), theXF.timerList(136), theXF(318), 
 12021 ;; Auto vars:     Size  Location     Type
 12022 ;;		None
 12023 ;; Return value:  Size  Location     Type
 12024 ;;                  1    wreg      void 
 12025 ;; Registers used:
 12026 ;;		wreg, fsr2l, fsr2h, status,2, status,0
 12027 ;; Tracked objects:
 12028 ;;		On entry : 0/0
 12029 ;;		On exit  : 0/0
 12030 ;;		Unchanged: 0/0
 12031 ;; Data sizes:     COMRAM   BANK0   BANK1   BANK2   BANK3   BANK4   BANK5   BANK6   BANK7   BANK8   BANK9  BANK10  BANK1
      +1  BANK12  BANK13  BANK14  BANK15
 12032 ;;      Params:         2       0       0       0       0       0       0       0       0       0       0       0       
      +0       0       0       0       0
 12033 ;;      Locals:         0       0       0       0       0       0       0       0       0       0       0       0       
      +0       0       0       0       0
 12034 ;;      Temps:          0       0       0       0       0       0       0       0       0       0       0       0       
      +0       0       0       0       0
 12035 ;;      Totals:         2       0       0       0       0       0       0       0       0       0       0       0       
      +0       0       0       0       0
 12036 ;;Total ram usage:        2 bytes
 12037 ;; Hardware stack levels used: 1
 12038 ;; This function calls:
 12039 ;;		Nothing
 12040 ;; This function is called by:
 12041 ;;		_XF_unscheduleTimer
 12042 ;; This function uses a non-reentrant model
 12043 ;;
 12044                           
 12045                           	psect	text89
 12046  002E60                     __ptext89:
 12047                           	callstack 0
 12048  002E60                     i2_Event_init:
 12049                           	callstack 19
 12050  002E60                     
 12051                           ;xf/event.c: 4: void Event_init(struct Event_* me);xf/event.c: 5: {;xf/event.c: 6:     m
      +                          e->id = 0;
 12052  002E60  0060  F007  FFD9   	movff	i2Event_init@me,fsr2l
 12053  002E66  0060  F00B  FFDA   	movff	i2Event_init@me+1,fsr2h
 12054  002E6C  0E00               	movlw	0
 12055  002E6E  6EDF               	movwf	indf2,c
 12056  002E70                     
 12057                           ;xf/event.c: 7:     me->delay = 0;
 12058  002E70  EE20 F005          	lfsr	2,5
 12059  002E74  5001               	movf	i2Event_init@me^0,w,c
 12060  002E76  26D9               	addwf	fsr2l,f,c
 12061  002E78  5002               	movf	(i2Event_init@me+1)^0,w,c
 12062  002E7A  22DA               	addwfc	fsr2h,f,c
 12063  002E7C  0E00               	movlw	0
 12064  002E7E  6EDE               	movwf	postinc2,c
 12065  002E80  0E00               	movlw	0
 12066  002E82  6EDD               	movwf	postdec2,c
 12067  002E84                     
 12068                           ;xf/event.c: 8:     me->target = ((void*)(0));
 12069  002E84  EE20 F003          	lfsr	2,3
 12070  002E88  5001               	movf	i2Event_init@me^0,w,c
 12071  002E8A  26D9               	addwf	fsr2l,f,c
 12072  002E8C  5002               	movf	(i2Event_init@me+1)^0,w,c
 12073  002E8E  22DA               	addwfc	fsr2h,f,c
 12074  002E90  0E00               	movlw	0
 12075  002E92  6EDE               	movwf	postinc2,c
 12076  002E94  0E00               	movlw	0
 12077  002E96  6EDD               	movwf	postdec2,c
 12078  002E98                     
 12079                           ;xf/event.c: 9:     me->data = 0x0;
 12080  002E98  EE20 F007          	lfsr	2,7
 12081  002E9C  5001               	movf	i2Event_init@me^0,w,c
 12082  002E9E  26D9               	addwf	fsr2l,f,c
 12083  002EA0  5002               	movf	(i2Event_init@me+1)^0,w,c
 12084  002EA2  22DA               	addwfc	fsr2h,f,c
 12085  002EA4  0E07               	movlw	7
 12086  002EA6                     i2u198_41:
 12087  002EA6  6ADE               	clrf	postinc2,c
 12088  002EA8  06E8               	decf	wreg,f,c
 12089  002EAA  E2FD               	bc	i2u198_41
 12090  002EAC                     
 12091                           ;xf/event.c: 10:     me->processEvent = ((void*)(0));
 12092  002EAC  EE20 F001          	lfsr	2,1
 12093  002EB0  5001               	movf	i2Event_init@me^0,w,c
 12094  002EB2  26D9               	addwf	fsr2l,f,c
 12095  002EB4  5002               	movf	(i2Event_init@me+1)^0,w,c
 12096  002EB6  22DA               	addwfc	fsr2h,f,c
 12097  002EB8  0E00               	movlw	0
 12098  002EBA  6EDE               	movwf	postinc2,c
 12099  002EBC  0E00               	movlw	0
 12100  002EBE  6EDD               	movwf	postdec2,c
 12101  002EC0  0012               	return		;funcret
 12102  002EC2                     __end_ofi2_Event_init:
 12103                           	callstack 0
 12104                           
 12105 ;; *************** function i2_ENTERCRITICAL *****************
 12106 ;; Defined at:
 12107 ;;		line 233 in file "xf/xf.c"
 12108 ;; Parameters:    Size  Location     Type
 12109 ;;  inISR           1    wreg     _Bool 
 12110 ;; Auto vars:     Size  Location     Type
 12111 ;;  inISR           1    0[COMRAM] _Bool 
 12112 ;; Return value:  Size  Location     Type
 12113 ;;                  1    wreg      void 
 12114 ;; Registers used:
 12115 ;;		wreg, status,2
 12116 ;; Tracked objects:
 12117 ;;		On entry : 0/0
 12118 ;;		On exit  : 0/0
 12119 ;;		Unchanged: 0/0
 12120 ;; Data sizes:     COMRAM   BANK0   BANK1   BANK2   BANK3   BANK4   BANK5   BANK6   BANK7   BANK8   BANK9  BANK10  BANK1
      +1  BANK12  BANK13  BANK14  BANK15
 12121 ;;      Params:         0       0       0       0       0       0       0       0       0       0       0       0       
      +0       0       0       0       0
 12122 ;;      Locals:         1       0       0       0       0       0       0       0       0       0       0       0       
      +0       0       0       0       0
 12123 ;;      Temps:          0       0       0       0       0       0       0       0       0       0       0       0       
      +0       0       0       0       0
 12124 ;;      Totals:         1       0       0       0       0       0       0       0       0       0       0       0       
      +0       0       0       0       0
 12125 ;;Total ram usage:        1 bytes
 12126 ;; Hardware stack levels used: 1
 12127 ;; This function calls:
 12128 ;;		Nothing
 12129 ;; This function is called by:
 12130 ;;		_XF_unscheduleTimer
 12131 ;;		i2_XF_pushEvent
 12132 ;;		i2_XF_scheduleTimer
 12133 ;; This function uses a non-reentrant model
 12134 ;;
 12135                           
 12136                           	psect	text90
 12137  0034A8                     __ptext90:
 12138                           	callstack 0
 12139  0034A8                     i2_ENTERCRITICAL:
 12140                           	callstack 18
 12141                           
 12142                           ;incstack = 0
 12143                           ;i2ENTERCRITICAL@inISR stored from wreg
 12144  0034A8  6E01               	movwf	i2ENTERCRITICAL@inISR^0,c
 12145  0034AA                     
 12146                           ;xf/xf.c: 233: static void ENTERCRITICAL(_Bool inISR);xf/xf.c: 234: {;xf/xf.c: 235:     
      +                          if (inISR == 0)
 12147  0034AA  5001               	movf	i2ENTERCRITICAL@inISR^0,w,c
 12148  0034AC  A4D8               	btfss	status,2,c
 12149  0034AE  EF5B  F01A         	goto	i2u183_41
 12150  0034B2  EF5D  F01A         	goto	i2u183_40
 12151  0034B6                     i2u183_41:
 12152  0034B6  EF5E  F01A         	goto	i2l1176
 12153  0034BA                     i2u183_40:
 12154  0034BA                     
 12155                           ;xf/xf.c: 236:     {;xf/xf.c: 238:       (INTCON0bits.GIE = 0);
 12156  0034BA  9ED2               	bcf	210,7,c	;volatile
 12157  0034BC                     i2l1176:
 12158  0034BC  0012               	return		;funcret
 12159  0034BE                     __end_ofi2_ENTERCRITICAL:
 12160                           	callstack 0
 12161                           
 12162                           ;
 12163                           ; Interrupt Vector Table @ 0x8
 12164                           ;
 12165                           
 12166                           	psect	ivt0x8
 12167  000008                     __pivt0x8:
 12168                           	callstack 0
 12169  000008                     ivt0x8_base:
 12170                           	callstack 0
 12171                           
 12172                           ; high-priority vector
 12173  000008  EFC1  F017         	goto	_INTERRUPT_InterruptManager
 12174  000018                     	org	16
 12175                           
 12176                           ; low-priority vector
 12177  000018  00FF               	reset	
 12178  0000                     
 12179                           	psect	text91
 12180  000000                     __ptext91:
 12181                           	callstack 0
 12182  000000                     
 12183                           	psect	rparam
 12184  0000                     
 12185                           	psect	idloc
 12186                           
 12187                           ;Config register IDLOC0 @ 0x200000
 12188                           ;	unspecified, using default values
 12189  200000                     	org	2097152
 12190  200000  0FFF               	dw	4095
 12191                           
 12192                           ;Config register IDLOC1 @ 0x200002
 12193                           ;	unspecified, using default values
 12194  200002                     	org	2097154
 12195  200002  0FFF               	dw	4095
 12196                           
 12197                           ;Config register IDLOC2 @ 0x200004
 12198                           ;	unspecified, using default values
 12199  200004                     	org	2097156
 12200  200004  0FFF               	dw	4095
 12201                           
 12202                           ;Config register IDLOC3 @ 0x200006
 12203                           ;	unspecified, using default values
 12204  200006                     	org	2097158
 12205  200006  0FFF               	dw	4095
 12206                           
 12207                           ;Config register IDLOC4 @ 0x200008
 12208                           ;	unspecified, using default values
 12209  200008                     	org	2097160
 12210  200008  0FFF               	dw	4095
 12211                           
 12212                           ;Config register IDLOC5 @ 0x20000A
 12213                           ;	unspecified, using default values
 12214  20000A                     	org	2097162
 12215  20000A  0FFF               	dw	4095
 12216                           
 12217                           ;Config register IDLOC6 @ 0x20000C
 12218                           ;	unspecified, using default values
 12219  20000C                     	org	2097164
 12220  20000C  0FFF               	dw	4095
 12221                           
 12222                           ;Config register IDLOC7 @ 0x20000E
 12223                           ;	unspecified, using default values
 12224  20000E                     	org	2097166
 12225  20000E  0FFF               	dw	4095
 12226                           
 12227                           	psect	config
 12228                           
 12229                           ;Config register CONFIG1L @ 0x300000
 12230                           ;	External Oscillator Selection
 12231                           ;	FEXTOSC = OFF, Oscillator not enabled
 12232                           ;	Reset Oscillator Selection
 12233                           ;	RSTOSC = HFINTOSC_64MHZ, HFINTOSC with HFFRQ = 64 MHz and CDIV = 1:1
 12234  300000                     	org	3145728
 12235  300000  8C                 	db	140
 12236                           
 12237                           ;Config register CONFIG1H @ 0x300001
 12238                           ;	Clock out Enable bit
 12239                           ;	CLKOUTEN = OFF, CLKOUT function is disabled
 12240                           ;	PRLOCKED One-Way Set Enable bit
 12241                           ;	PR1WAY = ON, PRLOCK bit can be cleared and set only once
 12242                           ;	Clock Switch Enable bit
 12243                           ;	CSWEN = ON, Writing to NOSC and NDIV is allowed
 12244                           ;	Fail-Safe Clock Monitor Enable bit
 12245                           ;	FCMEN = ON, Fail-Safe Clock Monitor enabled
 12246  300001                     	org	3145729
 12247  300001  FF                 	db	255
 12248                           
 12249                           ;Config register CONFIG2L @ 0x300002
 12250                           ;	MCLR Enable bit
 12251                           ;	MCLRE = EXTMCLR, If LVP = 0, MCLR pin is MCLR; If LVP = 1, RE3 pin function is MCLR
 12252                           ;	Power-up timer selection bits
 12253                           ;	PWRTS = PWRT_OFF, PWRT is disabled
 12254                           ;	Multi-vector enable bit
 12255                           ;	MVECEN = OFF, Interrupt contoller does not use vector table to prioritze interrupts
 12256                           ;	IVTLOCK bit One-way set enable bit
 12257                           ;	IVT1WAY = ON, IVTLOCK bit can be cleared and set only once
 12258                           ;	Low Power BOR Enable bit
 12259                           ;	LPBOREN = OFF, ULPBOR disabled
 12260                           ;	Brown-out Reset Enable bits
 12261                           ;	BOREN = SBORDIS, Brown-out Reset enabled , SBOREN bit is ignored
 12262  300002                     	org	3145730
 12263  300002  F7                 	db	247
 12264                           
 12265                           ;Config register CONFIG2H @ 0x300003
 12266                           ;	Brown-out Reset Voltage Selection bits
 12267                           ;	BORV = VBOR_2P45, Brown-out Reset Voltage (VBOR) set to 2.45V
 12268                           ;	ZCD Disable bit
 12269                           ;	ZCD = OFF, ZCD disabled. ZCD can be enabled by setting the ZCDSEN bit of ZCDCON
 12270                           ;	PPSLOCK bit One-Way Set Enable bit
 12271                           ;	PPS1WAY = ON, PPSLOCK bit can be cleared and set only once; PPS registers remain locke
      +                          d after one clear/set cycle
 12272                           ;	Stack Full/Underflow Reset Enable bit
 12273                           ;	STVREN = ON, Stack full/underflow will cause Reset
 12274                           ;	Debugger Enable bit
 12275                           ;	DEBUG = OFF, Background debugger disabled
 12276                           ;	Extended Instruction Set Enable bit
 12277                           ;	XINST = OFF, Extended Instruction Set and Indexed Addressing Mode disabled
 12278  300003                     	org	3145731
 12279  300003  FF                 	db	255
 12280                           
 12281                           ;Config register CONFIG3L @ 0x300004
 12282                           ;	WDT Period selection bits
 12283                           ;	WDTCPS = WDTCPS_31, Divider ratio 1:65536; software control of WDTPS
 12284                           ;	WDT operating mode
 12285                           ;	WDTE = OFF, WDT Disabled; SWDTEN is ignored
 12286  300004                     	org	3145732
 12287  300004  9F                 	db	159
 12288                           
 12289                           ;Config register CONFIG3H @ 0x300005
 12290                           ;	WDT Window Select bits
 12291                           ;	WDTCWS = WDTCWS_7, window always open (100%); software control; keyed access not requi
      +                          red
 12292                           ;	WDT input clock selector
 12293                           ;	WDTCCS = SC, Software Control
 12294  300005                     	org	3145733
 12295  300005  FF                 	db	255
 12296                           
 12297                           ;Config register CONFIG4L @ 0x300006
 12298                           ;	Boot Block Size selection bits
 12299                           ;	BBSIZE = BBSIZE_512, Boot Block size is 512 words
 12300                           ;	Boot Block enable bit
 12301                           ;	BBEN = OFF, Boot block disabled
 12302                           ;	Storage Area Flash enable bit
 12303                           ;	SAFEN = OFF, SAF disabled
 12304                           ;	Application Block write protection bit
 12305                           ;	WRTAPP = OFF, Application Block not write protected
 12306  300006                     	org	3145734
 12307  300006  FF                 	db	255
 12308                           
 12309                           ;Config register CONFIG4H @ 0x300007
 12310                           ;	Configuration Register Write Protection bit
 12311                           ;	WRTB = OFF, Configuration registers (300000-30000Bh) not write-protected
 12312                           ;	Boot Block Write Protection bit
 12313                           ;	WRTC = OFF, Boot Block (000000-0007FFh) not write-protected
 12314                           ;	Data EEPROM Write Protection bit
 12315                           ;	WRTD = OFF, Data EEPROM not write-protected
 12316                           ;	SAF Write protection bit
 12317                           ;	WRTSAF = OFF, SAF not Write Protected
 12318                           ;	Low Voltage Programming Enable bit
 12319                           ;	LVP = ON, Low voltage programming enabled. MCLR/VPP pin function is MCLR. MCLRE config
      +                          uration bit is ignored
 12320  300007                     	org	3145735
 12321  300007  FF                 	db	255
 12322                           
 12323                           ;Config register CONFIG5L @ 0x300008
 12324                           ;	PFM and Data EEPROM Code Protection bit
 12325                           ;	CP = OFF, PFM and Data EEPROM code protection disabled
 12326  300008                     	org	3145736
 12327  300008  FF                 	db	255
 12328                           
 12329                           ;Config register CONFIG5H @ 0x300009
 12330                           ;	unspecified, using default values
 12331  300009                     	org	3145737
 12332  300009  FF                 	db	255
 12333                           tosu	equ	0x3FFF
 12334                           tosh	equ	0x3FFE
 12335                           tosl	equ	0x3FFD
 12336                           stkptr	equ	0x3FFC
 12337                           pclatu	equ	0x3FFB
 12338                           pclath	equ	0x3FFA
 12339                           pcl	equ	0x3FF9
 12340                           tblptru	equ	0x3FF8
 12341                           tblptrh	equ	0x3FF7
 12342                           tblptrl	equ	0x3FF6
 12343                           tablat	equ	0x3FF5
 12344                           prodh	equ	0x3FF4
 12345                           prodl	equ	0x3FF3
 12346                           indf0	equ	0x3FEF
 12347                           postinc0	equ	0x3FEE
 12348                           postdec0	equ	0x3FED
 12349                           preinc0	equ	0x3FEC
 12350                           plusw0	equ	0x3FEB
 12351                           fsr0h	equ	0x3FEA
 12352                           fsr0l	equ	0x3FE9
 12353                           wreg	equ	0x3FE8
 12354                           indf1	equ	0x3FE7
 12355                           postinc1	equ	0x3FE6
 12356                           postdec1	equ	0x3FE5
 12357                           preinc1	equ	0x3FE4
 12358                           plusw1	equ	0x3FE3
 12359                           fsr1h	equ	0x3FE2
 12360                           fsr1l	equ	0x3FE1
 12361                           bsr	equ	0x3FE0
 12362                           indf2	equ	0x3FDF
 12363                           postinc2	equ	0x3FDE
 12364                           postdec2	equ	0x3FDD
 12365                           preinc2	equ	0x3FDC
 12366                           plusw2	equ	0x3FDB
 12367                           fsr2h	equ	0x3FDA
 12368                           fsr2l	equ	0x3FD9
 12369                           status	equ	0x3FD8

Data Sizes:
    Strings     0
    Constant    0
    Data        0
    BSS         552
    Persistent  8
    Stack       0

Auto Spaces:
    Space          Size  Autos    Used
    COMRAM           95     48      50
    BANK0           160    113     120
    BANK1           256      0     233
    BANK2           256      0       0
    BANK3           256      0       0
    BANK4           256      0       0
    BANK5           256      0       0
    BANK6           256      0       0
    BANK7           256      0       0
    BANK8           256      0       0
    BANK9           256      0       0
    BANK10          256      0       0
    BANK11          256      0       0
    BANK12          256      0       0
    BANK13          256      0       0
    BANK14          256      0       0
    BANK15          256      0       0

Pointer List with Targets:

    theXF.timerList.target	PTR void  size(2) Largest target is 0
		 -> theFactory(BANK1[233]), NULL(NULL[0]), 

    theXF.timerList.processEvent	PTR FTN(PTR struct Event_,)_Bool  size(2) Largest target is 0
		 -> factory_toggleLed(), commControl_processEvent(), ButtonSM_processEvent(), NULL(NULL[0]), 

    theXF.target	PTR void  size(2) Largest target is 0
		 -> theFactory(BANK1[233]), NULL(NULL[0]), 

    theXF.processEvent	PTR FTN(PTR struct Event_,)_Bool  size(2) Largest target is 0
		 -> factory_toggleLed(), commControl_processEvent(), ButtonSM_processEvent(), NULL(NULL[0]), 

    theFactory.observer	PTR void  size(2) Largest target is 0
		 -> theFactory(BANK1[233]), NULL(NULL[0]), 

    theFactory.observerCB	PTR FTN(PTR void ,unsigned char ,_Bool ,)void  size(2) Largest target is 0
		 -> NULL(NULL[0]), BLControl_onButton(), 

    theFactory.button	PTR struct Button_ size(2) Largest target is 0
		 -> theFactory(BANK1[233]), 

    observerCB$0	PTR void  size(2) Largest target is 235
		 -> theFactory(BANK1[233]), NULL(NULL[0]), 

    processEvent$0	PTR struct Event_ size(2) Largest target is 16
		 -> XF_executeOnce@ev(BANK0[15]), 

    sp__Event_getPE$0	PTR struct Event_ size(2) Largest target is 16
		 -> XF_executeOnce@ev(BANK0[15]), 

    processEvent$0	PTR struct Event_ size(2) Largest target is 16
		 -> XF_executeOnce@ev(BANK0[15]), 

    S142$1$0	PTR struct Event_ size(2) Largest target is 16
		 -> XF_executeOnce@ev(BANK0[15]), 

    ?_XF_popEvent.target	PTR void  size(2) Largest target is 235
		 -> theFactory(BANK1[233]), NULL(NULL[0]), 

    ?_XF_popEvent.processEvent	PTR FTN(PTR struct Event_,)_Bool  size(2) Largest target is 1
		 -> factory_toggleLed(), commControl_processEvent(), ButtonSM_processEvent(), NULL(NULL[0]), 

    BLControl_init@me	PTR struct BLControl_ size(2) Largest target is 235
		 -> theFactory.blc_(BANK1[0]), theFactory(BANK1[233]), 

    Button_initHW@me	PTR struct Button_ size(2) Largest target is 235
		 -> theFactory.b_(BANK1[2]), theFactory(BANK1[233]), 

    ?_sepos.observer	PTR void  size(2) Largest target is 235
		 -> theFactory(BANK1[233]), NULL(NULL[0]), 

    ?_sepos.observerCB	PTR FTN(PTR void ,unsigned char ,_Bool ,)void  size(2) Largest target is 1
		 -> NULL(NULL[0]), BLControl_onButton(), 

    ?_sepos.button	PTR struct Button_ size(2) Largest target is 235
		 -> theFactory(BANK1[233]), 

    ?_sepos.bsm_.observer	PTR void  size(2) Largest target is 235
		 -> theFactory(BANK1[233]), NULL(NULL[0]), 

    ?_sepos.bsm_.observerCB	PTR FTN(PTR void ,unsigned char ,_Bool ,)void  size(2) Largest target is 1
		 -> NULL(NULL[0]), BLControl_onButton(), 

    ?_sepos.bsm_.button	PTR struct Button_ size(2) Largest target is 235
		 -> theFactory(BANK1[233]), 

    ?_st.observer	PTR void  size(2) Largest target is 235
		 -> theFactory(BANK1[233]), NULL(NULL[0]), 

    ?_st.observerCB	PTR FTN(PTR void ,unsigned char ,_Bool ,)void  size(2) Largest target is 1
		 -> NULL(NULL[0]), BLControl_onButton(), 

    ?_st.button	PTR struct Button_ size(2) Largest target is 235
		 -> theFactory(BANK1[233]), 

    ?_st.bsm_.observer	PTR void  size(2) Largest target is 235
		 -> theFactory(BANK1[233]), NULL(NULL[0]), 

    ?_st.bsm_.observerCB	PTR FTN(PTR void ,unsigned char ,_Bool ,)void  size(2) Largest target is 1
		 -> NULL(NULL[0]), BLControl_onButton(), 

    ?_st.bsm_.button	PTR struct Button_ size(2) Largest target is 235
		 -> theFactory(BANK1[233]), 

    ?_cc.observer	PTR void  size(2) Largest target is 235
		 -> theFactory(BANK1[233]), NULL(NULL[0]), 

    ?_cc.observerCB	PTR FTN(PTR void ,unsigned char ,_Bool ,)void  size(2) Largest target is 1
		 -> NULL(NULL[0]), BLControl_onButton(), 

    ?_cc.button	PTR struct Button_ size(2) Largest target is 235
		 -> theFactory(BANK1[233]), 

    ?_cc.bsm_.observer	PTR void  size(2) Largest target is 235
		 -> theFactory(BANK1[233]), NULL(NULL[0]), 

    ?_cc.bsm_.observerCB	PTR FTN(PTR void ,unsigned char ,_Bool ,)void  size(2) Largest target is 1
		 -> NULL(NULL[0]), BLControl_onButton(), 

    ?_cc.bsm_.button	PTR struct Button_ size(2) Largest target is 235
		 -> theFactory(BANK1[233]), 

    ?_blc.observer	PTR void  size(2) Largest target is 235
		 -> theFactory(BANK1[233]), NULL(NULL[0]), 

    ?_blc.observerCB	PTR FTN(PTR void ,unsigned char ,_Bool ,)void  size(2) Largest target is 1
		 -> NULL(NULL[0]), BLControl_onButton(), 

    ?_blc.button	PTR struct Button_ size(2) Largest target is 235
		 -> theFactory(BANK1[233]), 

    ?_blc.bsm_.observer	PTR void  size(2) Largest target is 235
		 -> theFactory(BANK1[233]), NULL(NULL[0]), 

    ?_blc.bsm_.observerCB	PTR FTN(PTR void ,unsigned char ,_Bool ,)void  size(2) Largest target is 1
		 -> NULL(NULL[0]), BLControl_onButton(), 

    ?_blc.bsm_.button	PTR struct Button_ size(2) Largest target is 235
		 -> theFactory(BANK1[233]), 

    ?_bsm.observer	PTR void  size(2) Largest target is 235
		 -> theFactory(BANK1[233]), NULL(NULL[0]), 

    ?_bsm.observerCB	PTR FTN(PTR void ,unsigned char ,_Bool ,)void  size(2) Largest target is 1
		 -> NULL(NULL[0]), BLControl_onButton(), 

    ?_bsm.button	PTR struct Button_ size(2) Largest target is 235
		 -> theFactory(BANK1[233]), 

    ?_bsm.bsm_.observer	PTR void  size(2) Largest target is 235
		 -> theFactory(BANK1[233]), NULL(NULL[0]), 

    ?_bsm.bsm_.observerCB	PTR FTN(PTR void ,unsigned char ,_Bool ,)void  size(2) Largest target is 1
		 -> NULL(NULL[0]), BLControl_onButton(), 

    ?_bsm.bsm_.button	PTR struct Button_ size(2) Largest target is 235
		 -> theFactory(BANK1[233]), 

    ?_b.observer	PTR void  size(2) Largest target is 235
		 -> theFactory(BANK1[233]), NULL(NULL[0]), 

    ?_b.observerCB	PTR FTN(PTR void ,unsigned char ,_Bool ,)void  size(2) Largest target is 1
		 -> NULL(NULL[0]), BLControl_onButton(), 

    ?_b.button	PTR struct Button_ size(2) Largest target is 235
		 -> theFactory(BANK1[233]), 

    ?_b.bsm_.observer	PTR void  size(2) Largest target is 235
		 -> theFactory(BANK1[233]), NULL(NULL[0]), 

    ?_b.bsm_.observerCB	PTR FTN(PTR void ,unsigned char ,_Bool ,)void  size(2) Largest target is 1
		 -> NULL(NULL[0]), BLControl_onButton(), 

    ?_b.bsm_.button	PTR struct Button_ size(2) Largest target is 235
		 -> theFactory(BANK1[233]), 

    ?_l.observer	PTR void  size(2) Largest target is 235
		 -> theFactory(BANK1[233]), NULL(NULL[0]), 

    ?_l.observerCB	PTR FTN(PTR void ,unsigned char ,_Bool ,)void  size(2) Largest target is 1
		 -> NULL(NULL[0]), BLControl_onButton(), 

    ?_l.button	PTR struct Button_ size(2) Largest target is 235
		 -> theFactory(BANK1[233]), 

    ?_l.bsm_.observer	PTR void  size(2) Largest target is 235
		 -> theFactory(BANK1[233]), NULL(NULL[0]), 

    ?_l.bsm_.observerCB	PTR FTN(PTR void ,unsigned char ,_Bool ,)void  size(2) Largest target is 1
		 -> NULL(NULL[0]), BLControl_onButton(), 

    ?_l.bsm_.button	PTR struct Button_ size(2) Largest target is 235
		 -> theFactory(BANK1[233]), 

    getCenterFrame@me	PTR struct CommControl_ size(2) Largest target is 235
		 -> theFactory(BANK1[233]), NULL(NULL[0]), 

    setCenter@me	PTR struct CommControl_ size(2) Largest target is 235
		 -> theFactory(BANK1[233]), NULL(NULL[0]), 

    steeringSetup@me	PTR struct CommControl_ size(2) Largest target is 235
		 -> theFactory(BANK1[233]), NULL(NULL[0]), 

    getPositionFrame@me	PTR struct CommControl_ size(2) Largest target is 235
		 -> theFactory(BANK1[233]), NULL(NULL[0]), 

    setPosition@me	PTR struct CommControl_ size(2) Largest target is 235
		 -> theFactory(BANK1[233]), NULL(NULL[0]), 

    S128$3$0	PTR void  size(2) Largest target is 235
		 -> theFactory(BANK1[233]), NULL(NULL[0]), 

    ev.target	PTR void  size(2) Largest target is 235
		 -> theFactory(BANK1[233]), NULL(NULL[0]), 

    ev.processEvent	PTR FTN(PTR struct Event_,)_Bool  size(2) Largest target is 1
		 -> factory_toggleLed(), commControl_processEvent(), ButtonSM_processEvent(), NULL(NULL[0]), 

    POST@processEvent	PTR FTN(PTR struct Event_,)_Bool  size(2) Largest target is 1
		 -> factory_toggleLed(), commControl_processEvent(), ButtonSM_processEvent(), 

    POST@target	PTR void  size(2) Largest target is 235
		 -> theFactory.cc_(BANK1[17]), theFactory.bsm_(BANK1[10]), theFactory(BANK1[233]), NULL(NULL[0]), 

    ev.target	PTR void  size(2) Largest target is 235
		 -> theFactory(BANK1[233]), NULL(NULL[0]), 

    ev.processEvent	PTR FTN(PTR struct Event_,)_Bool  size(2) Largest target is 1
		 -> factory_toggleLed(), commControl_processEvent(), ButtonSM_processEvent(), NULL(NULL[0]), 

    ev.target	PTR void  size(2) Largest target is 235
		 -> theFactory(BANK1[233]), NULL(NULL[0]), 

    ev.processEvent	PTR FTN(PTR struct Event_,)_Bool  size(2) Largest target is 1
		 -> factory_toggleLed(), commControl_processEvent(), ButtonSM_processEvent(), NULL(NULL[0]), 

    ev.target	PTR void  size(2) Largest target is 235
		 -> theFactory(BANK1[233]), NULL(NULL[0]), 

    ev.processEvent	PTR FTN(PTR struct Event_,)_Bool  size(2) Largest target is 1
		 -> factory_toggleLed(), commControl_processEvent(), ButtonSM_processEvent(), NULL(NULL[0]), 

    theXF.eventQueue.target	PTR void  size(2) Largest target is 235
		 -> theFactory(BANK1[233]), NULL(NULL[0]), 

    theXF.eventQueue.processEvent	PTR FTN(PTR struct Event_,)_Bool  size(2) Largest target is 1
		 -> factory_toggleLed(), commControl_processEvent(), ButtonSM_processEvent(), NULL(NULL[0]), 

    XF_pushEvent@tmid	PTR unsigned char  size(2) Largest target is 1
		 -> POST@tmid(BANK0[1]), XF_decrementAndQueueTimers@dummy(COMRAM[1]), 

    ev.target	PTR void  size(2) Largest target is 235
		 -> theFactory(BANK1[233]), NULL(NULL[0]), 

    ev.processEvent	PTR FTN(PTR struct Event_,)_Bool  size(2) Largest target is 1
		 -> factory_toggleLed(), commControl_processEvent(), ButtonSM_processEvent(), NULL(NULL[0]), 

    theXF.timerList.ev.target	PTR void  size(2) Largest target is 235
		 -> theFactory(BANK1[233]), NULL(NULL[0]), 

    theXF.timerList.ev.processEvent	PTR FTN(PTR struct Event_,)_Bool  size(2) Largest target is 1
		 -> factory_toggleLed(), commControl_processEvent(), ButtonSM_processEvent(), NULL(NULL[0]), 

    Event_getDelay@me.target	PTR void  size(2) Largest target is 235
		 -> theFactory(BANK1[233]), NULL(NULL[0]), 

    Event_getDelay@me.processEvent	PTR FTN(PTR struct Event_,)_Bool  size(2) Largest target is 1
		 -> factory_toggleLed(), commControl_processEvent(), ButtonSM_processEvent(), NULL(NULL[0]), 

    Event_getDelay@me	PTR struct Event_ size(2) Largest target is 16
		 -> XF_pushEvent@ev(BANK0[15]), 

    Event_setDelay@me.target	PTR void  size(2) Largest target is 235
		 -> theFactory(BANK1[233]), NULL(NULL[0]), 

    Event_setDelay@me.processEvent	PTR FTN(PTR struct Event_,)_Bool  size(2) Largest target is 1
		 -> factory_toggleLed(), commControl_processEvent(), ButtonSM_processEvent(), NULL(NULL[0]), 

    Event_setDelay@me	PTR struct Event_ size(2) Largest target is 16
		 -> POST@ev(BANK0[15]), XF_pushEvent@ev(BANK0[15]), 

    Event_getId@me.target	PTR void  size(2) Largest target is 235
		 -> theFactory(BANK1[233]), NULL(NULL[0]), 

    Event_getId@me.processEvent	PTR FTN(PTR struct Event_,)_Bool  size(2) Largest target is 1
		 -> factory_toggleLed(), commControl_processEvent(), ButtonSM_processEvent(), NULL(NULL[0]), 

    Event_getId@me	PTR struct Event_ size(2) Largest target is 16
		 -> XF_executeOnce@ev(BANK0[15]), 

    Event_setId@me.target	PTR void  size(2) Largest target is 235
		 -> theFactory(BANK1[233]), NULL(NULL[0]), 

    Event_setId@me.processEvent	PTR FTN(PTR struct Event_,)_Bool  size(2) Largest target is 1
		 -> factory_toggleLed(), commControl_processEvent(), ButtonSM_processEvent(), NULL(NULL[0]), 

    Event_setId@me	PTR struct Event_ size(2) Largest target is 16
		 -> POST@ev(BANK0[15]), 

    sp__Event_getTarget	PTR void  size(2) Largest target is 235
		 -> theFactory(BANK1[233]), NULL(NULL[0]), 

    Event_getTarget@me.target	PTR void  size(2) Largest target is 235
		 -> theFactory(BANK1[233]), NULL(NULL[0]), 

    Event_getTarget@me.processEvent	PTR FTN(PTR struct Event_,)_Bool  size(2) Largest target is 1
		 -> factory_toggleLed(), commControl_processEvent(), ButtonSM_processEvent(), NULL(NULL[0]), 

    sp__Event_getPE	PTR FTN(PTR struct Event_,)_Bool  size(2) Largest target is 1
		 -> factory_toggleLed(), commControl_processEvent(), ButtonSM_processEvent(), NULL(NULL[0]), 

    Event_getPE@me.target	PTR void  size(2) Largest target is 235
		 -> theFactory(BANK1[233]), NULL(NULL[0]), 

    Event_getPE@me.processEvent	PTR FTN(PTR struct Event_,)_Bool  size(2) Largest target is 1
		 -> factory_toggleLed(), commControl_processEvent(), ButtonSM_processEvent(), NULL(NULL[0]), 

    Event_setTarget@me.target	PTR void  size(2) Largest target is 235
		 -> theFactory(BANK1[233]), NULL(NULL[0]), 

    Event_setTarget@me.processEvent	PTR FTN(PTR struct Event_,)_Bool  size(2) Largest target is 1
		 -> factory_toggleLed(), commControl_processEvent(), ButtonSM_processEvent(), NULL(NULL[0]), 

    Event_setTarget@target	PTR void  size(2) Largest target is 235
		 -> theFactory.cc_(BANK1[17]), theFactory.bsm_(BANK1[10]), theFactory(BANK1[233]), NULL(NULL[0]), 

    Event_setTarget@me	PTR struct Event_ size(2) Largest target is 16
		 -> POST@ev(BANK0[15]), 

    Event_setPE@me.target	PTR void  size(2) Largest target is 235
		 -> theFactory(BANK1[233]), NULL(NULL[0]), 

    Event_setPE@me.processEvent	PTR FTN(PTR struct Event_,)_Bool  size(2) Largest target is 1
		 -> factory_toggleLed(), commControl_processEvent(), ButtonSM_processEvent(), NULL(NULL[0]), 

    Event_setPE@processEvent	PTR FTN(PTR struct Event_,)_Bool  size(2) Largest target is 1
		 -> factory_toggleLed(), commControl_processEvent(), ButtonSM_processEvent(), 

    Event_setPE@me	PTR struct Event_ size(2) Largest target is 16
		 -> POST@ev(BANK0[15]), 

    Event_getData@me.target	PTR void  size(2) Largest target is 235
		 -> theFactory(BANK1[233]), NULL(NULL[0]), 

    Event_getData@me.processEvent	PTR FTN(PTR struct Event_,)_Bool  size(2) Largest target is 1
		 -> factory_toggleLed(), commControl_processEvent(), ButtonSM_processEvent(), NULL(NULL[0]), 

    Event_getData@me	PTR struct Event_ size(2) Largest target is 16
		 -> XF_executeOnce@ev(BANK0[15]), 

    Event_setData@me.target	PTR void  size(2) Largest target is 235
		 -> theFactory(BANK1[233]), NULL(NULL[0]), 

    Event_setData@me.processEvent	PTR FTN(PTR struct Event_,)_Bool  size(2) Largest target is 1
		 -> factory_toggleLed(), commControl_processEvent(), ButtonSM_processEvent(), NULL(NULL[0]), 

    Event_setData@me	PTR struct Event_ size(2) Largest target is 16
		 -> POST@ev(BANK0[15]), 

    Event_init@me.target	PTR void  size(2) Largest target is 235
		 -> theFactory(BANK1[233]), NULL(NULL[0]), 

    Event_init@me.processEvent	PTR FTN(PTR struct Event_,)_Bool  size(2) Largest target is 1
		 -> factory_toggleLed(), commControl_processEvent(), ButtonSM_processEvent(), NULL(NULL[0]), 

    Event_init@me	PTR struct Event_ size(2) Largest target is 338
		 -> POST@ev(BANK0[15]), theXF.timerList(BIGRAM[136]), theXF.eventQueue(BIGRAM[180]), theXF(BIGRAM[318]), 

    sepos_init@me	PTR struct Sepos_ size(2) Largest target is 235
		 -> theFactory.sepos_(BANK1[200]), theFactory(BANK1[233]), 

    UART1_SetErrorHandler@interruptHandler	PTR FTN()void  size(2) Largest target is 1
		 -> UART1_DefaultErrorHandler(), 

    UART1_SetOverrunErrorHandler@interruptHandler	PTR FTN()void  size(2) Largest target is 1
		 -> UART1_DefaultOverrunErrorHandler(), 

    UART1_SetFramingErrorHandler@interruptHandler	PTR FTN()void  size(2) Largest target is 1
		 -> UART1_DefaultFramingErrorHandler(), 

    UART1_ErrorHandler	PTR FTN()void  size(2) Largest target is 1
		 -> UART1_DefaultErrorHandler(), Absolute function(), 

    UART1_OverrunErrorHandler	PTR FTN()void  size(2) Largest target is 1
		 -> UART1_DefaultOverrunErrorHandler(), Absolute function(), 

    UART1_FramingErrorHandler	PTR FTN()void  size(2) Largest target is 1
		 -> UART1_DefaultFramingErrorHandler(), Absolute function(), 

    convertCANid2Reg@passedInSIDH	PTR volatile unsigned char  size(2) Largest target is 1
		 -> CAN_transmit@tempSIDH(BANK0[1]), RXF5SIDH(ABS[1]), RXF4SIDH(ABS[1]), RXF3SIDH(ABS[1]), 
		 -> RXF2SIDH(ABS[1]), RXM1SIDH(ABS[1]), RXF1SIDH(ABS[1]), RXF0SIDH(BITBIGSFRlllllllll[1]), 
		 -> RXM0SIDH(BITBIGSFRlllllllll[1]), 

    convertCANid2Reg@passedInSIDL	PTR volatile unsigned char  size(2) Largest target is 1
		 -> CAN_transmit@tempSIDL(BANK0[1]), RXF5SIDL(ABS[1]), RXF4SIDL(ABS[1]), RXF3SIDL(ABS[1]), 
		 -> RXF2SIDL(ABS[1]), RXM1SIDL(ABS[1]), RXF1SIDL(ABS[1]), RXF0SIDL(ABS[1]), 
		 -> RXM0SIDL(ABS[1]), 

    convertCANid2Reg@passedInEIDH	PTR volatile unsigned char  size(2) Largest target is 1
		 -> CAN_transmit@tempEIDH(BANK0[1]), RXF5EIDH(ABS[1]), RXF4EIDH(ABS[1]), RXF3EIDH(ABS[1]), 
		 -> RXF2EIDH(ABS[1]), RXM1EIDH(ABS[1]), RXF1EIDH(ABS[1]), RXF0EIDH(BITBIGSFRlllllllll[1]), 
		 -> RXM0EIDH(BITBIGSFRlllllllll[1]), 

    convertCANid2Reg@passedInEIDL	PTR volatile unsigned char  size(2) Largest target is 1
		 -> CAN_transmit@tempEIDL(BANK0[1]), RXF5EIDL(ABS[1]), RXF4EIDL(ABS[1]), RXF3EIDL(ABS[1]), 
		 -> RXF2EIDL(ABS[1]), RXM1EIDL(ABS[1]), RXF1EIDL(ABS[1]), RXF0EIDL(ABS[1]), 
		 -> RXM0EIDL(ABS[1]), 

    CAN_receive@tempCanMsg	PTR struct . size(2) Largest target is 235
		 -> theFactory(BANK1[233]), NULL(NULL[0]), 

    CAN_transmit@tempCanMsg	PTR struct . size(2) Largest target is 235
		 -> theFactory(BANK1[233]), getPositionFrame@msg(BANK0[15]), getCenterFrame@msgs(BANK0[15]), steeringSetup@msgs(BANK0[15]), 
		 -> NULL(NULL[0]), 

    TMR0_SetInterruptHandler@InterruptHandler	PTR FTN()void  size(2) Largest target is 1
		 -> XF_decrementAndQueueTimers(), TMR0_DefaultInterruptHandler(), 

    TMR0_InterruptHandler	PTR FTN()void  size(2) Largest target is 1
		 -> XF_decrementAndQueueTimers(), Absolute function(), TMR0_DefaultInterruptHandler(), 

    sp__sepos	PTR struct Sepos_ size(2) Largest target is 235
		 -> theFactory.sepos_(BANK1[200]), theFactory(BANK1[233]), 

    sp__cc	PTR struct CommControl_ size(2) Largest target is 235
		 -> theFactory.cc_(BANK1[17]), theFactory(BANK1[233]), 

    sp__blc	PTR struct BLControl_ size(2) Largest target is 235
		 -> theFactory.blc_(BANK1[0]), theFactory(BANK1[233]), 

    sp__bsm.observer	PTR void  size(2) Largest target is 235
		 -> theFactory(BANK1[233]), NULL(NULL[0]), 

    sp__bsm.observerCB	PTR FTN(PTR void ,unsigned char ,_Bool ,)void  size(2) Largest target is 1
		 -> NULL(NULL[0]), BLControl_onButton(), 

    sp__bsm.button	PTR struct Button_ size(2) Largest target is 235
		 -> theFactory(BANK1[233]), 

    sp__bsm	PTR struct ButtonSM_ size(2) Largest target is 235
		 -> theFactory.bsm_(BANK1[10]), theFactory(BANK1[233]), 

    sp__b	PTR struct Button_ size(2) Largest target is 235
		 -> theFactory.b_(BANK1[2]), theFactory(BANK1[233]), 

    theFactory.bsm_.observer	PTR void  size(2) Largest target is 235
		 -> theFactory(BANK1[233]), NULL(NULL[0]), 

    theFactory.bsm_.observerCB	PTR FTN(PTR void ,unsigned char ,_Bool ,)void  size(2) Largest target is 1
		 -> NULL(NULL[0]), BLControl_onButton(), 

    theFactory.bsm_.button	PTR struct Button_ size(2) Largest target is 235
		 -> theFactory(BANK1[233]), 

    store_write@me	PTR struct Store_ size(2) Largest target is 235
		 -> theFactory.st_(BANK1[5]), theFactory(BANK1[233]), 

    store_read@me	PTR struct Store_ size(2) Largest target is 235
		 -> theFactory.st_(BANK1[5]), theFactory(BANK1[233]), 

    store_init@me	PTR struct Store_ size(2) Largest target is 235
		 -> theFactory.st_(BANK1[5]), theFactory(BANK1[233]), 

    setPosition@msg	PTR struct . size(2) Largest target is 235
		 -> theFactory(BANK1[233]), NULL(NULL[0]), 

    setCenter@msg	PTR struct . size(2) Largest target is 235
		 -> theFactory(BANK1[233]), NULL(NULL[0]), 

    sendAliveFrame@me	PTR struct CommControl_ size(2) Largest target is 235
		 -> theFactory(BANK1[233]), NULL(NULL[0]), 

    steeringSetup@msg	PTR struct . size(2) Largest target is 235
		 -> theFactory(BANK1[233]), NULL(NULL[0]), 

    readCANFrame@me	PTR struct CommControl_ size(2) Largest target is 235
		 -> theFactory(BANK1[233]), NULL(NULL[0]), 

    readCANFrame@msg	PTR struct . size(2) Largest target is 235
		 -> theFactory(BANK1[233]), NULL(NULL[0]), 

    sp__st	PTR struct Store_ size(2) Largest target is 235
		 -> theFactory.st_(BANK1[5]), theFactory(BANK1[233]), 

    commControl_processEvent@ev.target	PTR void  size(2) Largest target is 235
		 -> theFactory(BANK1[233]), NULL(NULL[0]), 

    commControl_processEvent@ev.processEvent	PTR FTN(PTR struct Event_,)_Bool  size(2) Largest target is 1
		 -> factory_toggleLed(), commControl_processEvent(), ButtonSM_processEvent(), NULL(NULL[0]), 

    commControl_processEvent@ev	PTR struct Event_ size(2) Largest target is 16
		 -> XF_executeOnce@ev(BANK0[15]), 

    commControl_processEvent@me	PTR struct CommControl_ size(2) Largest target is 235
		 -> theFactory(BANK1[233]), NULL(NULL[0]), 

    commControl_startBehaviour@me	PTR struct CommControl_ size(2) Largest target is 235
		 -> theFactory.cc_(BANK1[17]), theFactory(BANK1[233]), 

    commControl_init@me	PTR struct CommControl_ size(2) Largest target is 235
		 -> theFactory.cc_(BANK1[17]), theFactory(BANK1[233]), 

    LED_off@me	PTR struct LED_ size(2) Largest target is 235
		 -> theFactory.l_(BANK1[1]), theFactory(BANK1[233]), 

    LED_on@me	PTR struct LED_ size(2) Largest target is 235
		 -> theFactory.l_(BANK1[1]), theFactory(BANK1[233]), 

    LED_initHW@me	PTR struct LED_ size(2) Largest target is 235
		 -> theFactory.l_(BANK1[1]), theFactory(BANK1[233]), 

    LED_init@me	PTR struct LED_ size(2) Largest target is 235
		 -> theFactory.l_(BANK1[1]), theFactory(BANK1[233]), 

    ButtonSM_setObserver@observerCB	PTR FTN(PTR void ,unsigned char ,_Bool ,)void  size(2) Largest target is 1
		 -> BLControl_onButton(), 

    ButtonSM_setObserver@me.observer	PTR void  size(2) Largest target is 235
		 -> theFactory(BANK1[233]), NULL(NULL[0]), 

    ButtonSM_setObserver@me.observerCB	PTR FTN(PTR void ,unsigned char ,_Bool ,)void  size(2) Largest target is 1
		 -> NULL(NULL[0]), BLControl_onButton(), 

    ButtonSM_setObserver@me.button	PTR struct Button_ size(2) Largest target is 235
		 -> theFactory(BANK1[233]), 

    ButtonSM_setObserver@observer	PTR void  size(2) Largest target is 235
		 -> theFactory.blc_(BANK1[0]), theFactory(BANK1[233]), 

    ButtonSM_setObserver@me	PTR struct ButtonSM_ size(2) Largest target is 235
		 -> theFactory.bsm_(BANK1[10]), theFactory(BANK1[233]), 

    ButtonSM_startBehaviour@me.observer	PTR void  size(2) Largest target is 235
		 -> theFactory(BANK1[233]), NULL(NULL[0]), 

    ButtonSM_startBehaviour@me.observerCB	PTR FTN(PTR void ,unsigned char ,_Bool ,)void  size(2) Largest target is 1
		 -> NULL(NULL[0]), BLControl_onButton(), 

    ButtonSM_startBehaviour@me.button	PTR struct Button_ size(2) Largest target is 235
		 -> theFactory(BANK1[233]), 

    ButtonSM_startBehaviour@me	PTR struct ButtonSM_ size(2) Largest target is 235
		 -> theFactory.bsm_(BANK1[10]), theFactory(BANK1[233]), 

    ButtonSM_processEvent@me.observer	PTR void  size(2) Largest target is 235
		 -> theFactory(BANK1[233]), NULL(NULL[0]), 

    ButtonSM_processEvent@me.observerCB	PTR FTN(PTR void ,unsigned char ,_Bool ,)void  size(2) Largest target is 1
		 -> NULL(NULL[0]), BLControl_onButton(), 

    ButtonSM_processEvent@me.button	PTR struct Button_ size(2) Largest target is 235
		 -> theFactory(BANK1[233]), 

    S142Event_$target	PTR void  size(2) Largest target is 235
		 -> theFactory(BANK1[233]), NULL(NULL[0]), 

    ButtonSM_processEvent@ev.target	PTR void  size(2) Largest target is 235
		 -> theFactory(BANK1[233]), NULL(NULL[0]), 

    S142Event_$processEvent	PTR FTN(PTR struct Event_,)_Bool  size(2) Largest target is 1
		 -> factory_toggleLed(), commControl_processEvent(), ButtonSM_processEvent(), NULL(NULL[0]), 

    ButtonSM_processEvent@ev.processEvent	PTR FTN(PTR struct Event_,)_Bool  size(2) Largest target is 1
		 -> factory_toggleLed(), commControl_processEvent(), ButtonSM_processEvent(), NULL(NULL[0]), 

    ButtonSM_processEvent@ev	PTR struct Event_ size(2) Largest target is 16
		 -> XF_executeOnce@ev(BANK0[15]), 

    ButtonSM_processEvent@me	PTR struct ButtonSM_ size(2) Largest target is 235
		 -> theFactory(BANK1[233]), NULL(NULL[0]), 

    ButtonSM_init@button	PTR struct Button_ size(2) Largest target is 235
		 -> theFactory.b_(BANK1[2]), theFactory(BANK1[233]), 

    S128ButtonSM_$observer	PTR void  size(2) Largest target is 235
		 -> theFactory(BANK1[233]), NULL(NULL[0]), 

    ButtonSM_init@me.observer	PTR void  size(2) Largest target is 235
		 -> theFactory(BANK1[233]), NULL(NULL[0]), 

    S128ButtonSM_$observerCB	PTR FTN(PTR void ,unsigned char ,_Bool ,)void  size(2) Largest target is 1
		 -> NULL(NULL[0]), BLControl_onButton(), 

    ButtonSM_init@me.observerCB	PTR FTN(PTR void ,unsigned char ,_Bool ,)void  size(2) Largest target is 1
		 -> NULL(NULL[0]), BLControl_onButton(), 

    S128ButtonSM_$button	PTR struct Button_ size(2) Largest target is 235
		 -> theFactory(BANK1[233]), 

    ButtonSM_init@me.button	PTR struct Button_ size(2) Largest target is 235
		 -> theFactory(BANK1[233]), 

    ButtonSM_init@me	PTR struct ButtonSM_ size(2) Largest target is 235
		 -> theFactory.bsm_(BANK1[10]), theFactory(BANK1[233]), 

    Button_getId@me	PTR struct Button_ size(2) Largest target is 235
		 -> theFactory(BANK1[233]), 

    Button_read@me	PTR struct Button_ size(2) Largest target is 235
		 -> theFactory(BANK1[233]), 

    Button_init@me	PTR struct Button_ size(2) Largest target is 235
		 -> theFactory.b_(BANK1[2]), theFactory(BANK1[233]), 

    sp__l	PTR struct LED_ size(2) Largest target is 235
		 -> theFactory.l_(BANK1[1]), theFactory(BANK1[233]), 

    BLControl_onButton@me	PTR void  size(2) Largest target is 235
		 -> theFactory(BANK1[233]), NULL(NULL[0]), 

    BLControl_onButton@realMe	PTR struct BLControl_ size(2) Largest target is 235
		 -> theFactory(BANK1[233]), NULL(NULL[0]), 


Critical Paths under _main in COMRAM

    None.

Critical Paths under _INTERRUPT_InterruptManager in COMRAM

    _TMR0_ISR->_XF_decrementAndQueueTimers
    _XF_decrementAndQueueTimers->i2_XF_pushEvent
    i2_XF_pushEvent->i2_XF_scheduleTimer
    i2_XF_scheduleTimer->i2_ENTERCRITICAL
    i2_XF_scheduleTimer->i2_LEAVECRITICAL
    _XF_unscheduleTimer->i2_Event_init

Critical Paths under _main in BANK0

    _main->_XF_executeOnce
    _XF_init->_Event_init
    _XF_executeOnce->_commControl_processEvent
    _factory_toggleLed->_POST
    _commControl_processEvent->_readCANFrame
    _steeringSetup->_CAN_transmit
    _setCenter->_store_write
    _store_write->_DATAEE_WriteByte
    _sendAliveFrame->_CAN_transmit
    _readCANFrame->_POST
    _CAN_receive->_convertReg2ExtendedCANid
    _getPositionFrame->_CAN_transmit
    _getCenterFrame->_CAN_transmit
    _store_read->_st
    _CAN_transmit->_convertCANid2Reg
    _XF_popEvent->___awmod
    _BLControl_onButton->_LED_off
    _BLControl_onButton->_LED_on
    _LED_on->_l
    _SYSTEM_Initialize->_ECAN_Initialize
    _UART1_Initialize->_UART1_SetErrorHandler
    _UART1_Initialize->_UART1_SetFramingErrorHandler
    _UART1_Initialize->_UART1_SetOverrunErrorHandler
    _TMR0_Initialize->_TMR0_SetInterruptHandler
    _ECAN_Initialize->_convertCANid2Reg
    _Factory_start->_ButtonSM_startBehaviour
    _commControl_startBehaviour->_POST
    _ButtonSM_startBehaviour->_POST
    _POST->_XF_pushEvent
    _XF_pushEvent->_XF_scheduleTimer
    _XF_scheduleTimer->_ENTERCRITICAL
    _XF_scheduleTimer->_LEAVECRITICAL
    _Event_init->___wmul
    _Factory_init->_LED_initHW
    _store_init->_DATAEE_WriteByte
    _sepos_init->_sepos
    _commControl_init->_cc
    _LED_initHW->_LED_off
    _LED_off->_l
    _LED_init->_l
    _Button_initHW->_b
    _Button_init->_b
    _ButtonSM_init->_b
    _ButtonSM_init->_bsm
    _BLControl_init->_blc
    _Factory_build->_ButtonSM_setObserver
    _ButtonSM_setObserver->_blc
    _ButtonSM_setObserver->_bsm

Critical Paths under _INTERRUPT_InterruptManager in BANK0

    None.

Critical Paths under _main in BANK1

    None.

Critical Paths under _INTERRUPT_InterruptManager in BANK1

    None.

Critical Paths under _main in BANK2

    None.

Critical Paths under _INTERRUPT_InterruptManager in BANK2

    None.

Critical Paths under _main in BANK3

    None.

Critical Paths under _INTERRUPT_InterruptManager in BANK3

    None.

Critical Paths under _main in BANK4

    None.

Critical Paths under _INTERRUPT_InterruptManager in BANK4

    None.

Critical Paths under _main in BANK5

    None.

Critical Paths under _INTERRUPT_InterruptManager in BANK5

    None.

Critical Paths under _main in BANK6

    None.

Critical Paths under _INTERRUPT_InterruptManager in BANK6

    None.

Critical Paths under _main in BANK7

    None.

Critical Paths under _INTERRUPT_InterruptManager in BANK7

    None.

Critical Paths under _main in BANK8

    None.

Critical Paths under _INTERRUPT_InterruptManager in BANK8

    None.

Critical Paths under _main in BANK9

    None.

Critical Paths under _INTERRUPT_InterruptManager in BANK9

    None.

Critical Paths under _main in BANK10

    None.

Critical Paths under _INTERRUPT_InterruptManager in BANK10

    None.

Critical Paths under _main in BANK11

    None.

Critical Paths under _INTERRUPT_InterruptManager in BANK11

    None.

Critical Paths under _main in BANK12

    None.

Critical Paths under _INTERRUPT_InterruptManager in BANK12

    None.

Critical Paths under _main in BANK13

    None.

Critical Paths under _INTERRUPT_InterruptManager in BANK13

    None.

Critical Paths under _main in BANK14

    None.

Critical Paths under _INTERRUPT_InterruptManager in BANK14

    None.

Critical Paths under _main in BANK15

    None.

Critical Paths under _INTERRUPT_InterruptManager in BANK15

    None.

Call Graph Tables:

 ---------------------------------------------------------------------------------
 (Depth) Function   	        Calls       Base Space   Used Autos Params    Refs
 ---------------------------------------------------------------------------------
 (0) _main                                                 0     0      0  175896
                      _Factory_build
                       _Factory_init
                      _Factory_start
                  _SYSTEM_Initialize
           _TMR0_SetInterruptHandler
                     _XF_executeOnce
                            _XF_init
 ---------------------------------------------------------------------------------
 (1) _XF_init                                              2     2      0    1299
                                              8 BANK0      2     2      0
                         _Event_init
                             ___wmul
 ---------------------------------------------------------------------------------
 (1) _XF_executeOnce                                      15    15      0  116616
                                             98 BANK0     15    15      0
              _ButtonSM_processEvent *
                        _XF_popEvent
           _commControl_processEvent *
                  _factory_toggleLed *
 ---------------------------------------------------------------------------------
 (2) _factory_toggleLed                                    1     1      0   15227
                                             73 BANK0      1     1      0
                               _POST
 ---------------------------------------------------------------------------------
 (2) _commControl_processEvent                            17    15      2   81307
                                             81 BANK0     17    15      2
                      _Event_getData
                        _Event_getId
                               _POST
                             ___wmul
                     _getCenterFrame
                   _getPositionFrame
                       _readCANFrame
                     _sendAliveFrame
                          _setCenter
                        _setPosition
                                 _st
                      _steeringSetup
                         _store_read
 ---------------------------------------------------------------------------------
 (3) _steeringSetup                                       19    15      4   11753
                                             27 BANK0     19    15      4
                       _CAN_transmit
                                 _st
                        _store_write
 ---------------------------------------------------------------------------------
 (3) _setPosition                                          8     4      4     267
                                              0 BANK0      4     0      4
 ---------------------------------------------------------------------------------
 (3) _setCenter                                            8     4      4    3157
                                              8 BANK0      4     0      4
                                 _st
                        _store_write
 ---------------------------------------------------------------------------------
 (4) _store_write                                          4     0      4    2802
                                              4 BANK0      4     0      4
                   _DATAEE_WriteByte
                                 _st (ARG)
 ---------------------------------------------------------------------------------
 (3) _sendAliveFrame                                       2     0      2    9697
                                             27 BANK0      2     0      2
                       _CAN_transmit
                                 _st
                         _store_read
 ---------------------------------------------------------------------------------
 (3) _readCANFrame                                         8     4      4   17480
                                             73 BANK0      8     4      4
                        _CAN_receive
                               _POST
 ---------------------------------------------------------------------------------
 (4) _CAN_receive                                          3     1      2    1921
                                             19 BANK0      3     1      2
           _convertReg2ExtendedCANid
           _convertReg2StandardCANid
 ---------------------------------------------------------------------------------
 (5) _convertReg2StandardCANid                            15    11      4     292
                                              0 BANK0     15    11      4
 ---------------------------------------------------------------------------------
 (5) _convertReg2ExtendedCANid                            19    15      4     899
                                              0 BANK0     19    15      4
 ---------------------------------------------------------------------------------
 (3) _getPositionFrame                                    21    19      2    8656
                                             27 BANK0     21    19      2
                       _CAN_transmit
 ---------------------------------------------------------------------------------
 (3) _getCenterFrame                                      17    15      2    9792
                                             27 BANK0     17    15      2
                       _CAN_transmit
                                 _st
                         _store_read
 ---------------------------------------------------------------------------------
 (3) _store_read                                           4     1      3    1158
                                              2 BANK0      4     1      3
                                 _st (ARG)
 ---------------------------------------------------------------------------------
 (4) _CAN_transmit                                        10     8      2    8318
                                             18 BANK0      9     7      2
                   _convertCANid2Reg
 ---------------------------------------------------------------------------------
 (2) ___wmul                                               6     2      4     701
                                              0 BANK0      6     2      4
 ---------------------------------------------------------------------------------
 (3) _Event_getData                                       16     8      8     111
                                              0 BANK0     16     8      8
 ---------------------------------------------------------------------------------
 (2) _XF_popEvent                                         33    18     15     856
                                              6 BANK0     33    18     15
                      _ENTERCRITICAL
                      _LEAVECRITICAL
                            ___awmod
 ---------------------------------------------------------------------------------
 (2) _ButtonSM_processEvent                                8     6      2   19107
                                             81 BANK0      7     5      2
                 _BLControl_onButton *
                       _Button_getId
                        _Button_read
                        _Event_getId
                               _POST
 ---------------------------------------------------------------------------------
 (3) _Event_getId                                          2     0      2    1713
                                              0 BANK0      2     0      2
 ---------------------------------------------------------------------------------
 (3) _Button_getId                                         2     0      2     200
                                              0 BANK0      2     0      2
 ---------------------------------------------------------------------------------
 (3) _BLControl_onButton                                   6     2      4     940
                                              6 BANK0      4     0      4
                       _Button_getId (ARG)
                            _LED_off
                             _LED_on
                                  _l
 ---------------------------------------------------------------------------------
 (4) _LED_on                                               4     2      2     200
                                              2 BANK0      4     2      2
                                  _l (ARG)
 ---------------------------------------------------------------------------------
 (1) _SYSTEM_Initialize                                    0     0      0    6967
                    _ECAN_Initialize
               _INTERRUPT_Initialize
              _OSCILLATOR_Initialize
             _PIN_MANAGER_Initialize
                     _PMD_Initialize
                    _TMR0_Initialize
                   _UART1_Initialize
 ---------------------------------------------------------------------------------
 (2) _UART1_Initialize                                     0     0      0     333
              _UART1_SetErrorHandler
       _UART1_SetFramingErrorHandler
       _UART1_SetOverrunErrorHandler
 ---------------------------------------------------------------------------------
 (3) _UART1_SetOverrunErrorHandler                         2     0      2     111
                                              0 BANK0      2     0      2
 ---------------------------------------------------------------------------------
 (3) _UART1_SetFramingErrorHandler                         2     0      2     111
                                              0 BANK0      2     0      2
 ---------------------------------------------------------------------------------
 (3) _UART1_SetErrorHandler                                2     0      2     111
                                              0 BANK0      2     0      2
 ---------------------------------------------------------------------------------
 (2) _TMR0_Initialize                                      0     0      0     200
           _TMR0_SetInterruptHandler
 ---------------------------------------------------------------------------------
 (1) _TMR0_SetInterruptHandler                             2     0      2     200
                                              0 BANK0      2     0      2
 ---------------------------------------------------------------------------------
 (2) _PMD_Initialize                                       0     0      0       0
 ---------------------------------------------------------------------------------
 (2) _PIN_MANAGER_Initialize                               0     0      0       0
 ---------------------------------------------------------------------------------
 (2) _OSCILLATOR_Initialize                                0     0      0       0
 ---------------------------------------------------------------------------------
 (2) _INTERRUPT_Initialize                                 0     0      0       0
 ---------------------------------------------------------------------------------
 (2) _ECAN_Initialize                                      1     1      0    6434
                                             18 BANK0      1     1      0
                   _convertCANid2Reg
 ---------------------------------------------------------------------------------
 (5) _convertCANid2Reg                                    18     5     13    6434
                                              0 BANK0     18     5     13
 ---------------------------------------------------------------------------------
 (1) _Factory_start                                        0     0      0   46262
            _ButtonSM_startBehaviour
                               _POST
                                _bsm
                                 _cc
         _commControl_startBehaviour
 ---------------------------------------------------------------------------------
 (2) _commControl_startBehaviour                           2     0      2   15360
                                             73 BANK0      2     0      2
                               _POST
                                 _cc (ARG)
 ---------------------------------------------------------------------------------
 (2) _ButtonSM_startBehaviour                              3     1      2   15675
                                             73 BANK0      3     1      2
                        _Button_read
                               _POST
                                _bsm (ARG)
 ---------------------------------------------------------------------------------
 (3) _POST                                                31    16     15   15227
                                             42 BANK0     31    16     15
                         _Event_init
                      _Event_setData
                     _Event_setDelay
                        _Event_setId
                        _Event_setPE
                    _Event_setTarget
                       _XF_pushEvent
                             ___wmul (ARG)
 ---------------------------------------------------------------------------------
 (4) _XF_pushEvent                                        22     4     18    2490
                                             20 BANK0     22     4     18
                      _ENTERCRITICAL
                     _Event_getDelay
                     _Event_setDelay
                      _LEAVECRITICAL
                   _XF_scheduleTimer
                            ___awmod
 ---------------------------------------------------------------------------------
 (5) ___awmod                                              6     2      4     652
                                              0 BANK0      6     2      4
 ---------------------------------------------------------------------------------
 (5) _XF_scheduleTimer                                    19     1     18     533
                                              1 BANK0     19     1     18
                      _ENTERCRITICAL
                      _LEAVECRITICAL
 ---------------------------------------------------------------------------------
 (6) _LEAVECRITICAL                                        1     1      0      22
                                              0 BANK0      1     1      0
 ---------------------------------------------------------------------------------
 (6) _ENTERCRITICAL                                        1     1      0      22
                                              0 BANK0      1     1      0
 ---------------------------------------------------------------------------------
 (5) _Event_setDelay                                       4     0      4     400
                                              0 BANK0      4     0      4
 ---------------------------------------------------------------------------------
 (5) _Event_getDelay                                       2     0      2     111
                                              0 BANK0      2     0      2
 ---------------------------------------------------------------------------------
 (4) _Event_setTarget                                      4     0      4     222
                                              0 BANK0      4     0      4
 ---------------------------------------------------------------------------------
 (4) _Event_setPE                                          4     0      4     222
                                              0 BANK0      4     0      4
 ---------------------------------------------------------------------------------
 (4) _Event_setId                                          3     0      3     222
                                              0 BANK0      3     0      3
 ---------------------------------------------------------------------------------
 (4) _Event_setData                                       10     0     10     222
                                              0 BANK0     10     0     10
 ---------------------------------------------------------------------------------
 (2) _Event_init                                           2     0      2     440
                                              6 BANK0      2     0      2
                             ___wmul (ARG)
 ---------------------------------------------------------------------------------
 (3) _Button_read                                          5     3      2     269
                                              0 BANK0      5     3      2
 ---------------------------------------------------------------------------------
 (1) _Factory_init                                         0     0      0    4197
                     _BLControl_init
                      _ButtonSM_init
                        _Button_init
                      _Button_initHW
                           _LED_init
                         _LED_initHW
                                  _b
                                _blc
                                _bsm
                                 _cc
                   _commControl_init
                                  _l
                              _sepos
                         _sepos_init
                                 _st
                         _store_init
 ---------------------------------------------------------------------------------
 (2) _store_init                                           2     0      2    2223
                                              4 BANK0      2     0      2
                    _DATAEE_ReadByte
                   _DATAEE_WriteByte
                                 _st (ARG)
 ---------------------------------------------------------------------------------
 (5) _DATAEE_WriteByte                                     4     1      3    1335
                                              0 BANK0      4     1      3
 ---------------------------------------------------------------------------------
 (3) _DATAEE_ReadByte                                      2     0      2     667
                                              0 BANK0      2     0      2
 ---------------------------------------------------------------------------------
 (4) _st                                                   2     0      2       0
                                              0 BANK0      2     0      2
 ---------------------------------------------------------------------------------
 (2) _sepos_init                                           5     3      2     332
                                              2 BANK0      5     3      2
                              _sepos (ARG)
 ---------------------------------------------------------------------------------
 (2) _sepos                                                2     0      2       0
                                              0 BANK0      2     0      2
 ---------------------------------------------------------------------------------
 (4) _l                                                    2     0      2       0
                                              0 BANK0      2     0      2
 ---------------------------------------------------------------------------------
 (2) _commControl_init                                     2     0      2     177
                                              2 BANK0      2     0      2
                                 _cc (ARG)
 ---------------------------------------------------------------------------------
 (2) _cc                                                   2     0      2       0
                                              0 BANK0      2     0      2
 ---------------------------------------------------------------------------------
 (2) _b                                                    2     0      2       0
                                              0 BANK0      2     0      2
 ---------------------------------------------------------------------------------
 (2) _LED_initHW                                           2     0      2     400
                                              6 BANK0      2     0      2
                            _LED_off
                                  _l (ARG)
 ---------------------------------------------------------------------------------
 (4) _LED_off                                              4     2      2     289
                                              2 BANK0      4     2      2
                                  _l (ARG)
 ---------------------------------------------------------------------------------
 (2) _LED_init                                             3     0      3     222
                                              2 BANK0      3     0      3
                                  _l (ARG)
 ---------------------------------------------------------------------------------
 (2) _Button_initHW                                        2     0      2      89
                                              2 BANK0      2     0      2
                                  _b (ARG)
 ---------------------------------------------------------------------------------
 (2) _Button_init                                          4     0      4     355
                                              2 BANK0      4     0      4
                                  _b (ARG)
 ---------------------------------------------------------------------------------
 (2) _ButtonSM_init                                        4     0      4     310
                                              2 BANK0      4     0      4
                                  _b (ARG)
                                _bsm (ARG)
 ---------------------------------------------------------------------------------
 (2) _BLControl_init                                       2     0      2      89
                                              2 BANK0      2     0      2
                                _blc (ARG)
 ---------------------------------------------------------------------------------
 (1) _Factory_build                                        0     0      0     355
               _ButtonSM_setObserver
                                _blc
                                _bsm
 ---------------------------------------------------------------------------------
 (2) _bsm                                                  2     0      2       0
                                              0 BANK0      2     0      2
 ---------------------------------------------------------------------------------
 (2) _blc                                                  2     0      2       0
                                              0 BANK0      2     0      2
 ---------------------------------------------------------------------------------
 (2) _ButtonSM_setObserver                                 6     0      6     355
                                              2 BANK0      6     0      6
                                _blc (ARG)
                                _bsm (ARG)
 ---------------------------------------------------------------------------------
 Estimated maximum stack depth 6
 ---------------------------------------------------------------------------------
 (Depth) Function   	        Calls       Base Space   Used Autos Params    Refs
 ---------------------------------------------------------------------------------
 (8) _INTERRUPT_InterruptManager                           2     2      0    1810
                                             46 COMRAM     2     2      0
                           _TMR0_ISR
 ---------------------------------------------------------------------------------
 (9) _TMR0_ISR                                             0     0      0    1810
                   Absolute function *
       _TMR0_DefaultInterruptHandler *
         _XF_decrementAndQueueTimers *
 ---------------------------------------------------------------------------------
 (10) _XF_decrementAndQueueTimers                          4     4      0    1810
                                             42 COMRAM     4     4      0
                 _XF_unscheduleTimer
                     i2_XF_pushEvent
 ---------------------------------------------------------------------------------
 (11) i2_XF_pushEvent                                     22     4     18    1249
                                             20 COMRAM    22     4     18
                    i2_ENTERCRITICAL
                   i2_Event_getDelay
                   i2_Event_setDelay
                    i2_LEAVECRITICAL
                 i2_XF_scheduleTimer
                          i2___awmod
 ---------------------------------------------------------------------------------
 (12) i2___awmod                                           6     2      4     348
                                              0 COMRAM     6     2      4
 ---------------------------------------------------------------------------------
 (12) i2_XF_scheduleTimer                                 19     1     18     344
                                              1 COMRAM    19     1     18
                    i2_ENTERCRITICAL
                    i2_LEAVECRITICAL
 ---------------------------------------------------------------------------------
 (12) i2_Event_setDelay                                    4     0      4      96
                                              0 COMRAM     4     0      4
 ---------------------------------------------------------------------------------
 (12) i2_Event_getDelay                                    2     0      2      48
                                              0 COMRAM     2     0      2
 ---------------------------------------------------------------------------------
 (11) _XF_unscheduleTimer                                  2     1      1     357
                                              2 COMRAM     2     1      1
                    i2_ENTERCRITICAL
                       i2_Event_init
                    i2_LEAVECRITICAL
 ---------------------------------------------------------------------------------
 (13) i2_LEAVECRITICAL                                     1     1      0      22
                                              0 COMRAM     1     1      0
 ---------------------------------------------------------------------------------
 (12) i2_Event_init                                        2     0      2     136
                                              0 COMRAM     2     0      2
 ---------------------------------------------------------------------------------
 (13) i2_ENTERCRITICAL                                     1     1      0      22
                                              0 COMRAM     1     1      0
 ---------------------------------------------------------------------------------
 (10) _TMR0_DefaultInterruptHandler                        0     0      0       0
 ---------------------------------------------------------------------------------
 (10) Absolute function(Fake)                              0     0      0       0
 ---------------------------------------------------------------------------------
 Estimated maximum stack depth 13
 ---------------------------------------------------------------------------------

 Call Graph Graphs:

 _main (ROOT)
   _Factory_build
     _ButtonSM_setObserver
       _blc (ARG)
       _bsm (ARG)
     _blc
     _bsm
   _Factory_init
     _BLControl_init
       _blc (ARG)
     _ButtonSM_init
       _b (ARG)
       _bsm (ARG)
     _Button_init
       _b (ARG)
     _Button_initHW
       _b (ARG)
     _LED_init
       _l (ARG)
     _LED_initHW
       _LED_off
         _l (ARG)
       _l (ARG)
     _b
     _blc
     _bsm
     _cc
     _commControl_init
       _cc (ARG)
     _l
     _sepos
     _sepos_init
       _sepos (ARG)
     _st
     _store_init
       _DATAEE_ReadByte
       _DATAEE_WriteByte
       _st (ARG)
   _Factory_start
     _ButtonSM_startBehaviour
       _Button_read
       _POST
         _Event_init
           ___wmul (ARG)
         _Event_setData
         _Event_setDelay
         _Event_setId
         _Event_setPE
         _Event_setTarget
         _XF_pushEvent
           _ENTERCRITICAL
           _Event_getDelay
           _Event_setDelay
           _LEAVECRITICAL
           _XF_scheduleTimer
             _ENTERCRITICAL
             _LEAVECRITICAL
           ___awmod
         ___wmul (ARG)
       _bsm (ARG)
     _POST
     _bsm
     _cc
     _commControl_startBehaviour
       _POST
       _cc (ARG)
   _SYSTEM_Initialize
     _ECAN_Initialize
       _convertCANid2Reg
     _INTERRUPT_Initialize
     _OSCILLATOR_Initialize
     _PIN_MANAGER_Initialize
     _PMD_Initialize
     _TMR0_Initialize
       _TMR0_SetInterruptHandler
     _UART1_Initialize
       _UART1_SetErrorHandler
       _UART1_SetFramingErrorHandler
       _UART1_SetOverrunErrorHandler
   _TMR0_SetInterruptHandler
   _XF_executeOnce
     _ButtonSM_processEvent *
       _BLControl_onButton *
         _Button_getId (ARG)
         _LED_off (ARG)
         _LED_on (ARG)
           _l (ARG)
         _l (ARG)
       _Button_getId *
       _Button_read *
       _Event_getId *
       _POST *
     _XF_popEvent *
       _ENTERCRITICAL
       _LEAVECRITICAL
       ___awmod
     _commControl_processEvent *
       _Event_getData
       _Event_getId
       _POST
       ___wmul
       _getCenterFrame
         _CAN_transmit
           _convertCANid2Reg
         _st
         _store_read
           _st (ARG)
       _getPositionFrame
         _CAN_transmit
       _readCANFrame
         _CAN_receive
           _convertReg2ExtendedCANid
           _convertReg2StandardCANid
         _POST
       _sendAliveFrame
         _CAN_transmit
         _st
         _store_read
       _setCenter
         _st
         _store_write
           _DATAEE_WriteByte
           _st (ARG)
       _setPosition
       _st
       _steeringSetup
         _CAN_transmit
         _st
         _store_write
       _store_read
     _factory_toggleLed *
       _POST
   _XF_init
     _Event_init
     ___wmul

 _INTERRUPT_InterruptManager (ROOT)
   _TMR0_ISR
     Absolute function(Fake) *
     _TMR0_DefaultInterruptHandler *
     _XF_decrementAndQueueTimers *
       _XF_unscheduleTimer
         i2_ENTERCRITICAL
         i2_Event_init
         i2_LEAVECRITICAL
       i2_XF_pushEvent
         i2_ENTERCRITICAL
         i2_Event_getDelay
         i2_Event_setDelay
         i2_LEAVECRITICAL
         i2_XF_scheduleTimer
           i2_ENTERCRITICAL
           i2_LEAVECRITICAL
         i2___awmod

 Address spaces:
Name               Size   Autos  Total    Cost      Usage
BIGRAM             FFF      0     13E      72        7.8%
EEDATA             400      0       0       0        0.0%
BITBIGSFRllhhll    2FA      0       0      45        0.0%
BITBIGSFRllllhh    195      0       0      65        0.0%
BITBIGSFRllhhll    185      0       0      42        0.0%
BITBANK15          100      0       0      34        0.0%
BANK15             100      0       0      35        0.0%
BITBANK14          100      0       0      32        0.0%
BANK14             100      0       0      33        0.0%
BITBANK13          100      0       0      30        0.0%
BANK13             100      0       0      31        0.0%
BITBANK12          100      0       0      28        0.0%
BANK12             100      0       0      29        0.0%
BITBANK11          100      0       0      26        0.0%
BANK11             100      0       0      27        0.0%
BITBANK10          100      0       0      24        0.0%
BANK10             100      0       0      25        0.0%
BITBANK9           100      0       0      22        0.0%
BANK9              100      0       0      23        0.0%
BITBANK8           100      0       0      20        0.0%
BANK8              100      0       0      21        0.0%
BITBANK7           100      0       0      18        0.0%
BANK7              100      0       0      19        0.0%
BITBANK6           100      0       0      16        0.0%
BANK6              100      0       0      17        0.0%
BITBANK5           100      0       0      14        0.0%
BANK5              100      0       0      15        0.0%
BITBANK4           100      0       0      12        0.0%
BANK4              100      0       0      13        0.0%
BITBANK3           100      0       0      10        0.0%
BANK3              100      0       0      11        0.0%
BITBANK2           100      0       0       8        0.0%
BANK2              100      0       0       9        0.0%
BITBANK1           100      0       0       6        0.0%
BANK1              100      0      E9       7       91.0%
BITBANK0            A0      0       0       4        0.0%
BANK0               A0     71      78       5       75.0%
BITBIGSFRllllll     9A      0       0      69        0.0%
BITBIGSFRllhhll     62      0       0      47        0.0%
BITCOMRAM           5F      0       0       0        0.0%
COMRAM              5F     30      32       1       52.6%
BITBIGSFRllhhll     2A      0       0      52        0.0%
BITBIGSFRllhhll     24      0       0      41        0.0%
BITBIGSFRllhhll     23      0       0      54        0.0%
BITBIGSFRhhl        22      0       0      37        0.0%
BITBIGSFRllhhll     1C      0       0      49        0.0%
BITBIGSFRllhhll     1A      0       0      60        0.0%
BITBIGSFRllhhll     11      0       0      59        0.0%
BITBIGSFRllhhll      B      0       0      51        0.0%
BITBIGSFRllhhll      B      0       0      50        0.0%
BITBIGSFRllhhll      A      0       0      53        0.0%
BITBIGSFRllhlll      A      0       0      63        0.0%
BITBIGSFRhhh         7      0       0      36        0.0%
BITBIGSFRlhh         7      0       0      39        0.0%
BITBIGSFRllhhll      5      0       0      46        0.0%
BITBIGSFRlhl         5      0       0      40        0.0%
BITBIGSFRhl          5      0       0      38        0.0%
BITBIGSFRllllhh      2      0       0      68        0.0%
BITBIGSFRllllhh      2      0       0      67        0.0%
BITBIGSFRllllhh      2      0       0      66        0.0%
BITBIGSFRllhllh      2      0       0      62        0.0%
BITBIGSFRllhhll      2      0       0      48        0.0%
BITBIGSFRllllll      2      0       0      70        0.0%
BITBIGSFRllhhll      1      0       0      43        0.0%
BITBIGSFRllhhll      1      0       0      44        0.0%
BITBIGSFRllhhll      1      0       0      55        0.0%
BITBIGSFRllhhll      1      0       0      56        0.0%
BITBIGSFRllhhll      1      0       0      57        0.0%
BITBIGSFRllhhll      1      0       0      58        0.0%
BITBIGSFRllhlh       1      0       0      61        0.0%
BITBIGSFRlllh        1      0       0      64        0.0%
BIGSFR               0      0       0     200        0.0%
BITSFR_9             0      0       0     200        0.0%
SFR_9                0      0       0     200        0.0%
BITSFR_8             0      0       0     200        0.0%
SFR_8                0      0       0     200        0.0%
BITSFR_7             0      0       0     200        0.0%
SFR_7                0      0       0     200        0.0%
BITSFR_6             0      0       0     200        0.0%
SFR_6                0      0       0     200        0.0%
BITSFR_5             0      0       0     200        0.0%
SFR_5                0      0       0     200        0.0%
BITSFR_4             0      0       0     200        0.0%
SFR_4                0      0       0     200        0.0%
BITSFR_3             0      0       0     200        0.0%
SFR_3                0      0       0     200        0.0%
BITSFR_2             0      0       0     200        0.0%
SFR_2                0      0       0     200        0.0%
BITSFR_1             0      0       0     200        0.0%
SFR_1                0      0       0     200        0.0%
BITSFR               0      0       0     200        0.0%
SFR                  0      0       0     200        0.0%
STACK                0      0       0       2        0.0%
NULL                 0      0       0       0        0.0%
ABS                  0      0     193      71        0.0%
DATA                 0      0     2D1       3        0.0%
CODE                 0      0       0       0        0.0%


Microchip Technology PIC18 Macro Assembler V2.36 build 20220127204148 
Symbol Table                                                                                   Thu Sep 01 15:25:02 2022

                             fp__factory_toggleLed 0000                                                  l9 3598  
                                                _b 3544                                                  _l 352C  
                             __end_of_Factory_init 252A                                                 ?_b 0060  
                                               ?_l 0060                                                 l20 32F0  
                                               l23 3596                                                 l15 3072  
                                               l42 3504                                                 l38 21A6  
                                               l39 21A8                                                 l56 2E5E  
                                               l92 28CE                                                 l76 0DFE  
                                               l85 0DFE                                                 l95 3210  
                                               _cc 3538                                     _sendAliveFrame 2712  
                                               _st 3514                                  ??i2_ENTERCRITICAL 0001  
                              ___wmul@multiplicand 0062                                                ??_b 0062  
                                              ??_l 0062                              __end_of_Factory_build 331A  
                                              ?_cc 0060                                                l102 34E4  
                                              l110 2A6C                                                l105 3512  
                                              l122 2AEA                                                l300 31DC  
                                              l127 2AF0                                                l234 0968  
                                              l250 0968                                                l139 2B6E  
                                              l341 355A                                                l261 1934  
                                              l350 351E                                                l182 29E0  
                                              l414 333E                                                l335 3536  
                                              l344 3566                                                l272 27A6  
                                              l353 352A                                                l601 300E  
                                              l281 3594                                                l338 354E  
                                              l362 2CD0                                                l347 3542  
                                              l179 30B6                                                l603 301C  
                                              l275 2710                                                l604 302A  
                                              l292 1D40                                                l356 2528  
                                              l436 358E                                                l284 3132  
                                              l268 2676                                                l364 2D32  
                                              l382 3592                                                l542 33A0  
                                              l278 283A                                                ?_st 0060  
                                              l359 3318                                                l607 3382  
                                              l367 2D96                                                l296 32C8  
                                              l545 3490                                                l548 3362  
                                              l496 2F80                                                l845 1744  
                                              l854 0F72                                                l862 13A8  
                                              l855 122E                                                l960 2CCE  
                                              l856 10D0                                                l859 122E  
                                              l892 2BEA                                                l869 1524  
                                              l897 1ACE                                                l889 1C0C  
                         __end_of_commControl_init 30B8                                   i2_Event_setDelay 3446  
                            __end_of_Factory_start 2D98                                   getCenterFrame@me 007B  
                         fp__ButtonSM_processEvent 0000                                                _blc 355C  
                                              _bsm 3550                               _ButtonSM_setObserver 31DE  
                                  ??_ENTERCRITICAL 0060                                       ___awmod@sign 0065  
                                              prod 003FF3                                                tosl 003FFD  
                                              wreg 003FE8                                        ?_LED_initHW 0066  
                       ??_convertReg2StandardCANid 0064                                               ??_cc 0062  
                                             ??_st 0062                                               l1001 357A  
                                             l1004 3570                                               l1110 33BC  
                                             l1007 3584                                               l1104 34D0  
                                             l1017 25D2                                               l1113 33D8  
                                             l1107 34F4                                               l1150 1E3C  
                                             l1143 1FFE                                               l1160 295A  
                                             l1144 200E                                               l1154 2318  
                                             l1218 329E                                               l1083 2DFA  
                                             ?_blc 0060                                               l1092 3410  
                                             l1180 342A                                               l1086 30F6  
                                             l1095 33F4                                               l1183 2264  
                                             l1176 3444                                    __end_of_LED_off 2B70  
                                             l4001 293E                                               l1089 2F20  
                                             l4003 2940                                               l4011 231A  
                                             l4005 2950                                               l4021 2348  
                                             l4013 2320                                               l4101 1AD4  
                                             l1189 2C5E                                               l1462 23CA  
                                             l4007 2956                                               l4031 2380  
                                             l4023 2350                                               l4015 232E  
                                             l4111 1B36                                               l4103 1AE6  
                                             l4041 23BA                                               l4033 2396  
                                             l4025 2362                                               l4017 2336  
                                             l4201 2A72                                               l4121 1BFC  
                                             l4113 1B68                                               l4105 1AEC  
                                             l4051 2FF0                                               l4043 23C2  
                                             l4035 239E                                               l4027 236A  
                                             l4019 233A                                               l4115 1B9E  
                                             l4107 1AF4                                               l4131 2BCA  
                                             l4213 2AF6                                               l4061 3004  
                                             l4053 2FF6                                               l4141 2DBE  
                                             l4037 23A4                                               l4029 2372  
                                             l4221 21AA                                               l5101 331A  
                                             l4117 1BB6                                               l4109 1B1E  
                                             l4133 2BDA                                               l4125 2B74  
                                             l4301 145A                                               l4063 3008  
                                             l4055 2FFC                                               l4047 2FDE  
                                             l4143 2DD2                                               l4151 33DA  
                                             l4039 23AA                                               l4231 21FA  
                                             l4223 21B0                                               l4071 194A  
                                             l5111 2F22                                               l5103 3326  
                                             l4119 1BEC                                               l4127 2B74  
                                             l4311 14BE                                               l4303 146E  
                                             l4209 2AEC                                               l4065 300C  
                                             l4057 3000                                               l4049 2FE8  
                                             l4145 2DE6                                               l4137 2D98  
                                             l4153 34BE                                               l4161 1D80  
                                             l4233 2210                                               l4225 21BC  
                                             l4081 1A02                                               l4073 195C  
                                             l5121 2F64                                               l5113 2F2E  
                                             l5105 332A                                               l4401 113E  
                                             l4129 2BA0                                               l4321 1518  
                                             l4313 14D0                                               l4305 1486  
                                             l4059 3002                                               l5051 1CB4  
                                             l4139 2DA8                                               l4147 30B8  
                                             l4171 1DFE                                               l4163 1DB6  
                                             l4155 1D42                                               l4235 223E  
                                             l4227 21D2                                               l4083 1A0A  
                                             l4075 198A                                               l4091 1A66  
                                             l4067 1936                                               l5131 347A  
                                             l5123 2F66                                               l5115 2F42  
                                             l5107 332C                                               l5203 22C0  
                                             l4411 119C                                               l4403 1144  
                                             l4331 0E12                                               l4243 32A0  
                                             l4315 14E2                                               l4307 149A  
                                             ?_bsm 0060                                               l5061 3544  
                                             l5053 1CD0                                               l5045 1C0E  
                                             l4149 33F6                                               l4165 1DBC  
                                             l4181 1E3A                                               l4157 1D58  
                                             l4229 21E8                                               l4093 1A86  
                                             l4085 1A10                                               l4077 19CA  
                                             l4069 1936                                               l5125 2F68  
                                             l5117 2F60                                               l5109 333A  
                                             l5141 2CC8                                               l5133 2C60  
                                             l5205 22E8                                               l4421 1200  
                                             l4413 11B0                                               l4405 114A  
                                             l4341 0E8E                                               l4333 0E22  
                                             l4245 32A6                                               l4317 14F4  
                                             l4309 14AC                                               l4325 1520  
                                             l4261 1262                                               l4253 1230  
                                             l6021 0136                                               l4239 3514  
                                             l5055 1CEC                                               l5047 1C2C  
                                             l4175 1E04                                               l4167 1DE2  
                                             l4159 1D6C                                               l4095 1AB8  
                                             l4087 1A22                                               l4079 19D0  
                                             l5151 1582                                               l5143 1526  
                                             l5127 2F6A                                               l5119 2F62  
                                             l5135 2C9E                                               l5207 230E  
                                             l4423 1214                                               l4415 11C4  
                                             l4407 1150                                               l4351 0F08  
                                             l4343 0E94                                               l4335 0E7C  
                                             l4247 32B6                                               l4319 1506  
                                             l4271 130C                                               l4263 12A4  
                                             l4255 1236                                               l4431 31AA  
                                             l6031 03A8                                               l6023 025A  
                                             l5065 3550                                               l5073 3538  
                                             l4193 352C                                               l5081 252A  
                                             l5057 1D08                                               l5049 1C98  
                                             l5241 2508                                               l5233 247C  
                                             l4521 20E8                                               l4177 1E2A  
                                             l4169 1DF8                                               l4089 1A50  
                                             l5161 16A4                                               l5153 15BC  
                                             l5145 152A                                               l5129 3340  
                                             l5137 2CAC                                               l4513 302C  
                                             l4425 1228                                               l4417 11D8  
                                             l4409 1188                                               l4361 0F6C  
                                             l4353 0F1C                                               l4345 0ECC  
                                             l4337 0E82                                               l4329 0E00  
                                             l4249 32C6                                               l4281 1366  
                                             l4273 131E                                               l4265 12B4  
                                             l4257 1244                                               l4433 31BC  
                                             l6041 05BA                                               l6033 03E2  
                                             l6025 039A                                               l6017 0AEA  
                                             l5091 25CC                                               l5059 1D24  
                                             l5243 2518                                               l5235 24BC  
                                             l4531 2190                                               l4523 20F2  
                                             l4179 1E34                                               l5163 16DE  
                                             l5155 15F6                                               l5147 153E  
                                             l5139 2CBA                                               l4515 303E  
                                             l4419 11EC                                               l4371 0FE6  
                                             l4363 0F6E                                               l4355 0F30  
                                             l4347 0EE0                                               l4339 0E88  
                                             l4291 13B8                                               l4283 1378  
                                             l4275 1330                                               l4267 12E6  
                                             l4259 1252                                               l6051 18CE  
                                             l4435 31CE                                               l4611 2630  
                                             l4603 25FA                                               l6043 0922  
                                             l6027 03F0                                               l6035 03BE  
                                             l6019 0DD0                                               l5323 1F3C  
                                             l5069 355C                                               l5245 32F2  
                                             l5077 3520                                               l5085 2540  
                                             l5237 24CC                                               l5165 172A  
                                             l5157 1630                                               l5149 1548  
                                             l5261 3390                                               l6053 2A94  
                                             l4197 2A68                                               l4517 304E  
                                             l4381 1052                                               l4373 0FEC  
                                             l4365 0F80                                               l4357 0F44  
                                             l4349 0EF4                                               l4293 13C6  
                                             l4285 138A                                               l4277 1342  
                                             l4269 12F8                                               l6045 18AA  
                                             l4621 2650                                               l4613 2634  
                                             l4605 2616                                               l6037 03CC  
                                             l6029 040C                                               l5341 2BEC  
                                             l5325 1F62                                               l5317 1F32  
                                             l5087 256C                                               l5239 24F8  
                                             l6055 211E                                               l4527 20FE  
                                             l5247 2D34                                               l5159 166A  
                                             l5263 3394                                               l5255 3384  
                                             l4519 3062                                               l4543 34E6  
                                             l5191 226A                                               l4391 10B6  
                                             l4383 1066                                               l4375 0FF2  
                                             l4367 0FDA                                               l4359 0F58  
                                             l4295 13D6                                               l4287 139C  
                                             l4279 1354                                               l6047 18E4  
                                             l4551 2796                                               l4631 26EA  
                                             l4623 2678                                               l4607 261E  
                                             l4615 2644                                               l6039 03FE  
                                             l5095 2CD0                                               l5343 2C02  
                                             l5335 1F8C                                               l5327 1F68  
                                             l4721 2E26                                               l4713 32CA  
                                             l6057 2B18                                               l5089 257C  
                                             l4529 2174                                               l4801 283C  
                                             l5265 3398                                               l5257 3388  
                                             l5193 2280                                               l4553 2EC2  
                                             l4393 10CA                                               l4385 107A  
                                             l4377 102A                                               l4369 0FE0  
                                             l4641 2810                                               l4633 27A8  
                                             l4297 1418                                               l4289 139E  
                                             l6049 18C0                                               l4561 1766  
                                             l4625 2678                                               l4609 262A  
                                             l5097 2CF2                                               l5345 2C14  
                                             l5337 1FDC                                               l5329 1F84  
                                             l4811 31DE                                               l4723 2E36  
                                             l4715 32DC                                               l4651 3378  
                                             l4803 287E                                               l5099 3590  
                                             l5267 339C                                               l5259 338C  
                                             l4539 34F6                                               l5195 2286  
                                             l4387 108E                                               l4379 103E  
                                             l4643 282E                                               l4635 27C2  
                                             l4299 1428                                               l4563 17AA  
                                             l4571 1876                                               l4547 2712  
                                             l4627 269E                                               l4731 0984  
                                             l5347 2C26                                               l5339 1FE2  
                                             l5451 3256                                               l5443 3244  
                                             l4725 2E4A                                               l4717 2DFC  
                                             l4813 34D2                                               l4821 3096  
                                             l4653 337A                                               l4645 3364  
                                             l4805 28AC                                               l4661 3586  
                                             l5197 22A0                                               l4397 10DE  
                                             l4389 10A2                                               l4637 27DC  
                                             l4565 17EE                                               l4573 18F2  
                                             l4557 1746                                               l4549 2738  
                                             l4629 26C4                                               l4901 044A  
                                             l4741 09F8                                               l4733 0998  
                                             l5349 2C38                                               l5453 325A  
                                             l5445 3248                                               l4719 2E0C  
                                             l4815 3506                                               l4823 30A6  
                                             l4655 337C                                               l4647 336E  
                                             l4807 28B6                                               l4663 3572  
                                             l5199 22A8                                               l4399 1138  
                                             l4639 27F6                                               l4567 1832  
                                             l4591 3594                                               l4911 04C6  
                                             l4903 0466                                               l4831 003C  
                                             l4751 0A86                                               l4743 0A14  
                                             l4735 09B4                                               l4727 096A  
                                             l5455 3268                                               l5447 324A  
                                             l4817 3074                                               l4657 337E  
                                             l4649 3374                                               l4809 28BC  
                                             l4825 295C                                               l4665 3568  
                                             l4593 30F8                                               l4921 053A  
                                             l4913 04DA                                               l4905 047A  
                                             l4841 00B2                                               l4833 004C  
                                             l4753 0A9A                                               l4745 0A42  
                                             l4737 09C8                                               l4761 0B18  
                                             l4729 0984                                               l5449 324E  
                                             l4819 3084                                               l4667 357C  
                                             l4595 3112                                               l4923 0556  
                                             l4915 04F6                                               l4907 0496  
                                             l4931 059A                                               l4843 00CE  
                                             l4851 0116                                               l4835 005C  
                                             l4827 001E                                               l4771 0C04  
                                             l4763 0B38                                               l4755 0AB6  
                                             l4747 0A56                                               l4739 09E4  
                                             l3981 33A2                                               l3973 3430  
                                             l4677 3274                                               l4597 3126  
                                             l4941 0684                                               l4925 056A  
                                             l4917 050A                                               l4909 04AA  
                                             l4933 0600                                               l4861 01E8  
                                             l4845 00E4                                               l4853 0154  
                                             l4837 0080                                               l4829 0038  
                                             l4781 0CFA                                               l4773 0C24  
                                             l4765 0B3C                                               l4749 0A6A  
                                             l3983 33BE                                               l3975 3442  
                                             l4679 3296                                               l4599 25D4  
                                             l4951 074E                                               l4943 06A0  
                                             l4935 0620                                               l4927 0586  
                                             l4919 0526                                               l4863 01F4  
                                             l4855 0174                                               l4847 0100  
                                             l4839 009C                                               l4783 0D1A  
                                             l4775 0C42                                               l4767 0B80  
                                             l4791 0DB0                                               l4759 0ACA  
                                             l3977 3416                                               l4961 0852  
                                             l4953 0794                                               l4945 06E4  
                                             l4937 0624                                               l4881 02EE  
                                             l4873 028E                                               l4857 017C  
                                             l4785 0D38                                               l4777 0CA4  
                                             l4769 0BC4                                               l3979 3428  
                                             l3995 28DE                                               l3987 28D0  
                                             l4963 086A                                               l4955 07AC  
                                             l4947 06FC                                               l4939 0668  
                                             l4971 0902                                               l4891 034A  
                                             l4875 02AA                                               l4859 01D6  
                                             l4867 023A                                               l4787 0D9A  
                                             l4779 0CBA                                               l3997 28FE  
                                             l3989 28D8                                               l4965 08B0  
                                             l4957 07F2                                               l4949 0742  
                                             l4885 030E                                               l4877 02BE  
                                             l4869 0278                                               l3999 291A  
                                             l4967 08BC                                               l4959 080E  
                                             l4887 0322                                               l4895 035E  
                                             l4879 02DA                                               l4889 0336  
                                             l4897 041A                                               l4899 0436  
              commControl_processEvent@oldASMState 00BC                                __end_of_XF_popEvent 231A  
                                             u2100 2190                                               u2101 218C  
                                             u2110 21A2                                               u2111 219C  
                                             u2120 21A4                                               u2200 09B4  
                                             u2201 09B0                                               u2130 2738  
                                             u2210 09E4                                               u2131 2734  
                                             u2211 09E0                                               u2140 1762  
                                             u2300 0D1A                                               u2220 0A14  
                                             u2141 175E                                               u2301 0D16  
                                             u2221 0A10                                               _LATA 003FBA  
                                             u2150 2616                                               u2310 0D38  
                                             u2230 0A42                                               _LATB 003FBB  
                                             u2151 2612                                               u2311 0D34  
                                             u2231 0A3E                                               _LATC 003FBC  
                                             u1600 3442                                               u2080 303E  
                                             u2400 02AA                                               u2240 0A86  
                                             u1601 343E                                               u2081 303A  
                                             u2401 02A6                                               u2241 0A82  
                                             u1610 3428                                               u2330 28AC  
                                             u2090 304E                                               u2410 02DA  
                                             u2250 0AB6                                               u1611 3424  
                                             u2331 28A8                                               u2091 304A  
                                             u2411 02D6                                               u2251 0AB2  
                                             u1620 28FE                                               u1700 23BA  
                                             u2500 0586                                               u2420 030A  
                                             u2340 009C                                               u2260 0B38  
                                             u1621 28FA                                               u1701 23B6  
                                             u2501 0582                                               u2421 0306  
                                             u2341 0098                                               u2261 0B34  
                                             u1710 301C                                               u2510 0620  
                                             u2430 0436                                               u2350 00CE  
                                             u2270 0C24                                               u1711 3018  
                                             u1631 2930                                               u2511 061C  
                                             u2431 0432                                               u2351 00CA  
                                             u2271 0C20                                               u1640 2950  
                                             u2520 06A0                                               u2440 0466  
                                             u2360 0100                                               u2328 0D86  
                                             u2280 0C42                                               u1641 294C  
                                             u1801 1D92                                               u2521 069C  
                                             u2441 0462                                               u2361 00FC  
                                             u2329 0D9A                                               u2281 0C3E  
                                             u1650 232E                                               u1810 1DF8  
                                             u1730 194A                                               u2530 080E  
                                             u2450 0496                                               u2370 0174  
                                             u1651 232A                                               u1811 1DF4  
                                             u1731 1946                                               u2531 080A  
                                             u2451 0492                                               u2371 0170  
                                             u2540 1C2C                                               u1660 2348  
                                             u1900 13C6                                               u2460 04C6  
                                             u2380 01E8                                               u1725 3028  
                                             u2541 1C28                                               u1661 2344  
                                             u1821 1E20                                               u1901 13C2  
                                             u2461 04C2                                               u2381 01E4  
                                             u2550 253C                                               u1726 302A  
                                             u1670 2362                                               u1910 0E22  
                                             u2470 04F6                                               u2390 028A  
                                             u2551 2538                                               u1671 235E  
                                             u1911 0E1E                                               u2471 04F2  
                                             u2391 0286                                               u2560 257C  
                                             u1680 2380                                               u2480 0526  
                                             u2561 2578                                               u1681 237C  
                                             u1745 19E2                                               u2481 0522  
                                             u1690 2396                                               u1930 0F80  
                                             u2490 0556                                               u2298 0C90  
                                             u2570 2CE0                                               u2810 1F84  
                                             u1691 2392                                               u1851 2248  
                                             u1755 1A98                                               u1931 0F7C  
                                             u2491 0552                                               u2299 0CA4  
                                             u2571 2CDA                                               u2811 1F80  
                                             u2580 153E                                               u1860 32B6  
                                             u2820 1FFE                                               u1781 2DE0  
                                             u2581 153A                                               u1925 0EBA  
                                             u1861 32B2                                               u1765 1B48  
                                             u2821 1FFA                                               u1790 1D6C  
                                             u2590 1744                                               u2670 22A0  
                                             u1950 10DE                                               u1870 1244  
                                             u1791 1D68                                               u2591 1740  
                                             u2671 229C                                               u1951 10DA  
                                             u1775 2BA8                                               u1871 1240  
                                             u2831 2BF8                                               u1880 1252  
                                             u2576 2CE2                                               u2840 2C14  
                                             u2681 22B2                                               u1945 1018  
                                             u1881 124E                                               u2841 2C10  
                                             u1890 13B8                                               u1970 31BC  
                                             u2850 2C26                                               u2691 22DE  
                                             u1891 13B4                                               u1971 31B8  
                                             u2851 2C22                                               u2860 2C38  
                                             _PMD0 0039C0                                               u1965 1176  
                                             u2861 2C34                                               _PMD1 0039C1  
                                             _PMD2 0039C2                                               _PMD3 0039C3  
                                             _PMD4 0039C4                                               _PMD5 0039C5  
                                             _PMD6 0039C6                                               _PMD7 0039C7  
                                             u2878 2C4A                                               u2879 2C5E  
                                             _POST 21AA                                               _WPUA 003A41  
                                             _WPUB 003A51                                               _WPUC 003A61  
                                             _WPUE 003A81                commControl_processEvent@oldCSMState 00BB  
                                             _main 3244                       convertCANid2Reg@passedInEIDH 0065  
                     convertCANid2Reg@passedInEIDL 0067                                   _XF_scheduleTimer 28D0  
                                             fsr1h 003FE2                                               fsr2h 003FDA  
                                             indf2 003FDF                                               fsr1l 003FE1  
                                             fsr2l 003FD9                       convertCANid2Reg@passedInSIDH 0069  
                     convertCANid2Reg@passedInSIDL 006B                                               prodh 003FF4  
                                             prodl 003FF3                                               start 001A  
                                  __end_of_XF_init 2010                                      ??_Event_getId 0062  
                                     ___param_bank 000000                                      _steeringSetup 25D4  
                                    ??_Event_setPE 0064                                      ??_Event_setId 0063  
                               XF_scheduleTimer@ev 0063                                 XF_scheduleTimer@tm 0061  
                           __end_of_sendAliveFrame 27A8                                        _store_write 31AA  
                                  ButtonSM_init@me 0062                                              ??_blc 0062  
                                    ?_readCANFrame 00A9                                              ??_bsm 0062  
                          __end_of_TMR0_Initialize 3340                                              ?_POST 008A  
                                    _Event_getData 2EC2                     ??_TMR0_DefaultInterruptHandler 0001  
                    __end_of_OSCILLATOR_Initialize 3492                                   __end_of_LED_init 34E6  
                                            ?_main 0001                                      ??_Button_init 0066  
                                    ??_Button_read 0062                                    __end_of___awmod 23CC  
                                            _U1P1H 003DED                                              _U1P2H 003DEF  
                                            _U1P3H 003DF1                                              _U1P1L 003DEC  
                                            _U1P2L 003DEE                                              _U1P3L 003DF0  
                                            _U1UIR 003DF8                                              _U1RXB 003DE8  
                                            _U1TXB 003DEA                                              i2l433 3242  
                                            i2l439 359A                                              i2l391 2FD0  
                                            i2l387 2FB0                              ?_ButtonSM_setObserver 0062  
                                            _OSCEN 0039DD                                              _TMR0H 003FB7  
                                            _TMR0L 003FB6                                      _Event_setData 30B8  
                                            _TRISA 003FC2                                              _TRISB 003FC3  
                                            _TRISC 003FC4                          ?_TMR0_SetInterruptHandler 0060  
                               getCenterFrame@msgs 007D                              CAN_receive@tempCanMsg 0073  
                                 __end_of_TMR0_ISR 3244                                    _DATAEE_ReadByte 3364  
                             __end_of_CAN_transmit 1230                                              _theXF 01E9  
                                    ?_Button_getId 0060                                              _sepos 3520  
                          _ButtonSM_startBehaviour 283C                         __end_ofi2_XF_scheduleTimer 2A68  
                             __end_of_XF_pushEvent 1E3E                                              pclath 003FFA  
                                            pclatu 003FFB                                              plusw0 003FEB  
                                            plusw1 003FE3                                              plusw2 003FDB  
                      ?_XF_decrementAndQueueTimers 0001                convertReg2ExtendedCANid@ConvertedID 006F  
                                            status 003FD8                               CAN_transmit@tempEIDH 0077  
                             CAN_transmit@tempEIDL 0078                               CAN_transmit@tempSIDH 0079  
                             CAN_transmit@tempSIDL 007A                   _UART1_DefaultFramingErrorHandler 000000  
                                    _ButtonSM_init 2DFC                                       __end_of_POST 2266  
                                   ?_steeringSetup 007B                                    __initialization 3170  
                              Button_init@isPullUp 0065                                  ??_Event_setTarget 0064  
                                       _Event_init 2D98                                       __end_of_main 3274  
                                   ??_readCANFrame 00AD                                    ?_sendAliveFrame 007B  
                                   ?_Event_getData 0060                                     Button_getId@me 0060  
                                           ??_POST 0099                        ?_INTERRUPT_InterruptManager 0001  
                                 i2XF_pushEvent@ev 0015                                   i2XF_pushEvent@tm 0028  
                                   setPosition@msg 0062                                __end_of_Event_getId 34F6  
                                           ??_main 00D1                                      _Button_initHW 3596  
                              __end_of_Event_setPE 3412                                __end_of_Event_setId 34D2  
                                   ?_Event_setData 0060                                      __activetblptr 000002  
                     ??_commControl_startBehaviour 00AB                                     _Event_getDelay 33BE  
                                      _XF_popEvent 2266                                          ??_LED_off 0064  
                              Event_setDelay@delay 0062                                   _UART1_Initialize 2C60  
                                ??_ECAN_Initialize 0072                                     ??_Button_getId 0062  
                                           POST@id 008E                                             POST@ev 009A  
                              __end_of_Button_init 32F2                                __end_of_Button_read 21AA  
                                           _CANCON 003F8F                                   POST@processEvent 008C  
                                           ?_sepos 0060                                             _CIOCON 003700  
                                           _ANSELA 003A40                                             _ANSELB 003A50  
                                           _ANSELC 003A60                                             _T0CON0 003FB8  
                                           _T0CON1 003FB9                                             _U1CON0 003DF2  
                                           _U1CON1 003DF3                                             _U1CON2 003DF4  
                                           _U1BRGH 003DF6                                             _U1FIFO 003DF7  
                                           _U1BRGL 003DF5                                             _RB2PPS 003A0A  
                                     ?_setPosition 0060                                             _RC5PPS 003A15  
                                           _ODCONA 003A42                                             _ODCONB 003A52  
                                           _ODCONC 003A62                                             i2l1110 345E  
                                           i2l1113 3478                                             i2l1150 1F30  
                                           i2l1160 2A66                                             i2l1083 2EC0  
                                           i2l1163 316E                                             i2l1180 34A6  
                                           i2l1172 20E6                                             i2l1176 34BC  
                                           i2l1462 247A                                             i2l4501 244E  
                                           i2l5221 2034                                             i2l5213 2010  
                                           i2l4191 34A4                                             i2l4503 2454  
                                           i2l5231 20D6                                             i2l5223 206E  
                                           i2l4185 34AA                                             i2l4441 2E84  
                                           i2l4505 245A                                             i2l5225 20AE  
                                           i2l4187 34BA                                             i2l4443 2E98  
                                           i2l4507 246A                                             i2l5227 20BC  
                                           i2l5219 2014                                             i2l5251 3216  
                                           i2l4445 2EAC                                             i2l4437 2E60  
                                           i2l4189 3494                                             i2l4461 29EC  
                                           i2l4453 29E2                                             i2l4509 2472  
                                           i2l5229 20D4                                             i2l5253 3228  
                                           i2l4439 2E70                                             i2l4447 3446  
                                           i2l4471 2A5E                                             i2l4463 2A0C  
                                           i2l4455 29E8                                             i2l4703 1EF8  
                                           i2l4449 3460                                             i2l4473 2A64  
                                           i2l4465 2A28                                             i2l4481 23DE  
                                           i2l4705 1F1E                                             i2l5249 3212  
                                           i2l5361 2F9E                                             _INLVLA 003A44  
                                           _INLVLB 003A54                                             i2l4467 2A4C  
                                           i2l4491 2412                                             i2l4483 23E6  
                                           i2l4707 1F28                                             _INLVLC 003A64  
                                           i2l4469 2A4E                                             i2l4493 241A  
                                           i2l4485 23EA                                             i2l4477 23CC  
                                           i2l4709 1F2E                                             i2l5365 2FBE  
                                           _INLVLE 003A84                                             i2l4671 313C  
                                           i2l4495 2422                                             i2l4487 23F8  
                                           i2l4479 23D0                                             i2l5367 2FCC  
                                           i2l5359 2F8E                                             i2l4673 3154  
                                           i2l4497 2430                                             i2l4489 2400  
                                           i2l4675 3168                                             i2l4499 2446  
                                           i2l4691 1EAE                                             i2l4683 1E3E  
                                           i2l4669 3136                                             i2l4693 1EB4  
                                           i2l4685 1E52                                             i2l4695 1ED6  
                                           i2l4687 1E64                                             i2l4697 1EEC  
                                           i2l4689 1E78                                             i2l4699 1EF2  
                                           _TABLAT 003FF5                                             _LED_on 2A68  
                                           _OSCFRQ 0039DF                                             _RXB0D0 003F86  
                                           _RXB0D1 003F87                                             _RXB0D2 003F88  
                                           _RXB0D3 003F89                                             _RXB1D0 0037F6  
                                           _RXB0D4 003F8A                                             _RXB1D1 0037F7  
                                           _RXB0D5 003F8B                                             _RXB1D2 0037F8  
                                           _RXB0D6 003F8C                                             _RXB1D3 0037F9  
                                           _RXB0D7 003F8D                                             _RXB1D4 0037FA  
                                           _RXB1D5 0037FB                                             _RXB1D6 0037FC  
                                           _RXB1D7 0037FD                                          ??_XF_init 0068  
                                           _NVMDAT 0039E3                                             _TXB0D0 0037E6  
                                           _TXB0D1 0037E7                                             _TXB0D2 0037E8  
                                           _TXB0D3 0037E9                                             _TXB1D0 0037D6  
                                           _TXB0D4 0037EA                                             _TXB1D1 0037D7  
                                           _TXB0D5 0037EB                                             _TXB1D2 0037D8  
                                           _TXB0D6 0037EC                                             _TXB1D3 0037D9  
                                           _TXB0D7 0037ED                                             _TXB2D0 0037C6  
                                           _TXB1D4 0037DA                                             _TXB2D1 0037C7  
                                           _TXB1D5 0037DB                                             _TXB2D2 0037C8  
                                           _TXB1D6 0037DC                                             _TXB2D3 0037C9  
                                           _TXB1D7 0037DD                                             _TXB2D4 0037CA  
                                           _TXB2D5 0037CB                                             _TXB2D6 0037CC  
                                           _TXB2D7 0037CD                                     _Event_setDelay 33A2  
                            _UART1_SetErrorHandler 357C                                     ?_ButtonSM_init 0062  
                              i2XF_pushEvent@inISR 0024                                    i2_LEAVECRITICAL 3492  
                                   _XF_executeOnce 2BEC                                             ___wmul 3274  
                                        ??___awmod 0064                                ButtonSM_init@button 0064  
                                 ?_TMR0_Initialize 0001                                             clear_0 3178  
                                           clear_1 318A                                    ___awmod@divisor 0062  
                            _ButtonSM_processEvent 096A                                             isa$std 000001  
                                   ?_Button_initHW 0062                                    ___awmod@counter 0064  
                           ??_ButtonSM_setObserver 0068                             __end_of_Event_getDelay 33DA  
                          __end_of_DATAEE_ReadByte 3384                                       Event_init@me 0066  
                                   _PMD_Initialize 3340                                  ?_getPositionFrame 007B  
                                __end_ofi2___awmod 247C                                   ??_BLControl_init 0064  
                         __end_ofi2_Event_getDelay 347A                   __end_of_convertReg2StandardCANid 2BEC  
                                           tblptru 003FF8                          ??_ButtonSM_startBehaviour 00AB  
                               ??_getPositionFrame 007D                                i2XF_scheduleTimer@i 0014  
                                   i2___awmod@sign 0006           TMR0_SetInterruptHandler@InterruptHandler 0060  
             __end_of_UART1_SetOverrunErrorHandler 3572                       _UART1_SetOverrunErrorHandler 3568  
                        _UART1_DefaultErrorHandler 000000                             __end_of_Event_setDelay 33BE  
                                     _Factory_init 247C                                   XF_pushEvent@temp 0089  
                                 XF_pushEvent@tmid 0084                                  _SYSTEM_Initialize 3384  
                                       __accesstop 0060                            __end_of__initialization 31A0  
                               ?_SYSTEM_Initialize 0001                           __end_ofi2_Event_setDelay 3460  
                         _convertReg2ExtendedCANid 1AD0                             CAN_receive@returnValue 0075  
                                  i2_ENTERCRITICAL 34A8                                    ??_steeringSetup 007F  
                                    ___rparam_used 000001                                          ?_LED_init 0062  
                           __end_of_XF_executeOnce 2C60                       ButtonSM_setObserver@observer 0064  
                               LEAVECRITICAL@inISR 0060                                   steeringSetup@msg 007D  
                    fp__XF_decrementAndQueueTimers 0000                                   sendAliveFrame@me 007B  
                                   __pcstackCOMRAM 0001                                    ??_Event_getData 0068  
                                      ?_Event_init 0066                                        _Event_getId 34E6  
                              ??_SYSTEM_Initialize 0073                                        _Event_setPE 33F6  
                                      _Event_setId 34BE                                          ?_TMR0_ISR 0001  
                                 _DATAEE_WriteByte 2FDE                                      __end_of_sepos 352C  
                                Event_setData@data 0062                                    ??_Event_setData 006A  
                                       __end_of_cc 3544                             __end_of_PMD_Initialize 3364  
                                  store_read@value 0065                                         __end_of_st 3520  
                                  ?_Event_getDelay 0060                           __end_of_XF_scheduleTimer 295C  
                                      _Button_init 32CA                                        _Button_read 20E8  
                                        LED_off@me 0062                                  ?_commControl_init 0062  
                          ButtonSM_processEvent@me 00B6                            ButtonSM_processEvent@ev 00B1  
                                     ??_LED_initHW 0068                          _UART1_FramingErrorHandler 00D5  
                               ??_commControl_init 0064                              __end_of_LEAVECRITICAL 342C  
            convertReg2StandardCANid@tempRXBn_SIDH 0066              convertReg2StandardCANid@tempRXBn_SIDL 0060  
                        __end_of_SYSTEM_Initialize 33A2                                            ??_sepos 0062  
                             __end_of_readCANFrame 1936                            __end_ofi2_LEAVECRITICAL 34A8  
                                   XF_pushEvent@ev 0074                                    ?_Event_setDelay 0060  
                                   XF_pushEvent@tm 0087                                         __pbssBANK0 00D7  
                                       __pbssBANK1 0100                                        setCenter@me 0068  
                    ?_UART1_SetOverrunErrorHandler 0060                                    ??_ButtonSM_init 0066  
                           ?_UART1_SetErrorHandler 0060                                            ?_LED_on 0062  
                                  Button_initHW@me 0062                                         __pnvCOMRAM 0031  
                                       ??_LED_init 0065                                 ENTERCRITICAL@inISR 0060  
                                          IVTBASEH 003FD6                                            IVTBASEL 003FD5  
                                          IVTBASEU 003FD7                                    ?_XF_executeOnce 0001  
                                     LED_initHW@me 0066                         __end_of_BLControl_onButton 3074  
                         _commControl_processEvent 001E                        fp__commControl_processEvent 0000  
                 __end_of_TMR0_SetInterruptHandler 3590                                       ?_store_write 0064  
                                     _CAN_transmit 0E00                                            ?___wmul 0060  
                                       ??_TMR0_ISR 002F                               __end_of_Button_getId 3506  
                               __end_of_LED_initHW 3514                                    ??_Button_initHW 0064  
                           ?_ButtonSM_processEvent 00B1                                       _XF_pushEvent 1D42  
                                          _ECANCON 003F91                                            _CANSTAT 003F8E  
                          Event_setPE@processEvent 0062                                    ?_PMD_Initialize 0001  
                                          _BRGCON1 003703                                            _BRGCON2 003704  
                                          _BRGCON3 003705                 __end_of_commControl_startBehaviour 29E2  
                       _commControl_startBehaviour 295C                                   ?_DATAEE_ReadByte 0060  
                                          _U1ERRIE 003DFA                                            _U1ERRIR 003DF9  
                                   _getCenterFrame 27A8                                  Event_setTarget@me 0060  
                        BLControl_onButton@pressed 0069                                            _U1RXPPS 003AE7  
                                          _LED_off 2AEC                                          POST@delay 008F  
                                          _OSCCON1 0039D9                                            _OSCCON3 0039DB  
                                          _TBLPTRH 003FF7                                            _TBLPTRL 003FF6  
                                          _TBLPTRU 003FF8                                            _RXB0DLC 003F85  
                                          _RXB1DLC 0037F5                                            _NVMADRH 0039E1  
                                          _NVMADRL 0039E0                                            _OSCTUNE 0039DE  
                            __end_of_ENTERCRITICAL 3446                                            _NVMCON2 0039E6  
                                          _TXB0DLC 0037E5                                            _SLRCONA 003A43  
                                          _SLRCONB 003A53                                            _TXB1DLC 0037D5  
                                          _SLRCONC 003A63                                            _TXB2DLC 0037C5  
                          __end_ofi2_ENTERCRITICAL 34BE                                    _Event_setTarget 33DA  
                             DATAEE_WriteByte@bAdd 0060                                            _XF_init 1F32  
                                 ??_sendAliveFrame 007D                                            __Hparam 0000  
                                          __Lparam 0000                           __end_of_UART1_Initialize 2CD0  
                        ?_convertReg2StandardCANid 0060                                 i2_XF_scheduleTimer 29E2  
                                          ___awmod 231A                                    _ECAN_Initialize 1526  
                                     store_init@me 0064                                       store_read@me 0062  
                                          __pcinit 3170                                            __ramtop 1000  
                           __end_of_getCenterFrame 283C                                            __ptext0 3244  
                                          __ptext1 1F32                                            __ptext2 2BEC  
                                          __ptext3 2CD0                                            __ptext4 096A  
                                          __ptext5 001E                                            __ptext6 25D4  
                                          __ptext7 3594                                            __ptext8 2678  
                                          __ptext9 31AA                                ?i2_XF_scheduleTimer 0002  
                               getPositionFrame@me 007B                                    store_write@item 0066  
                                       _theFactory 0100                              _OSCILLATOR_Initialize 347A  
                                     ?_XF_popEvent 0066                                   ___awmod@dividend 0060  
                                    Event_getId@me 0060                                   _convertCANid2Reg 1936  
                         ??_PIN_MANAGER_Initialize 0060                                     i2Event_init@me 0001  
                          XF_unscheduleTimer@inISR 0003                                  __end_of_setCenter 2712  
                                 Event_getDelay@me 0060                               end_of_initialization 31A0  
                                 ?i2_LEAVECRITICAL 0001                               ??i2_XF_scheduleTimer 0014  
                                    Event_setPE@me 0060                                      __Lmediumconst 0000  
                                    Event_setId@me 0060                                      ??_CAN_receive 0075  
                   ??_UART1_SetOverrunErrorHandler 0062                                      ?i2_Event_init 0001  
                             i2XF_scheduleTimer@ev 0004                               i2XF_scheduleTimer@tm 0002  
                                          postdec1 003FE5                                            postdec2 003FDD  
                                          postinc0 003FEE                                            postinc1 003FE6  
                                          postinc2 003FDE                                        sepos_init@i 0066  
                                       _sepos_init 252A                              fp__BLControl_onButton 0000  
                                  ?_getCenterFrame 007B                           _TMR0_SetInterruptHandler 3586  
                                        _PORTCbits 003FCC                                  XF_pushEvent@inISR 0083  
                                    _Factory_build 32F2                                   XF_popEvent@inISR 0077  
                                    _Factory_start 2D34                             ButtonSM_setObserver@me 0062  
                          __end_of_Event_setTarget 33F6                             CAN_transmit@tempCanMsg 0072  
                                ?i2_Event_getDelay 0001                         ??_convertReg2ExtendedCANid 0064  
                                        i2___awmod 23CC                                   ?i2_ENTERCRITICAL 0001  
                         __end_of_DATAEE_WriteByte 302C                                 ??i2_Event_getDelay 0003  
                                   __end_of_LED_on 2AEC                            __end_of_ECAN_Initialize 1746  
                                ?i2_Event_setDelay 0001                                  steeringSetup@msgs 007F  
                                   ??i2_Event_init 0003                                         _store_init 1C0E  
                                       _store_read 32A0                                       ??_Event_init 0068  
                               ??i2_Event_setDelay 0005                                  XF_scheduleTimer@i 0073  
                                     ?_Event_getId 0060                    commControl_processEvent@aliveTM 00BE  
                                 ??_Event_getDelay 0062                                       ?_Event_setPE 0060  
                                     ?_Event_setId 0060                                 Event_setId@eventID 0062  
                     __end_of_INTERRUPT_Initialize 3594                                __end_of_CAN_receive 1526  
                                     _readCANFrame 1746                                     __end_of___wmul 32A0  
                           ?_OSCILLATOR_Initialize 0001                                     ?_Factory_build 0001  
                             XF_unscheduleTimer@id 0004                                       ?_Button_init 0062  
                                     ?_Button_read 0060                                     i2_XF_pushEvent 1E3E  
                                ?_XF_scheduleTimer 0061                                     ?_Factory_start 0001  
                                    XF_popEvent@ev 0078                                start_initialization 3170  
                                 ??_Event_setDelay 0064                                 ??_XF_scheduleTimer 0073  
                                      __end_of_blc 3568                                        __end_of_bsm 355C  
                            XF_scheduleTimer@inISR 0072                            ??_UART1_SetErrorHandler 0062  
                                       ?i2___awmod 0001                                      setPosition@me 0060  
                                     _Button_getId 34F6                                         ivt0x8_base 0008  
                               __end_of_Event_init 2DFC                                  _factory_toggleLed 2CD0  
                                 ??_XF_executeOnce 00C2                                      Button_init@id 0064  
                                    Button_init@me 0062                         __end_of_XF_unscheduleTimer 3170  
                                    Button_read@me 0060                                           ??_LED_on 0064  
                       ??_commControl_processEvent 00B3                                         LED_init@id 0064  
                                       LED_init@me 0062                               BLControl_onButton@me 0066  
                               ?_factory_toggleLed 0001                convertReg2StandardCANid@returnValue 0067  
                              DATAEE_ReadByte@bAdd 0060                                 i2XF_pushEvent@temp 002A  
                               i2XF_pushEvent@tmid 0025                              __end_of_steeringSetup 2678  
                          ??_ButtonSM_processEvent 00B3                                ??_factory_toggleLed 00A9  
                                 ??_PMD_Initialize 0060                                           ??___wmul 0064  
                            __end_of_Event_getData 2F22                                        ?_sepos_init 0062  
                           __end_ofi2_XF_pushEvent 1F32                        ?_commControl_startBehaviour 00A9  
                         ?_ButtonSM_startBehaviour 00A9                              __end_of_Event_setData 30F8  
                                     setCenter@msg 006A                                        __pbssBIGRAM 01E9  
                               _BLControl_onButton 302C                                           ?_LED_off 0062  
                      XF_decrementAndQueueTimers@i 002E                                 _UART1_ErrorHandler 00D1  
                                  steeringSetup@me 007B                                   ?_Event_setTarget 0060  
                                    __pcstackBANK0 0060                          __end_of_factory_toggleLed 2D34  
                   ButtonSM_setObserver@observerCB 0066                                     store_read@item 0064  
                                        __end_of_b 3550                                          __end_of_l 3538  
                  XF_decrementAndQueueTimers@dummy 002D                                ?_BLControl_onButton 0066  
                                         LED_on@me 0062                                   Event_setDelay@me 0060  
                                 Button_read@value 0064                                           ?_XF_init 0001  
                            __end_of_ButtonSM_init 2E60                       ??_XF_decrementAndQueueTimers 002B  
                            _TMR0_InterruptHandler 0031                                          __pnvBANK0 00D1  
                                      _CAN_receive 1230                                   ?_ECAN_Initialize 0001  
                             i2LEAVECRITICAL@inISR 0001                             _PIN_MANAGER_Initialize 2F22  
                         __end_of_convertCANid2Reg 1AD0                                        ?_store_init 0064  
                                      ?_store_read 0062                                  ?_UART1_Initialize 0001  
             __end_of_UART1_SetFramingErrorHandler 357C                       _UART1_SetFramingErrorHandler 3572  
                                         ?___awmod 0060                               ??_BLControl_onButton 006A  
                               ??_UART1_Initialize 0062                                    ??_Factory_build 0068  
                                 _uart1RxLastError 00D7                                           POST@data 0091  
                                  ?i2_XF_pushEvent 0015                       ??_INTERRUPT_InterruptManager 002F  
                                  ??_Factory_start 00AC                                           POST@tmid 0099  
                            __end_of_Button_initHW 3598                                        _COMSTATbits 003F90  
                 _UART1_DefaultOverrunErrorHandler 000000                        _ButtonSM_startBehaviour$212 00AB  
                                         _CANRXPPS 003AED                         BLControl_onButton@buttonId 0068  
                 __end_of_convertReg2ExtendedCANid 1C0E                     convertCANid2Reg@tempPassedInID 0060  
                             __end_ofi2_Event_init 2EC2                                        ??i2___awmod 0005  
                                      _U1ERRIRbits 003DF9                                      ??_setPosition 0064  
                             _INTERRUPT_Initialize 3590                                  ??_TMR0_Initialize 0062  
                        ButtonSM_startBehaviour@me 00A9                                          _setCenter 2678  
                                  Event_getData@me 0060                                     ___wmul@product 0064  
            UART1_SetErrorHandler@interruptHandler 0060                                           _LATBbits 003FBB  
                                 _getPositionFrame 30F8                                           _LED_init 34D2  
                             i2ENTERCRITICAL@inISR 0001                                           _PIE3bits 003993  
                                         _PIE5bits 003995                                           i2u200_41 2A3E  
                                         i2u201_40 2A5E                                           i2u201_41 2A5A  
                                         i2u202_40 23DE                                           i2u202_41 23DA  
                                         i2u203_40 23F8                                           i2u203_41 23F4  
                                         i2u204_40 2412                                           i2u204_41 240E  
                                         i2u205_40 2430                                           i2u205_41 242C  
                                         i2u206_40 2446                                           i2u206_41 2442  
                                         i2u207_40 246A                                           i2u207_41 2466  
                                         i2u216_40 1E64                                           i2u216_41 1E60  
                                         i2u217_41 1E8A                                           i2u218_40 1EEC  
                                         i2u218_41 1EE8                                           i2u219_41 1F14  
                       ??_TMR0_SetInterruptHandler 0062                                           i2u270_40 2034  
                                         i2u270_41 2030                                           i2u183_40 34BA  
                                         i2u271_40 206E                                           i2u183_41 34B6  
                                         i2u271_41 206A                                           _PIR0bits 0039A0  
                                         i2u184_40 34A4                                           i2u184_41 34A0  
                                         i2u272_41 2084                                           i2u273_40 20AE  
                                         i2u273_41 20AA                                           i2u274_40 20E6  
                                         i2u290_40 2F9E                                           i2u274_41 20E2  
                                         i2u290_41 2F9A                                           i2u275_40 3228  
                                         i2u291_40 2FAC                                           i2u275_41 3224  
                                         i2u291_41 2FA8                                           i2u292_40 2FBE  
                                         i2u292_41 2FBA                                           i2u276_48 322E  
                                         i2u293_40 2FCC                                           i2u276_49 3242  
                                         i2u293_41 2FC8                                           _PIR3bits 0039A3  
                                         XF_init@i 0068                                           i2u198_41 2EA6  
                                         i2u199_40 2A0C                                           i2u199_41 2A08  
                                         _PIR5bits 0039A5                                           _RXB0EIDH 003F83  
                                       POST@target 008A                                           _RXB0EIDL 003F84  
                                         _RXB1EIDH 0037F3                                           _RXB1EIDL 0037F4  
                                 ??_getCenterFrame 007D                                           _RXB0SIDH 003F81  
                                         _RXB0SIDL 003F82                                           _RXF0EIDH 0037A2  
                                         _RXB1SIDH 0037F1                                           _RXF0EIDL 0037A3  
                                         _RXB1SIDL 0037F2                                           _RXF1EIDH 0037A6  
                                         _RXF1EIDL 0037A7                                           _RXF2EIDH 0037AA  
                                         _RXF2EIDL 0037AB                                           _RXF3EIDH 0037AE  
                                         _RXF3EIDL 0037AF                                           _RXF4EIDH 0037B2  
                                         _RXF4EIDL 0037B3                                           _RXF5EIDH 0037B6  
                                         _RXF5EIDL 0037B7                                           _RXF0SIDH 0037A0  
                                         _RXF0SIDL 0037A1                                           _RXF1SIDH 0037A4  
                                         _TXB0EIDH 0037E3                                           _TXB0EIDL 0037E4  
                                         _RXF1SIDL 0037A5                                           _RXF2SIDH 0037A8  
                                         _TXB1EIDH 0037D3                                           _TXB1EIDL 0037D4  
                                         _RXF2SIDL 0037A9                                           _RXF3SIDH 0037AC  
                                         _TXB2EIDH 0037C3                                           _TXB2EIDL 0037C4  
                                         _RXF3SIDL 0037AD                                           _RXF4SIDH 0037B0  
                                         _RXF4SIDL 0037B1                                           _TMR0_ISR 3212  
                                         _RXF5SIDH 0037B4                                           _RXF5SIDL 0037B5  
                  __end_of_ButtonSM_startBehaviour 28D0                                           _RXM0EIDH 0037BA  
                                         _RXM0EIDL 0037BB                                           _RXM1EIDH 0037BE  
                                         _TXB0SIDH 0037E1                                           _RXM1EIDL 0037BF  
                                         _TXB0SIDL 0037E2                                           _TXB1SIDH 0037D1  
                                         _TXB1SIDL 0037D2                                           _TXB2SIDH 0037C1  
                                         _TXB2SIDL 0037C2                       commControl_startBehaviour@me 00A9  
                                         _RXM0SIDH 0037B8                                           _RXM0SIDL 0037B9  
                                         _RXM1SIDH 0037BC                                           _RXM1SIDL 0037BD  
                    ?_UART1_SetFramingErrorHandler 0060                              Event_setTarget@target 0062  
                                ___wmul@multiplier 0060                            i2XF_scheduleTimer@inISR 0013  
                            DATAEE_WriteByte@bData 0062                                   XF_executeOnce@ev 00C2  
                                      _INTCON0bits 003FD2                                      _LEAVECRITICAL 3412  
                            ?_INTERRUPT_Initialize 0001                                      ?_Factory_init 0001  
                 __end_of_commControl_processEvent 096A                                 i2___awmod@dividend 0001  
                                ?_DATAEE_WriteByte 0060                                         ?_setCenter 0068  
                               ??_DATAEE_WriteByte 0063                                   _commControl_init 3074  
                                  readCANFrame@msg 00AB                           _convertReg2StandardCANid 2B70  
            convertReg2ExtendedCANid@tempRXBn_EIDH 0068              convertReg2ExtendedCANid@tempRXBn_EIDL 0060  
                               i2Event_getDelay@me 0001              convertReg2ExtendedCANid@tempRXBn_SIDH 0061  
            convertReg2ExtendedCANid@tempRXBn_SIDL 0062                                __end_of_setPosition 3596  
                                         __Hrparam 0000                                           __Lrparam 0000  
                        convertCANid2Reg@canIdType 0064                            ??_OSCILLATOR_Initialize 0060  
                commControl_processEvent@processed 00BD  convertReg2ExtendedCANid@CAN_standardLo_ID_hi3bits 006E  
                                  Event_setData@me 0060  convertReg2ExtendedCANid@CAN_standardLo_ID_lo2bits 006D  
                          convertCANid2Reg@wipSIDL 0071                                         _T0CON0bits 003FB8  
                                         __pivt0x8 0008                                           __ptext10 2712  
                                         __ptext11 1746                                           __ptext20 2EC2  
                                         __ptext12 1230                                           __ptext21 2266  
                                         __ptext13 2B70                                           __ptext30 357C  
                                         __ptext22 34E6                                           __ptext14 1AD0  
                                         __ptext31 331A                                           __ptext23 34F6  
                                         __ptext15 30F8                                           __ptext40 295C  
                                         __ptext32 3586                                           __ptext24 302C  
                                         __ptext16 27A8                                           __ptext41 283C  
                                         __ptext33 3340                                           __ptext25 2A68  
                                         __ptext17 32A0                                           __ptext50 33DA  
                                         __ptext42 21AA                                           __ptext34 2F22  
                                         __ptext26 3384                                           __ptext18 0E00  
                                         __ptext51 33F6                                           __ptext43 1D42  
                                         __ptext35 347A                                           __ptext27 2C60  
                                         __ptext19 3274                                           __ptext60 3514  
                                         __ptext52 34BE                                           __ptext44 231A  
                                         __ptext36 3590                                           __ptext28 3568  
                                         __ptext61 252A                                           __ptext53 30B8  
                                         __ptext45 28D0                                           __ptext37 1526  
                                         __ptext29 3572                                           __ptext70 3596  
                                         __ptext62 3520                                           __ptext54 2D98  
                                         __ptext46 3412                                           __ptext38 1936  
                                         __ptext71 32CA                                           __ptext63 352C  
                                         __ptext55 20E8                                           __ptext47 342C  
                                         __ptext39 2D34                                           __ptext80 359A  
                                         __ptext72 2DFC                                           __ptext64 3074  
                                         __ptext56 247C                                           __ptext48 33A2  
                                         __ptext81 2010                                           __ptext73 3598  
                                         __ptext65 3538                                           __ptext57 1C0E  
                                         __ptext49 33BE                                           __ptext90 34A8  
                                         __ptext82 1E3E                                           __ptext74 32F2  
                                         __ptext66 3544                                           __ptext58 2FDE  
                                         __ptext91 0000                                           __ptext83 23CC  
                                         __ptext75 3550                                           __ptext67 3506  
                                         __ptext59 3364                                           __ptext84 29E2  
                                         __ptext76 355C                                           __ptext68 2AEC  
                                         __ptext85 3446                                           __ptext77 31DE  
                                         __ptext69 34D2                                           __ptext86 3460  
                                         __ptext78 2F82                                           __ptext87 3134  
                                         __ptext79 3212                                           __ptext88 3492  
                                         __ptext89 2E60                                     ?_LEAVECRITICAL 0001  
                                    _ENTERCRITICAL 342C                                     ??_Factory_init 0068  
                              getPositionFrame@msg 0081                                         _U1CON0bits 003DF2  
                    __end_of_UART1_SetErrorHandler 3586                        DATAEE_WriteByte@GIEBitValue 0063  
                                 store_write@value 0067                convertReg2StandardCANid@ConvertedID 006B  
               __end_of_XF_decrementAndQueueTimers 20E8                         _XF_decrementAndQueueTimers 2010  
                                   _BLControl_init 3598                                      store_write@me 0064  
                     __end_of_ButtonSM_setObserver 3212               __end_of_TMR0_DefaultInterruptHandler 359C  
                     _TMR0_DefaultInterruptHandler 359A                convertReg2ExtendedCANid@returnValue 0069  
                                ??_DATAEE_ReadByte 0062                          _UART1_OverrunErrorHandler 00D3  
     UART1_SetOverrunErrorHandler@interruptHandler 0060                                           isa$xinst 000000  
                        ?_convertReg2ExtendedCANid 0060                                      ??_store_write 0068  
                                    ?_CAN_transmit 0072                                 _XF_unscheduleTimer 3134  
                    __end_of_ButtonSM_processEvent 0E00                                       ??_sepos_init 0064  
                                    ?_XF_pushEvent 0074                 __end_of_INTERRUPT_InterruptManager 2FDE  
                       _INTERRUPT_InterruptManager 2F82                                ?_XF_unscheduleTimer 0003  
                                      _RXB0CONbits 003F80                                  i2___awmod@divisor 0003  
                   ??_UART1_SetFramingErrorHandler 0062                                        _RXB1CONbits 0037F0  
                                i2___awmod@counter 0005                                     readCANFrame@me 00A9  
                                      _NVMCON1bits 0039E5                                         _LED_initHW 3506  
                                   ?_ENTERCRITICAL 0001                             ??_INTERRUPT_Initialize 0060  
                           __end_of_BLControl_init 359A                                           intlevel2 0000  
                                      _setPosition 3594                                        ??_setCenter 006C  
                               __end_of_sepos_init 25D4                            ?_PIN_MANAGER_Initialize 0001  
                             ??_XF_unscheduleTimer 0004                                        _TXB0CONbits 0037E0  
                                     ?_CAN_receive 0073                                        _TXB1CONbits 0037D0  
                                      _TXB2CONbits 0037C0                           getPositionFrame@position 007D  
                  fp__TMR0_DefaultInterruptHandler 0000                      ?_TMR0_DefaultInterruptHandler 0001  
                                     ??_store_init 0066                                       ??_store_read 0065  
                                   ??_CAN_transmit 0074                                   ??i2_XF_pushEvent 0027  
                                ?_convertCANid2Reg 0060                                       i2_Event_init 2E60  
                                   ??_XF_pushEvent 0086       UART1_SetFramingErrorHandler@interruptHandler 0060  
                               ??_convertCANid2Reg 006D                          ?_commControl_processEvent 00B1  
                                ??i2_LEAVECRITICAL 0001                         commControl_processEvent@me 00C0  
                       commControl_processEvent@ev 00B1                                       sepos_init@me 0062  
                               commControl_init@me 0062                                __end_of_store_write 31DE  
                         __end_of_getPositionFrame 3134                                      ??_XF_popEvent 0075  
                                  _TMR0_Initialize 331A                              i2Event_setDelay@delay 0003  
                                  ??_LEAVECRITICAL 0060                                   BLControl_init@me 0062  
                               __end_of_store_init 1D42                                 __end_of_store_read 32CA  
                                  ?_BLControl_init 0062                     __end_of_PIN_MANAGER_Initialize 2F82  
                    ButtonSM_processEvent@oldState 00B5                                 i2Event_setDelay@me 0001  
                                 i2_Event_getDelay 3460  
